
smartfusionmss_MSS_CM3_0_app:     file format elf32-littlearm

Sections:
Idx Name          Size      VMA       LMA       File off  Algn
  0 .text         0000abd8  20000000  20000000  00008000  2**4
                  CONTENTS, ALLOC, LOAD, READONLY, CODE
  1 .ARM.exidx    00000008  2000abd8  2000abd8  00012bd8  2**2
                  CONTENTS, ALLOC, LOAD, READONLY, DATA
  2 .data         00000560  2000abe0  2000abe0  00012be0  2**2
                  CONTENTS, ALLOC, LOAD, DATA
  3 .bss          000001a0  2000b140  2000b140  00013140  2**2
                  ALLOC
  4 .stack        00003000  2000b2e0  2000b2e0  00013140  2**0
                  ALLOC
  5 .comment      0000012d  00000000  00000000  00013140  2**0
                  CONTENTS, READONLY
  6 .debug_aranges 00000308  00000000  00000000  0001326d  2**0
                  CONTENTS, READONLY, DEBUGGING
  7 .debug_pubnames 000005a0  00000000  00000000  00013575  2**0
                  CONTENTS, READONLY, DEBUGGING
  8 .debug_info   000055d1  00000000  00000000  00013b15  2**0
                  CONTENTS, READONLY, DEBUGGING
  9 .debug_abbrev 00000adc  00000000  00000000  000190e6  2**0
                  CONTENTS, READONLY, DEBUGGING
 10 .debug_line   000022b4  00000000  00000000  00019bc2  2**0
                  CONTENTS, READONLY, DEBUGGING
 11 .debug_frame  000018bc  00000000  00000000  0001be78  2**2
                  CONTENTS, READONLY, DEBUGGING
 12 .debug_str    00001c1e  00000000  00000000  0001d734  2**0
                  CONTENTS, READONLY, DEBUGGING
 13 .debug_loc    00000f72  00000000  00000000  0001f352  2**0
                  CONTENTS, READONLY, DEBUGGING
 14 .debug_macinfo 0003831c  00000000  00000000  000202c4  2**0
                  CONTENTS, READONLY, DEBUGGING
 15 .ARM.attributes 00000025  00000000  00000000  000585e0  2**0
                  CONTENTS, READONLY
 16 .debug_ranges 000002d0  00000000  00000000  00058605  2**0
                  CONTENTS, READONLY, DEBUGGING

Disassembly of section .text:

20000000 <__text_start>:
20000000:	20010000 	.word	0x20010000
20000004:	20000299 	.word	0x20000299
20000008:	20000309 	.word	0x20000309
2000000c:	2000030b 	.word	0x2000030b
20000010:	2000030d 	.word	0x2000030d
20000014:	2000030f 	.word	0x2000030f
20000018:	20000311 	.word	0x20000311
	...
2000002c:	20000313 	.word	0x20000313
20000030:	20000315 	.word	0x20000315
20000034:	00000000 	.word	0x00000000
20000038:	20000317 	.word	0x20000317
2000003c:	20000319 	.word	0x20000319
20000040:	2000031b 	.word	0x2000031b
20000044:	2000031d 	.word	0x2000031d
20000048:	2000031f 	.word	0x2000031f
2000004c:	20000321 	.word	0x20000321
20000050:	20000323 	.word	0x20000323
20000054:	20000325 	.word	0x20000325
20000058:	20000327 	.word	0x20000327
2000005c:	20000329 	.word	0x20000329
20000060:	2000032b 	.word	0x2000032b
20000064:	2000032d 	.word	0x2000032d
20000068:	2000150d 	.word	0x2000150d
2000006c:	20001539 	.word	0x20001539
20000070:	20000333 	.word	0x20000333
20000074:	20000335 	.word	0x20000335
20000078:	20000337 	.word	0x20000337
2000007c:	20000339 	.word	0x20000339
20000080:	2000033b 	.word	0x2000033b
20000084:	2000033d 	.word	0x2000033d
20000088:	2000033f 	.word	0x2000033f
2000008c:	20000341 	.word	0x20000341
20000090:	20000809 	.word	0x20000809
20000094:	20000345 	.word	0x20000345
20000098:	20000347 	.word	0x20000347
2000009c:	20000349 	.word	0x20000349
200000a0:	2000034b 	.word	0x2000034b
	...
200000bc:	2000034d 	.word	0x2000034d
200000c0:	2000034f 	.word	0x2000034f
200000c4:	20000351 	.word	0x20000351
200000c8:	20000353 	.word	0x20000353
200000cc:	20000355 	.word	0x20000355
200000d0:	20000357 	.word	0x20000357
200000d4:	20000359 	.word	0x20000359
200000d8:	2000035b 	.word	0x2000035b
200000dc:	2000035d 	.word	0x2000035d
200000e0:	2000035f 	.word	0x2000035f
200000e4:	20000361 	.word	0x20000361
200000e8:	20000363 	.word	0x20000363
200000ec:	20000365 	.word	0x20000365
200000f0:	20000367 	.word	0x20000367
200000f4:	20000369 	.word	0x20000369
200000f8:	2000036b 	.word	0x2000036b
200000fc:	2000036d 	.word	0x2000036d
20000100:	2000036f 	.word	0x2000036f
20000104:	20000371 	.word	0x20000371
20000108:	20000373 	.word	0x20000373
2000010c:	20000375 	.word	0x20000375
20000110:	20000377 	.word	0x20000377
20000114:	20000379 	.word	0x20000379
20000118:	2000037b 	.word	0x2000037b
2000011c:	2000037d 	.word	0x2000037d
20000120:	2000037f 	.word	0x2000037f
20000124:	20000381 	.word	0x20000381
20000128:	20000383 	.word	0x20000383
2000012c:	20000385 	.word	0x20000385
20000130:	20000387 	.word	0x20000387
20000134:	20000389 	.word	0x20000389
20000138:	2000038b 	.word	0x2000038b
2000013c:	2000038d 	.word	0x2000038d
20000140:	2000038f 	.word	0x2000038f
20000144:	20000391 	.word	0x20000391
20000148:	20000393 	.word	0x20000393
2000014c:	20000395 	.word	0x20000395
20000150:	20000397 	.word	0x20000397
20000154:	20000399 	.word	0x20000399
20000158:	2000039b 	.word	0x2000039b
2000015c:	2000039d 	.word	0x2000039d
20000160:	2000039f 	.word	0x2000039f
20000164:	200003a1 	.word	0x200003a1
20000168:	200003a3 	.word	0x200003a3
2000016c:	200003a5 	.word	0x200003a5
20000170:	200003a7 	.word	0x200003a7
20000174:	200003a9 	.word	0x200003a9
20000178:	200003ab 	.word	0x200003ab
2000017c:	200003ad 	.word	0x200003ad
20000180:	200003af 	.word	0x200003af
20000184:	200003b1 	.word	0x200003b1
20000188:	200003b3 	.word	0x200003b3
2000018c:	200003b5 	.word	0x200003b5
20000190:	200003b7 	.word	0x200003b7
20000194:	200003b9 	.word	0x200003b9
20000198:	200003bb 	.word	0x200003bb
2000019c:	200003bd 	.word	0x200003bd
200001a0:	200003bf 	.word	0x200003bf
200001a4:	200003c1 	.word	0x200003c1
200001a8:	200003c3 	.word	0x200003c3
200001ac:	200003c5 	.word	0x200003c5
200001b0:	200003c7 	.word	0x200003c7
200001b4:	200003c9 	.word	0x200003c9
200001b8:	200003cb 	.word	0x200003cb
200001bc:	200003cd 	.word	0x200003cd
200001c0:	200003cf 	.word	0x200003cf
200001c4:	200003d1 	.word	0x200003d1
200001c8:	200003d3 	.word	0x200003d3
200001cc:	200003d5 	.word	0x200003d5
200001d0:	200003d7 	.word	0x200003d7
200001d4:	200003d9 	.word	0x200003d9
200001d8:	200003db 	.word	0x200003db
200001dc:	200003dd 	.word	0x200003dd
200001e0:	200003df 	.word	0x200003df
200001e4:	200003e1 	.word	0x200003e1
200001e8:	200003e3 	.word	0x200003e3
200001ec:	200003e5 	.word	0x200003e5
200001f0:	200003e7 	.word	0x200003e7
200001f4:	200003e9 	.word	0x200003e9
200001f8:	200003eb 	.word	0x200003eb
200001fc:	200003ed 	.word	0x200003ed
20000200:	200003ef 	.word	0x200003ef
20000204:	200003f1 	.word	0x200003f1
20000208:	200003f3 	.word	0x200003f3
2000020c:	200003f5 	.word	0x200003f5
20000210:	200003f7 	.word	0x200003f7
20000214:	200003f9 	.word	0x200003f9
20000218:	200003fb 	.word	0x200003fb
2000021c:	200003fd 	.word	0x200003fd
20000220:	200003ff 	.word	0x200003ff
20000224:	20000401 	.word	0x20000401
20000228:	20000403 	.word	0x20000403
2000022c:	20000405 	.word	0x20000405
20000230:	20000407 	.word	0x20000407
20000234:	20000409 	.word	0x20000409
20000238:	2000040b 	.word	0x2000040b
2000023c:	2000040d 	.word	0x2000040d
20000240:	2000040f 	.word	0x2000040f
20000244:	20000411 	.word	0x20000411
20000248:	20000413 	.word	0x20000413
2000024c:	20000415 	.word	0x20000415
20000250:	20000417 	.word	0x20000417
20000254:	20000419 	.word	0x20000419
20000258:	2000041b 	.word	0x2000041b
2000025c:	2000041d 	.word	0x2000041d
20000260:	2000041f 	.word	0x2000041f
20000264:	20000421 	.word	0x20000421
20000268:	20000423 	.word	0x20000423
2000026c:	20000425 	.word	0x20000425
20000270:	20000427 	.word	0x20000427
20000274:	20000429 	.word	0x20000429
20000278:	2000042b 	.word	0x2000042b
2000027c:	2000042d 	.word	0x2000042d
20000280:	2000042f 	.word	0x2000042f
20000284:	20000431 	.word	0x20000431
20000288:	20000433 	.word	0x20000433
2000028c:	20000435 	.word	0x20000435
20000290:	20000437 	.word	0x20000437
20000294:	20000439 	.word	0x20000439

20000298 <Reset_Handler>:
20000298:	4868      	ldr	r0, [pc, #416]	; (2000043c <ACE_PPE_Flag31_IRQHandler+0x4>)
2000029a:	4780      	blx	r0
2000029c:	4868      	ldr	r0, [pc, #416]	; (20000440 <ACE_PPE_Flag31_IRQHandler+0x8>)
2000029e:	2800      	cmp	r0, #0
200002a0:	d10b      	bne.n	200002ba <copy_data>
200002a2:	4868      	ldr	r0, [pc, #416]	; (20000444 <ACE_PPE_Flag31_IRQHandler+0xc>)
200002a4:	4968      	ldr	r1, [pc, #416]	; (20000448 <ACE_PPE_Flag31_IRQHandler+0x10>)
200002a6:	4a69      	ldr	r2, [pc, #420]	; (2000044c <ACE_PPE_Flag31_IRQHandler+0x14>)
200002a8:	4288      	cmp	r0, r1
200002aa:	d006      	beq.n	200002ba <copy_data>

200002ac <copy_code_loop>:
200002ac:	4291      	cmp	r1, r2
200002ae:	bf1c      	itt	ne
200002b0:	f850 3b04 	ldrne.w	r3, [r0], #4
200002b4:	f841 3b04 	strne.w	r3, [r1], #4
200002b8:	d1f8      	bne.n	200002ac <copy_code_loop>

200002ba <copy_data>:
200002ba:	4865      	ldr	r0, [pc, #404]	; (20000450 <ACE_PPE_Flag31_IRQHandler+0x18>)
200002bc:	4965      	ldr	r1, [pc, #404]	; (20000454 <ACE_PPE_Flag31_IRQHandler+0x1c>)
200002be:	4a66      	ldr	r2, [pc, #408]	; (20000458 <ACE_PPE_Flag31_IRQHandler+0x20>)
200002c0:	4288      	cmp	r0, r1
200002c2:	d006      	beq.n	200002d2 <clear_bss>

200002c4 <copy_data_loop>:
200002c4:	4291      	cmp	r1, r2
200002c6:	bf1c      	itt	ne
200002c8:	f850 3b04 	ldrne.w	r3, [r0], #4
200002cc:	f841 3b04 	strne.w	r3, [r1], #4
200002d0:	d1f8      	bne.n	200002c4 <copy_data_loop>

200002d2 <clear_bss>:
200002d2:	4862      	ldr	r0, [pc, #392]	; (2000045c <ACE_PPE_Flag31_IRQHandler+0x24>)
200002d4:	4962      	ldr	r1, [pc, #392]	; (20000460 <ACE_PPE_Flag31_IRQHandler+0x28>)
200002d6:	4a63      	ldr	r2, [pc, #396]	; (20000464 <ACE_PPE_Flag31_IRQHandler+0x2c>)

200002d8 <clear_bss_loop>:
200002d8:	4291      	cmp	r1, r2
200002da:	bf18      	it	ne
200002dc:	f841 0b04 	strne.w	r0, [r1], #4
200002e0:	d1fa      	bne.n	200002d8 <clear_bss_loop>
	...

200002f0 <call_glob_ctor>:
200002f0:	f8df 0174 	ldr.w	r0, [pc, #372]	; 20000468 <ACE_PPE_Flag31_IRQHandler+0x30>
200002f4:	f20f 0e03 	addw	lr, pc, #3
200002f8:	4700      	bx	r0

200002fa <branch_to_main>:
200002fa:	f04f 0000 	mov.w	r0, #0
200002fe:	f04f 0100 	mov.w	r1, #0
20000302:	f8df f168 	ldr.w	pc, [pc, #360]	; 2000046c <ACE_PPE_Flag31_IRQHandler+0x34>

20000306 <ExitLoop>:
20000306:	e7fe      	b.n	20000306 <ExitLoop>

20000308 <NMI_Handler>:
20000308:	e7fe      	b.n	20000308 <NMI_Handler>

2000030a <HardFault_Handler>:
2000030a:	e7fe      	b.n	2000030a <HardFault_Handler>

2000030c <MemManage_Handler>:
2000030c:	e7fe      	b.n	2000030c <MemManage_Handler>

2000030e <BusFault_Handler>:
2000030e:	e7fe      	b.n	2000030e <BusFault_Handler>

20000310 <UsageFault_Handler>:
20000310:	e7fe      	b.n	20000310 <UsageFault_Handler>

20000312 <SVC_Handler>:
20000312:	e7fe      	b.n	20000312 <SVC_Handler>

20000314 <DebugMon_Handler>:
20000314:	e7fe      	b.n	20000314 <DebugMon_Handler>

20000316 <PendSV_Handler>:
20000316:	e7fe      	b.n	20000316 <PendSV_Handler>

20000318 <SysTick_Handler>:
20000318:	e7fe      	b.n	20000318 <SysTick_Handler>

2000031a <WdogWakeup_IRQHandler>:
2000031a:	e7fe      	b.n	2000031a <WdogWakeup_IRQHandler>

2000031c <BrownOut_1_5V_IRQHandler>:
2000031c:	e7fe      	b.n	2000031c <BrownOut_1_5V_IRQHandler>

2000031e <BrownOut_3_3V_IRQHandler>:
2000031e:	e7fe      	b.n	2000031e <BrownOut_3_3V_IRQHandler>

20000320 <RTC_Match_IRQHandler>:
20000320:	e7fe      	b.n	20000320 <RTC_Match_IRQHandler>

20000322 <RTCIF_Pub_IRQHandler>:
20000322:	e7fe      	b.n	20000322 <RTCIF_Pub_IRQHandler>

20000324 <EthernetMAC_IRQHandler>:
20000324:	e7fe      	b.n	20000324 <EthernetMAC_IRQHandler>

20000326 <IAP_IRQHandler>:
20000326:	e7fe      	b.n	20000326 <IAP_IRQHandler>

20000328 <ENVM0_IRQHandler>:
20000328:	e7fe      	b.n	20000328 <ENVM0_IRQHandler>

2000032a <ENVM1_IRQHandler>:
2000032a:	e7fe      	b.n	2000032a <ENVM1_IRQHandler>

2000032c <DMA_IRQHandler>:
2000032c:	e7fe      	b.n	2000032c <DMA_IRQHandler>
2000032e:	e7fe      	b.n	2000032e <DMA_IRQHandler+0x2>
20000330:	e7fe      	b.n	20000330 <DMA_IRQHandler+0x4>

20000332 <SPI0_IRQHandler>:
20000332:	e7fe      	b.n	20000332 <SPI0_IRQHandler>

20000334 <SPI1_IRQHandler>:
20000334:	e7fe      	b.n	20000334 <SPI1_IRQHandler>

20000336 <I2C0_IRQHandler>:
20000336:	e7fe      	b.n	20000336 <I2C0_IRQHandler>

20000338 <I2C0_SMBAlert_IRQHandler>:
20000338:	e7fe      	b.n	20000338 <I2C0_SMBAlert_IRQHandler>

2000033a <I2C0_SMBus_IRQHandler>:
2000033a:	e7fe      	b.n	2000033a <I2C0_SMBus_IRQHandler>

2000033c <I2C1_IRQHandler>:
2000033c:	e7fe      	b.n	2000033c <I2C1_IRQHandler>

2000033e <I2C1_SMBAlert_IRQHandler>:
2000033e:	e7fe      	b.n	2000033e <I2C1_SMBAlert_IRQHandler>

20000340 <I2C1_SMBus_IRQHandler>:
20000340:	e7fe      	b.n	20000340 <I2C1_SMBus_IRQHandler>
20000342:	e7fe      	b.n	20000342 <I2C1_SMBus_IRQHandler+0x2>

20000344 <Timer2_IRQHandler>:
20000344:	e7fe      	b.n	20000344 <Timer2_IRQHandler>

20000346 <PLL_Lock_IRQHandler>:
20000346:	e7fe      	b.n	20000346 <PLL_Lock_IRQHandler>

20000348 <PLL_LockLost_IRQHandler>:
20000348:	e7fe      	b.n	20000348 <PLL_LockLost_IRQHandler>

2000034a <CommError_IRQHandler>:
2000034a:	e7fe      	b.n	2000034a <CommError_IRQHandler>

2000034c <Fabric_IRQHandler>:
2000034c:	e7fe      	b.n	2000034c <Fabric_IRQHandler>

2000034e <GPIO0_IRQHandler>:
2000034e:	e7fe      	b.n	2000034e <GPIO0_IRQHandler>

20000350 <GPIO1_IRQHandler>:
20000350:	e7fe      	b.n	20000350 <GPIO1_IRQHandler>

20000352 <GPIO2_IRQHandler>:
20000352:	e7fe      	b.n	20000352 <GPIO2_IRQHandler>

20000354 <GPIO3_IRQHandler>:
20000354:	e7fe      	b.n	20000354 <GPIO3_IRQHandler>

20000356 <GPIO4_IRQHandler>:
20000356:	e7fe      	b.n	20000356 <GPIO4_IRQHandler>

20000358 <GPIO5_IRQHandler>:
20000358:	e7fe      	b.n	20000358 <GPIO5_IRQHandler>

2000035a <GPIO6_IRQHandler>:
2000035a:	e7fe      	b.n	2000035a <GPIO6_IRQHandler>

2000035c <GPIO7_IRQHandler>:
2000035c:	e7fe      	b.n	2000035c <GPIO7_IRQHandler>

2000035e <GPIO8_IRQHandler>:
2000035e:	e7fe      	b.n	2000035e <GPIO8_IRQHandler>

20000360 <GPIO9_IRQHandler>:
20000360:	e7fe      	b.n	20000360 <GPIO9_IRQHandler>

20000362 <GPIO10_IRQHandler>:
20000362:	e7fe      	b.n	20000362 <GPIO10_IRQHandler>

20000364 <GPIO11_IRQHandler>:
20000364:	e7fe      	b.n	20000364 <GPIO11_IRQHandler>

20000366 <GPIO12_IRQHandler>:
20000366:	e7fe      	b.n	20000366 <GPIO12_IRQHandler>

20000368 <GPIO13_IRQHandler>:
20000368:	e7fe      	b.n	20000368 <GPIO13_IRQHandler>

2000036a <GPIO14_IRQHandler>:
2000036a:	e7fe      	b.n	2000036a <GPIO14_IRQHandler>

2000036c <GPIO15_IRQHandler>:
2000036c:	e7fe      	b.n	2000036c <GPIO15_IRQHandler>

2000036e <GPIO16_IRQHandler>:
2000036e:	e7fe      	b.n	2000036e <GPIO16_IRQHandler>

20000370 <GPIO17_IRQHandler>:
20000370:	e7fe      	b.n	20000370 <GPIO17_IRQHandler>

20000372 <GPIO18_IRQHandler>:
20000372:	e7fe      	b.n	20000372 <GPIO18_IRQHandler>

20000374 <GPIO19_IRQHandler>:
20000374:	e7fe      	b.n	20000374 <GPIO19_IRQHandler>

20000376 <GPIO20_IRQHandler>:
20000376:	e7fe      	b.n	20000376 <GPIO20_IRQHandler>

20000378 <GPIO21_IRQHandler>:
20000378:	e7fe      	b.n	20000378 <GPIO21_IRQHandler>

2000037a <GPIO22_IRQHandler>:
2000037a:	e7fe      	b.n	2000037a <GPIO22_IRQHandler>

2000037c <GPIO23_IRQHandler>:
2000037c:	e7fe      	b.n	2000037c <GPIO23_IRQHandler>

2000037e <GPIO24_IRQHandler>:
2000037e:	e7fe      	b.n	2000037e <GPIO24_IRQHandler>

20000380 <GPIO25_IRQHandler>:
20000380:	e7fe      	b.n	20000380 <GPIO25_IRQHandler>

20000382 <GPIO26_IRQHandler>:
20000382:	e7fe      	b.n	20000382 <GPIO26_IRQHandler>

20000384 <GPIO27_IRQHandler>:
20000384:	e7fe      	b.n	20000384 <GPIO27_IRQHandler>

20000386 <GPIO28_IRQHandler>:
20000386:	e7fe      	b.n	20000386 <GPIO28_IRQHandler>

20000388 <GPIO29_IRQHandler>:
20000388:	e7fe      	b.n	20000388 <GPIO29_IRQHandler>

2000038a <GPIO30_IRQHandler>:
2000038a:	e7fe      	b.n	2000038a <GPIO30_IRQHandler>

2000038c <GPIO31_IRQHandler>:
2000038c:	e7fe      	b.n	2000038c <GPIO31_IRQHandler>

2000038e <ACE_PC0_Flag0_IRQHandler>:
2000038e:	e7fe      	b.n	2000038e <ACE_PC0_Flag0_IRQHandler>

20000390 <ACE_PC0_Flag1_IRQHandler>:
20000390:	e7fe      	b.n	20000390 <ACE_PC0_Flag1_IRQHandler>

20000392 <ACE_PC0_Flag2_IRQHandler>:
20000392:	e7fe      	b.n	20000392 <ACE_PC0_Flag2_IRQHandler>

20000394 <ACE_PC0_Flag3_IRQHandler>:
20000394:	e7fe      	b.n	20000394 <ACE_PC0_Flag3_IRQHandler>

20000396 <ACE_PC1_Flag0_IRQHandler>:
20000396:	e7fe      	b.n	20000396 <ACE_PC1_Flag0_IRQHandler>

20000398 <ACE_PC1_Flag1_IRQHandler>:
20000398:	e7fe      	b.n	20000398 <ACE_PC1_Flag1_IRQHandler>

2000039a <ACE_PC1_Flag2_IRQHandler>:
2000039a:	e7fe      	b.n	2000039a <ACE_PC1_Flag2_IRQHandler>

2000039c <ACE_PC1_Flag3_IRQHandler>:
2000039c:	e7fe      	b.n	2000039c <ACE_PC1_Flag3_IRQHandler>

2000039e <ACE_PC2_Flag0_IRQHandler>:
2000039e:	e7fe      	b.n	2000039e <ACE_PC2_Flag0_IRQHandler>

200003a0 <ACE_PC2_Flag1_IRQHandler>:
200003a0:	e7fe      	b.n	200003a0 <ACE_PC2_Flag1_IRQHandler>

200003a2 <ACE_PC2_Flag2_IRQHandler>:
200003a2:	e7fe      	b.n	200003a2 <ACE_PC2_Flag2_IRQHandler>

200003a4 <ACE_PC2_Flag3_IRQHandler>:
200003a4:	e7fe      	b.n	200003a4 <ACE_PC2_Flag3_IRQHandler>

200003a6 <ACE_ADC0_DataValid_IRQHandler>:
200003a6:	e7fe      	b.n	200003a6 <ACE_ADC0_DataValid_IRQHandler>

200003a8 <ACE_ADC1_DataValid_IRQHandler>:
200003a8:	e7fe      	b.n	200003a8 <ACE_ADC1_DataValid_IRQHandler>

200003aa <ACE_ADC2_DataValid_IRQHandler>:
200003aa:	e7fe      	b.n	200003aa <ACE_ADC2_DataValid_IRQHandler>

200003ac <ACE_ADC0_CalDone_IRQHandler>:
200003ac:	e7fe      	b.n	200003ac <ACE_ADC0_CalDone_IRQHandler>

200003ae <ACE_ADC1_CalDone_IRQHandler>:
200003ae:	e7fe      	b.n	200003ae <ACE_ADC1_CalDone_IRQHandler>

200003b0 <ACE_ADC2_CalDone_IRQHandler>:
200003b0:	e7fe      	b.n	200003b0 <ACE_ADC2_CalDone_IRQHandler>

200003b2 <ACE_ADC0_CalStart_IRQHandler>:
200003b2:	e7fe      	b.n	200003b2 <ACE_ADC0_CalStart_IRQHandler>

200003b4 <ACE_ADC1_CalStart_IRQHandler>:
200003b4:	e7fe      	b.n	200003b4 <ACE_ADC1_CalStart_IRQHandler>

200003b6 <ACE_ADC2_CalStart_IRQHandler>:
200003b6:	e7fe      	b.n	200003b6 <ACE_ADC2_CalStart_IRQHandler>

200003b8 <ACE_Comp0_Fall_IRQHandler>:
200003b8:	e7fe      	b.n	200003b8 <ACE_Comp0_Fall_IRQHandler>

200003ba <ACE_Comp1_Fall_IRQHandler>:
200003ba:	e7fe      	b.n	200003ba <ACE_Comp1_Fall_IRQHandler>

200003bc <ACE_Comp2_Fall_IRQHandler>:
200003bc:	e7fe      	b.n	200003bc <ACE_Comp2_Fall_IRQHandler>

200003be <ACE_Comp3_Fall_IRQHandler>:
200003be:	e7fe      	b.n	200003be <ACE_Comp3_Fall_IRQHandler>

200003c0 <ACE_Comp4_Fall_IRQHandler>:
200003c0:	e7fe      	b.n	200003c0 <ACE_Comp4_Fall_IRQHandler>

200003c2 <ACE_Comp5_Fall_IRQHandler>:
200003c2:	e7fe      	b.n	200003c2 <ACE_Comp5_Fall_IRQHandler>

200003c4 <ACE_Comp6_Fall_IRQHandler>:
200003c4:	e7fe      	b.n	200003c4 <ACE_Comp6_Fall_IRQHandler>

200003c6 <ACE_Comp7_Fall_IRQHandler>:
200003c6:	e7fe      	b.n	200003c6 <ACE_Comp7_Fall_IRQHandler>

200003c8 <ACE_Comp8_Fall_IRQHandler>:
200003c8:	e7fe      	b.n	200003c8 <ACE_Comp8_Fall_IRQHandler>

200003ca <ACE_Comp9_Fall_IRQHandler>:
200003ca:	e7fe      	b.n	200003ca <ACE_Comp9_Fall_IRQHandler>

200003cc <ACE_Comp10_Fall_IRQHandler>:
200003cc:	e7fe      	b.n	200003cc <ACE_Comp10_Fall_IRQHandler>

200003ce <ACE_Comp11_Fall_IRQHandler>:
200003ce:	e7fe      	b.n	200003ce <ACE_Comp11_Fall_IRQHandler>

200003d0 <ACE_Comp0_Rise_IRQHandler>:
200003d0:	e7fe      	b.n	200003d0 <ACE_Comp0_Rise_IRQHandler>

200003d2 <ACE_Comp1_Rise_IRQHandler>:
200003d2:	e7fe      	b.n	200003d2 <ACE_Comp1_Rise_IRQHandler>

200003d4 <ACE_Comp2_Rise_IRQHandler>:
200003d4:	e7fe      	b.n	200003d4 <ACE_Comp2_Rise_IRQHandler>

200003d6 <ACE_Comp3_Rise_IRQHandler>:
200003d6:	e7fe      	b.n	200003d6 <ACE_Comp3_Rise_IRQHandler>

200003d8 <ACE_Comp4_Rise_IRQHandler>:
200003d8:	e7fe      	b.n	200003d8 <ACE_Comp4_Rise_IRQHandler>

200003da <ACE_Comp5_Rise_IRQHandler>:
200003da:	e7fe      	b.n	200003da <ACE_Comp5_Rise_IRQHandler>

200003dc <ACE_Comp6_Rise_IRQHandler>:
200003dc:	e7fe      	b.n	200003dc <ACE_Comp6_Rise_IRQHandler>

200003de <ACE_Comp7_Rise_IRQHandler>:
200003de:	e7fe      	b.n	200003de <ACE_Comp7_Rise_IRQHandler>

200003e0 <ACE_Comp8_Rise_IRQHandler>:
200003e0:	e7fe      	b.n	200003e0 <ACE_Comp8_Rise_IRQHandler>

200003e2 <ACE_Comp9_Rise_IRQHandler>:
200003e2:	e7fe      	b.n	200003e2 <ACE_Comp9_Rise_IRQHandler>

200003e4 <ACE_Comp10_Rise_IRQHandler>:
200003e4:	e7fe      	b.n	200003e4 <ACE_Comp10_Rise_IRQHandler>

200003e6 <ACE_Comp11_Rise_IRQHandler>:
200003e6:	e7fe      	b.n	200003e6 <ACE_Comp11_Rise_IRQHandler>

200003e8 <ACE_ADC0_FifoFull_IRQHandler>:
200003e8:	e7fe      	b.n	200003e8 <ACE_ADC0_FifoFull_IRQHandler>

200003ea <ACE_ADC0_FifoAFull_IRQHandler>:
200003ea:	e7fe      	b.n	200003ea <ACE_ADC0_FifoAFull_IRQHandler>

200003ec <ACE_ADC0_FifoEmpty_IRQHandler>:
200003ec:	e7fe      	b.n	200003ec <ACE_ADC0_FifoEmpty_IRQHandler>

200003ee <ACE_ADC1_FifoFull_IRQHandler>:
200003ee:	e7fe      	b.n	200003ee <ACE_ADC1_FifoFull_IRQHandler>

200003f0 <ACE_ADC1_FifoAFull_IRQHandler>:
200003f0:	e7fe      	b.n	200003f0 <ACE_ADC1_FifoAFull_IRQHandler>

200003f2 <ACE_ADC1_FifoEmpty_IRQHandler>:
200003f2:	e7fe      	b.n	200003f2 <ACE_ADC1_FifoEmpty_IRQHandler>

200003f4 <ACE_ADC2_FifoFull_IRQHandler>:
200003f4:	e7fe      	b.n	200003f4 <ACE_ADC2_FifoFull_IRQHandler>

200003f6 <ACE_ADC2_FifoAFull_IRQHandler>:
200003f6:	e7fe      	b.n	200003f6 <ACE_ADC2_FifoAFull_IRQHandler>

200003f8 <ACE_ADC2_FifoEmpty_IRQHandler>:
200003f8:	e7fe      	b.n	200003f8 <ACE_ADC2_FifoEmpty_IRQHandler>

200003fa <ACE_PPE_Flag0_IRQHandler>:
200003fa:	e7fe      	b.n	200003fa <ACE_PPE_Flag0_IRQHandler>

200003fc <ACE_PPE_Flag1_IRQHandler>:
200003fc:	e7fe      	b.n	200003fc <ACE_PPE_Flag1_IRQHandler>

200003fe <ACE_PPE_Flag2_IRQHandler>:
200003fe:	e7fe      	b.n	200003fe <ACE_PPE_Flag2_IRQHandler>

20000400 <ACE_PPE_Flag3_IRQHandler>:
20000400:	e7fe      	b.n	20000400 <ACE_PPE_Flag3_IRQHandler>

20000402 <ACE_PPE_Flag4_IRQHandler>:
20000402:	e7fe      	b.n	20000402 <ACE_PPE_Flag4_IRQHandler>

20000404 <ACE_PPE_Flag5_IRQHandler>:
20000404:	e7fe      	b.n	20000404 <ACE_PPE_Flag5_IRQHandler>

20000406 <ACE_PPE_Flag6_IRQHandler>:
20000406:	e7fe      	b.n	20000406 <ACE_PPE_Flag6_IRQHandler>

20000408 <ACE_PPE_Flag7_IRQHandler>:
20000408:	e7fe      	b.n	20000408 <ACE_PPE_Flag7_IRQHandler>

2000040a <ACE_PPE_Flag8_IRQHandler>:
2000040a:	e7fe      	b.n	2000040a <ACE_PPE_Flag8_IRQHandler>

2000040c <ACE_PPE_Flag9_IRQHandler>:
2000040c:	e7fe      	b.n	2000040c <ACE_PPE_Flag9_IRQHandler>

2000040e <ACE_PPE_Flag10_IRQHandler>:
2000040e:	e7fe      	b.n	2000040e <ACE_PPE_Flag10_IRQHandler>

20000410 <ACE_PPE_Flag11_IRQHandler>:
20000410:	e7fe      	b.n	20000410 <ACE_PPE_Flag11_IRQHandler>

20000412 <ACE_PPE_Flag12_IRQHandler>:
20000412:	e7fe      	b.n	20000412 <ACE_PPE_Flag12_IRQHandler>

20000414 <ACE_PPE_Flag13_IRQHandler>:
20000414:	e7fe      	b.n	20000414 <ACE_PPE_Flag13_IRQHandler>

20000416 <ACE_PPE_Flag14_IRQHandler>:
20000416:	e7fe      	b.n	20000416 <ACE_PPE_Flag14_IRQHandler>

20000418 <ACE_PPE_Flag15_IRQHandler>:
20000418:	e7fe      	b.n	20000418 <ACE_PPE_Flag15_IRQHandler>

2000041a <ACE_PPE_Flag16_IRQHandler>:
2000041a:	e7fe      	b.n	2000041a <ACE_PPE_Flag16_IRQHandler>

2000041c <ACE_PPE_Flag17_IRQHandler>:
2000041c:	e7fe      	b.n	2000041c <ACE_PPE_Flag17_IRQHandler>

2000041e <ACE_PPE_Flag18_IRQHandler>:
2000041e:	e7fe      	b.n	2000041e <ACE_PPE_Flag18_IRQHandler>

20000420 <ACE_PPE_Flag19_IRQHandler>:
20000420:	e7fe      	b.n	20000420 <ACE_PPE_Flag19_IRQHandler>

20000422 <ACE_PPE_Flag20_IRQHandler>:
20000422:	e7fe      	b.n	20000422 <ACE_PPE_Flag20_IRQHandler>

20000424 <ACE_PPE_Flag21_IRQHandler>:
20000424:	e7fe      	b.n	20000424 <ACE_PPE_Flag21_IRQHandler>

20000426 <ACE_PPE_Flag22_IRQHandler>:
20000426:	e7fe      	b.n	20000426 <ACE_PPE_Flag22_IRQHandler>

20000428 <ACE_PPE_Flag23_IRQHandler>:
20000428:	e7fe      	b.n	20000428 <ACE_PPE_Flag23_IRQHandler>

2000042a <ACE_PPE_Flag24_IRQHandler>:
2000042a:	e7fe      	b.n	2000042a <ACE_PPE_Flag24_IRQHandler>

2000042c <ACE_PPE_Flag25_IRQHandler>:
2000042c:	e7fe      	b.n	2000042c <ACE_PPE_Flag25_IRQHandler>

2000042e <ACE_PPE_Flag26_IRQHandler>:
2000042e:	e7fe      	b.n	2000042e <ACE_PPE_Flag26_IRQHandler>

20000430 <ACE_PPE_Flag27_IRQHandler>:
20000430:	e7fe      	b.n	20000430 <ACE_PPE_Flag27_IRQHandler>

20000432 <ACE_PPE_Flag28_IRQHandler>:
20000432:	e7fe      	b.n	20000432 <ACE_PPE_Flag28_IRQHandler>

20000434 <ACE_PPE_Flag29_IRQHandler>:
20000434:	e7fe      	b.n	20000434 <ACE_PPE_Flag29_IRQHandler>

20000436 <ACE_PPE_Flag30_IRQHandler>:
20000436:	e7fe      	b.n	20000436 <ACE_PPE_Flag30_IRQHandler>

20000438 <ACE_PPE_Flag31_IRQHandler>:
20000438:	e7fe      	b.n	20000438 <ACE_PPE_Flag31_IRQHandler>
2000043a:	0000      	.short	0x0000
2000043c:	20001565 	.word	0x20001565
20000440:	00000000 	.word	0x00000000
20000444:	20000000 	.word	0x20000000
20000448:	20000000 	.word	0x20000000
2000044c:	2000abe0 	.word	0x2000abe0
20000450:	2000abe0 	.word	0x2000abe0
20000454:	2000abe0 	.word	0x2000abe0
20000458:	2000b140 	.word	0x2000b140
2000045c:	00000000 	.word	0x00000000
20000460:	2000b140 	.word	0x2000b140
20000464:	2000b2e0 	.word	0x2000b2e0
20000468:	200017a9 	.word	0x200017a9
2000046c:	20000821 	.word	0x20000821

20000470 <__do_global_dtors_aux>:
20000470:	f24b 1340 	movw	r3, #45376	; 0xb140
20000474:	f2c2 0300 	movt	r3, #8192	; 0x2000
20000478:	781a      	ldrb	r2, [r3, #0]
2000047a:	b90a      	cbnz	r2, 20000480 <__do_global_dtors_aux+0x10>
2000047c:	2001      	movs	r0, #1
2000047e:	7018      	strb	r0, [r3, #0]
20000480:	4770      	bx	lr
20000482:	bf00      	nop

20000484 <frame_dummy>:
20000484:	f64a 30e0 	movw	r0, #44000	; 0xabe0
20000488:	f2c2 0000 	movt	r0, #8192	; 0x2000
2000048c:	b508      	push	{r3, lr}
2000048e:	6803      	ldr	r3, [r0, #0]
20000490:	b12b      	cbz	r3, 2000049e <frame_dummy+0x1a>
20000492:	f240 0300 	movw	r3, #0
20000496:	f2c0 0300 	movt	r3, #0
2000049a:	b103      	cbz	r3, 2000049e <frame_dummy+0x1a>
2000049c:	4798      	blx	r3
2000049e:	bd08      	pop	{r3, pc}

200004a0 <NVIC_EnableIRQ>:
 *
 * Enable a device specific interupt in the NVIC interrupt controller.
 * The interrupt number cannot be a negative value.
 */
static __INLINE void NVIC_EnableIRQ(IRQn_Type IRQn)
{
200004a0:	b480      	push	{r7}
200004a2:	b083      	sub	sp, #12
200004a4:	af00      	add	r7, sp, #0
200004a6:	4603      	mov	r3, r0
200004a8:	80fb      	strh	r3, [r7, #6]
  NVIC->ISER[((uint32_t)(IRQn) >> 5)] = (1 << ((uint32_t)(IRQn) & 0x1F)); /* enable interrupt */
200004aa:	f24e 1300 	movw	r3, #57600	; 0xe100
200004ae:	f2ce 0300 	movt	r3, #57344	; 0xe000
200004b2:	f9b7 2006 	ldrsh.w	r2, [r7, #6]
200004b6:	ea4f 1252 	mov.w	r2, r2, lsr #5
200004ba:	88f9      	ldrh	r1, [r7, #6]
200004bc:	f001 011f 	and.w	r1, r1, #31
200004c0:	f04f 0001 	mov.w	r0, #1
200004c4:	fa00 f101 	lsl.w	r1, r0, r1
200004c8:	f843 1022 	str.w	r1, [r3, r2, lsl #2]
}
200004cc:	f107 070c 	add.w	r7, r7, #12
200004d0:	46bd      	mov	sp, r7
200004d2:	bc80      	pop	{r7}
200004d4:	4770      	bx	lr
200004d6:	bf00      	nop

200004d8 <NVIC_DisableIRQ>:
 * 
 * Disable a device specific interupt in the NVIC interrupt controller.
 * The interrupt number cannot be a negative value.
 */
static __INLINE void NVIC_DisableIRQ(IRQn_Type IRQn)
{
200004d8:	b480      	push	{r7}
200004da:	b083      	sub	sp, #12
200004dc:	af00      	add	r7, sp, #0
200004de:	4603      	mov	r3, r0
200004e0:	80fb      	strh	r3, [r7, #6]
  NVIC->ICER[((uint32_t)(IRQn) >> 5)] = (1 << ((uint32_t)(IRQn) & 0x1F)); /* disable interrupt */
200004e2:	f24e 1300 	movw	r3, #57600	; 0xe100
200004e6:	f2ce 0300 	movt	r3, #57344	; 0xe000
200004ea:	f9b7 2006 	ldrsh.w	r2, [r7, #6]
200004ee:	ea4f 1252 	mov.w	r2, r2, lsr #5
200004f2:	88f9      	ldrh	r1, [r7, #6]
200004f4:	f001 011f 	and.w	r1, r1, #31
200004f8:	f04f 0001 	mov.w	r0, #1
200004fc:	fa00 f101 	lsl.w	r1, r0, r1
20000500:	f102 0220 	add.w	r2, r2, #32
20000504:	f843 1022 	str.w	r1, [r3, r2, lsl #2]
}
20000508:	f107 070c 	add.w	r7, r7, #12
2000050c:	46bd      	mov	sp, r7
2000050e:	bc80      	pop	{r7}
20000510:	4770      	bx	lr
20000512:	bf00      	nop

20000514 <NVIC_ClearPendingIRQ>:
 *
 * Clear the pending bit for the specified interrupt. 
 * The interrupt number cannot be a negative value.
 */
static __INLINE void NVIC_ClearPendingIRQ(IRQn_Type IRQn)
{
20000514:	b480      	push	{r7}
20000516:	b083      	sub	sp, #12
20000518:	af00      	add	r7, sp, #0
2000051a:	4603      	mov	r3, r0
2000051c:	80fb      	strh	r3, [r7, #6]
  NVIC->ICPR[((uint32_t)(IRQn) >> 5)] = (1 << ((uint32_t)(IRQn) & 0x1F)); /* Clear pending interrupt */
2000051e:	f24e 1300 	movw	r3, #57600	; 0xe100
20000522:	f2ce 0300 	movt	r3, #57344	; 0xe000
20000526:	f9b7 2006 	ldrsh.w	r2, [r7, #6]
2000052a:	ea4f 1252 	mov.w	r2, r2, lsr #5
2000052e:	88f9      	ldrh	r1, [r7, #6]
20000530:	f001 011f 	and.w	r1, r1, #31
20000534:	f04f 0001 	mov.w	r0, #1
20000538:	fa00 f101 	lsl.w	r1, r0, r1
2000053c:	f102 0260 	add.w	r2, r2, #96	; 0x60
20000540:	f843 1022 	str.w	r1, [r3, r2, lsl #2]
}
20000544:	f107 070c 	add.w	r7, r7, #12
20000548:	46bd      	mov	sp, r7
2000054a:	bc80      	pop	{r7}
2000054c:	4770      	bx	lr
2000054e:	bf00      	nop

20000550 <MSS_TIM1_init>:
    one-shot mode. Allowed values for this parameter are:
        - MSS_TIMER_PERIODIC_MODE
        - MSS_TIMER_ONE_SHOT_MODE
 */
static __INLINE void MSS_TIM1_init( mss_timer_mode_t mode )
{
20000550:	b580      	push	{r7, lr}
20000552:	b082      	sub	sp, #8
20000554:	af00      	add	r7, sp, #0
20000556:	4603      	mov	r3, r0
20000558:	71fb      	strb	r3, [r7, #7]
    NVIC_DisableIRQ( Timer1_IRQn );             /* Disable timer 1 irq in the Cortex-M3 NVIC */  
2000055a:	f04f 0014 	mov.w	r0, #20
2000055e:	f7ff ffbb 	bl	200004d8 <NVIC_DisableIRQ>
    
    SYSREG->SOFT_RST_CR &= ~SYSREG_TIMER_SOFTRESET_MASK; /* Take timer block out of reset */
20000562:	f242 0300 	movw	r3, #8192	; 0x2000
20000566:	f2ce 0304 	movt	r3, #57348	; 0xe004
2000056a:	f242 0200 	movw	r2, #8192	; 0x2000
2000056e:	f2ce 0204 	movt	r2, #57348	; 0xe004
20000572:	6b12      	ldr	r2, [r2, #48]	; 0x30
20000574:	f022 0240 	bic.w	r2, r2, #64	; 0x40
20000578:	631a      	str	r2, [r3, #48]	; 0x30
    
    TIMER->TIM64_MODE = 0U;                     /* switch to 32 bits mode */
2000057a:	f245 0300 	movw	r3, #20480	; 0x5000
2000057e:	f2c4 0300 	movt	r3, #16384	; 0x4000
20000582:	f04f 0200 	mov.w	r2, #0
20000586:	655a      	str	r2, [r3, #84]	; 0x54
    
    TIMER_BITBAND->TIM1ENABLE = 0U;             /* disable timer */
20000588:	f240 0300 	movw	r3, #0
2000058c:	f2c4 230a 	movt	r3, #16906	; 0x420a
20000590:	f04f 0200 	mov.w	r2, #0
20000594:	f8c3 2180 	str.w	r2, [r3, #384]	; 0x180
    TIMER_BITBAND->TIM1INTEN = 0U;              /* disable interrupt */
20000598:	f240 0300 	movw	r3, #0
2000059c:	f2c4 230a 	movt	r3, #16906	; 0x420a
200005a0:	f04f 0200 	mov.w	r2, #0
200005a4:	f8c3 2188 	str.w	r2, [r3, #392]	; 0x188
    TIMER_BITBAND->TIM1MODE = (uint32_t)mode;   /* set mode (continuous/one-shot) */
200005a8:	f240 0300 	movw	r3, #0
200005ac:	f2c4 230a 	movt	r3, #16906	; 0x420a
200005b0:	79fa      	ldrb	r2, [r7, #7]
200005b2:	f8c3 2184 	str.w	r2, [r3, #388]	; 0x184
    
    TIMER->TIM1_RIS = 1U;                       /* clear timer 1 interrupt */
200005b6:	f245 0300 	movw	r3, #20480	; 0x5000
200005ba:	f2c4 0300 	movt	r3, #16384	; 0x4000
200005be:	f04f 0201 	mov.w	r2, #1
200005c2:	611a      	str	r2, [r3, #16]
    NVIC_ClearPendingIRQ( Timer1_IRQn );        /* clear timer 1 interrupt within NVIC */
200005c4:	f04f 0014 	mov.w	r0, #20
200005c8:	f7ff ffa4 	bl	20000514 <NVIC_ClearPendingIRQ>
}
200005cc:	f107 0708 	add.w	r7, r7, #8
200005d0:	46bd      	mov	sp, r7
200005d2:	bd80      	pop	{r7, pc}

200005d4 <MSS_TIM1_start>:
  MSS_TIM1_load_immediate() or MSS_TIM1_load_background() functions. 
  Note: The MSS_TIM1_start() function is also used to resume the down-counter
        if previously stopped using MSS_TIM1_stop() function.
 */
static __INLINE void MSS_TIM1_start( void )
{
200005d4:	b480      	push	{r7}
200005d6:	af00      	add	r7, sp, #0
    TIMER_BITBAND->TIM1ENABLE = 1U;    /* enable timer */
200005d8:	f240 0300 	movw	r3, #0
200005dc:	f2c4 230a 	movt	r3, #16906	; 0x420a
200005e0:	f04f 0201 	mov.w	r2, #1
200005e4:	f8c3 2180 	str.w	r2, [r3, #384]	; 0x180
}
200005e8:	46bd      	mov	sp, r7
200005ea:	bc80      	pop	{r7}
200005ec:	4770      	bx	lr
200005ee:	bf00      	nop

200005f0 <MSS_TIM1_load_immediate>:
  @param load_value
    The load_value parameter specifies the value from which the Timer 1 
    down-counter will start decrementing.
 */
static __INLINE void MSS_TIM1_load_immediate( uint32_t load_value )
{
200005f0:	b480      	push	{r7}
200005f2:	b083      	sub	sp, #12
200005f4:	af00      	add	r7, sp, #0
200005f6:	6078      	str	r0, [r7, #4]
    TIMER->TIM1_LOADVAL = load_value;
200005f8:	f245 0300 	movw	r3, #20480	; 0x5000
200005fc:	f2c4 0300 	movt	r3, #16384	; 0x4000
20000600:	687a      	ldr	r2, [r7, #4]
20000602:	605a      	str	r2, [r3, #4]
}
20000604:	f107 070c 	add.w	r7, r7, #12
20000608:	46bd      	mov	sp, r7
2000060a:	bc80      	pop	{r7}
2000060c:	4770      	bx	lr
2000060e:	bf00      	nop

20000610 <MSS_TIM1_enable_irq>:
  weak linkage, in the SmartFusion CMSIS-PAL. You must provide your own
  implementation of the Timer1_IRQHandler() function, that will override the
  default implementation, to suit your application.
 */
static __INLINE void MSS_TIM1_enable_irq( void )
{
20000610:	b580      	push	{r7, lr}
20000612:	af00      	add	r7, sp, #0
    TIMER_BITBAND->TIM1INTEN = 1U;
20000614:	f240 0300 	movw	r3, #0
20000618:	f2c4 230a 	movt	r3, #16906	; 0x420a
2000061c:	f04f 0201 	mov.w	r2, #1
20000620:	f8c3 2188 	str.w	r2, [r3, #392]	; 0x188
    NVIC_EnableIRQ( Timer1_IRQn );
20000624:	f04f 0014 	mov.w	r0, #20
20000628:	f7ff ff3a 	bl	200004a0 <NVIC_EnableIRQ>
}
2000062c:	bd80      	pop	{r7, pc}
2000062e:	bf00      	nop

20000630 <MSS_TIM1_clear_irq>:
  implementation of the Timer1_IRQHandler() Timer 1 interrupt service routine
  (ISR) in order to prevent the same interrupt event retriggering a call to the
  ISR.
 */
static __INLINE void MSS_TIM1_clear_irq( void )
{
20000630:	b480      	push	{r7}
20000632:	af00      	add	r7, sp, #0
    TIMER->TIM1_RIS = 1U;
20000634:	f245 0300 	movw	r3, #20480	; 0x5000
20000638:	f2c4 0300 	movt	r3, #16384	; 0x4000
2000063c:	f04f 0201 	mov.w	r2, #1
20000640:	611a      	str	r2, [r3, #16]
    /*
      To ensure all the previous instructions are completed, data barrier 
      instruction is used. The “dsb” data barriers instruction completes,
      only after all the previous instruction are completed. 
     */
    __ASM volatile ("dsb");
20000642:	f3bf 8f4f 	dsb	sy
}
20000646:	46bd      	mov	sp, r7
20000648:	bc80      	pop	{r7}
2000064a:	4770      	bx	lr

2000064c <CarControl_init>:
#include "CarController_hw_platform.h"
#include "drivers/mss_timer/mss_timer.h"
#include "hal/hal.h"
#include "utility.h"

void CarControl_init(void) {
2000064c:	b580      	push	{r7, lr}
2000064e:	af00      	add	r7, sp, #0
	setLeftSideForward();
20000650:	f000 f80e 	bl	20000670 <setLeftSideForward>
	setRightSideForward();
20000654:	f000 f824 	bl	200006a0 <setRightSideForward>
	max_speed = 150;
20000658:	f24b 1384 	movw	r3, #45444	; 0xb184
2000065c:	f2c2 0300 	movt	r3, #8192	; 0x2000
20000660:	f04f 0296 	mov.w	r2, #150	; 0x96
20000664:	601a      	str	r2, [r3, #0]
	srand(3654);
20000666:	f640 6046 	movw	r0, #3654	; 0xe46
2000066a:	f001 fc01 	bl	20001e70 <srand>
}
2000066e:	bd80      	pop	{r7, pc}

20000670 <setLeftSideForward>:

void setLeftSideForward(void) {
20000670:	b480      	push	{r7}
20000672:	af00      	add	r7, sp, #0
	*((uint32_t*)HBRIDGECONTROLLER_0) = 0x0;
20000674:	f240 0300 	movw	r3, #0
20000678:	f2c4 0305 	movt	r3, #16389	; 0x4005
2000067c:	f04f 0200 	mov.w	r2, #0
20000680:	601a      	str	r2, [r3, #0]
}
20000682:	46bd      	mov	sp, r7
20000684:	bc80      	pop	{r7}
20000686:	4770      	bx	lr

20000688 <setLeftSideReverse>:

void setLeftSideReverse(void) {
20000688:	b480      	push	{r7}
2000068a:	af00      	add	r7, sp, #0
	*((uint32_t*)HBRIDGECONTROLLER_0) = 0x1;
2000068c:	f240 0300 	movw	r3, #0
20000690:	f2c4 0305 	movt	r3, #16389	; 0x4005
20000694:	f04f 0201 	mov.w	r2, #1
20000698:	601a      	str	r2, [r3, #0]
}
2000069a:	46bd      	mov	sp, r7
2000069c:	bc80      	pop	{r7}
2000069e:	4770      	bx	lr

200006a0 <setRightSideForward>:

void setRightSideForward(void) {
200006a0:	b480      	push	{r7}
200006a2:	af00      	add	r7, sp, #0
	*((uint32_t*)(HBRIDGECONTROLLER_0 + 4)) = 0x0;
200006a4:	f240 0304 	movw	r3, #4
200006a8:	f2c4 0305 	movt	r3, #16389	; 0x4005
200006ac:	f04f 0200 	mov.w	r2, #0
200006b0:	601a      	str	r2, [r3, #0]
}
200006b2:	46bd      	mov	sp, r7
200006b4:	bc80      	pop	{r7}
200006b6:	4770      	bx	lr

200006b8 <setRightSideReverse>:

void setRightSideReverse(void) {
200006b8:	b480      	push	{r7}
200006ba:	af00      	add	r7, sp, #0
	*((uint32_t*)(HBRIDGECONTROLLER_0 + 4)) = 0x1;
200006bc:	f240 0304 	movw	r3, #4
200006c0:	f2c4 0305 	movt	r3, #16389	; 0x4005
200006c4:	f04f 0201 	mov.w	r2, #1
200006c8:	601a      	str	r2, [r3, #0]
}
200006ca:	46bd      	mov	sp, r7
200006cc:	bc80      	pop	{r7}
200006ce:	4770      	bx	lr

200006d0 <setLeftSideSpeed>:

void setLeftSideSpeed(uint32_t speed) {
200006d0:	b480      	push	{r7}
200006d2:	b083      	sub	sp, #12
200006d4:	af00      	add	r7, sp, #0
200006d6:	6078      	str	r0, [r7, #4]
	*((uint32_t*)(HBRIDGECONTROLLER_0 + 8)) = speed;
200006d8:	f240 0308 	movw	r3, #8
200006dc:	f2c4 0305 	movt	r3, #16389	; 0x4005
200006e0:	687a      	ldr	r2, [r7, #4]
200006e2:	601a      	str	r2, [r3, #0]
}
200006e4:	f107 070c 	add.w	r7, r7, #12
200006e8:	46bd      	mov	sp, r7
200006ea:	bc80      	pop	{r7}
200006ec:	4770      	bx	lr
200006ee:	bf00      	nop

200006f0 <setRightSideSpeed>:

void setRightSideSpeed(uint32_t speed) {
200006f0:	b480      	push	{r7}
200006f2:	b083      	sub	sp, #12
200006f4:	af00      	add	r7, sp, #0
200006f6:	6078      	str	r0, [r7, #4]
	*((uint32_t*)(HBRIDGECONTROLLER_0 + 12)) = speed;
200006f8:	f240 030c 	movw	r3, #12
200006fc:	f2c4 0305 	movt	r3, #16389	; 0x4005
20000700:	687a      	ldr	r2, [r7, #4]
20000702:	601a      	str	r2, [r3, #0]
}
20000704:	f107 070c 	add.w	r7, r7, #12
20000708:	46bd      	mov	sp, r7
2000070a:	bc80      	pop	{r7}
2000070c:	4770      	bx	lr
2000070e:	bf00      	nop

20000710 <CarControl_boost>:

void CarControl_boost(void) {
20000710:	b580      	push	{r7, lr}
20000712:	af00      	add	r7, sp, #0
	max_speed = 200;
20000714:	f24b 1384 	movw	r3, #45444	; 0xb184
20000718:	f2c2 0300 	movt	r3, #8192	; 0x2000
2000071c:	f04f 02c8 	mov.w	r2, #200	; 0xc8
20000720:	601a      	str	r2, [r3, #0]
	MSS_TIM1_init(MSS_TIMER_ONE_SHOT_MODE);
20000722:	f04f 0001 	mov.w	r0, #1
20000726:	f7ff ff13 	bl	20000550 <MSS_TIM1_init>
	MSS_TIM1_load_immediate(200000000);
2000072a:	f24c 2000 	movw	r0, #49664	; 0xc200
2000072e:	f6c0 30eb 	movt	r0, #3051	; 0xbeb
20000732:	f7ff ff5d 	bl	200005f0 <MSS_TIM1_load_immediate>
	MSS_TIM1_enable_irq();
20000736:	f7ff ff6b 	bl	20000610 <MSS_TIM1_enable_irq>
	MSS_TIM1_start();
2000073a:	f7ff ff4b 	bl	200005d4 <MSS_TIM1_start>
}
2000073e:	bd80      	pop	{r7, pc}

20000740 <CarControl_spinout>:

void CarControl_spinout(void) {
20000740:	b580      	push	{r7, lr}
20000742:	b082      	sub	sp, #8
20000744:	af00      	add	r7, sp, #0
	psr_t interrupt_status = HAL_disable_interrupts();
20000746:	f000 fb57 	bl	20000df8 <HAL_disable_interrupts>
2000074a:	4603      	mov	r3, r0
2000074c:	603b      	str	r3, [r7, #0]

	int i = 0;
2000074e:	f04f 0300 	mov.w	r3, #0
20000752:	607b      	str	r3, [r7, #4]
	while (i < 4) {
20000754:	e03d      	b.n	200007d2 <CarControl_spinout+0x92>
		if (rand()%2 == 0) setLeftSideForward();
20000756:	f001 fb37 	bl	20001dc8 <rand>
2000075a:	4603      	mov	r3, r0
2000075c:	f003 0301 	and.w	r3, r3, #1
20000760:	2b00      	cmp	r3, #0
20000762:	d102      	bne.n	2000076a <CarControl_spinout+0x2a>
20000764:	f7ff ff84 	bl	20000670 <setLeftSideForward>
20000768:	e001      	b.n	2000076e <CarControl_spinout+0x2e>
		else setLeftSideReverse();
2000076a:	f7ff ff8d 	bl	20000688 <setLeftSideReverse>
		setLeftSideSpeed(rand()%256);
2000076e:	f001 fb2b 	bl	20001dc8 <rand>
20000772:	4602      	mov	r2, r0
20000774:	ea4f 73e2 	mov.w	r3, r2, asr #31
20000778:	ea4f 6313 	mov.w	r3, r3, lsr #24
2000077c:	441a      	add	r2, r3
2000077e:	f002 02ff 	and.w	r2, r2, #255	; 0xff
20000782:	ebc3 0302 	rsb	r3, r3, r2
20000786:	4618      	mov	r0, r3
20000788:	f7ff ffa2 	bl	200006d0 <setLeftSideSpeed>

		if (rand()%2 == 0) setRightSideForward();
2000078c:	f001 fb1c 	bl	20001dc8 <rand>
20000790:	4603      	mov	r3, r0
20000792:	f003 0301 	and.w	r3, r3, #1
20000796:	2b00      	cmp	r3, #0
20000798:	d102      	bne.n	200007a0 <CarControl_spinout+0x60>
2000079a:	f7ff ff81 	bl	200006a0 <setRightSideForward>
2000079e:	e001      	b.n	200007a4 <CarControl_spinout+0x64>
		else setRightSideReverse();
200007a0:	f7ff ff8a 	bl	200006b8 <setRightSideReverse>
		setRightSideSpeed(rand()%256);
200007a4:	f001 fb10 	bl	20001dc8 <rand>
200007a8:	4602      	mov	r2, r0
200007aa:	ea4f 73e2 	mov.w	r3, r2, asr #31
200007ae:	ea4f 6313 	mov.w	r3, r3, lsr #24
200007b2:	441a      	add	r2, r3
200007b4:	f002 02ff 	and.w	r2, r2, #255	; 0xff
200007b8:	ebc3 0302 	rsb	r3, r3, r2
200007bc:	4618      	mov	r0, r3
200007be:	f7ff ff97 	bl	200006f0 <setRightSideSpeed>

		delay(250);
200007c2:	f04f 00fa 	mov.w	r0, #250	; 0xfa
200007c6:	f000 f8db 	bl	20000980 <delay>
		++i;
200007ca:	687b      	ldr	r3, [r7, #4]
200007cc:	f103 0301 	add.w	r3, r3, #1
200007d0:	607b      	str	r3, [r7, #4]

void CarControl_spinout(void) {
	psr_t interrupt_status = HAL_disable_interrupts();

	int i = 0;
	while (i < 4) {
200007d2:	687b      	ldr	r3, [r7, #4]
200007d4:	2b03      	cmp	r3, #3
200007d6:	ddbe      	ble.n	20000756 <CarControl_spinout+0x16>

		delay(250);
		++i;
	}

	setLeftSideForward();
200007d8:	f7ff ff4a 	bl	20000670 <setLeftSideForward>
	setRightSideForward();
200007dc:	f7ff ff60 	bl	200006a0 <setRightSideForward>
	setLeftSideSpeed(0);
200007e0:	f04f 0000 	mov.w	r0, #0
200007e4:	f7ff ff74 	bl	200006d0 <setLeftSideSpeed>
	setRightSideSpeed(0);
200007e8:	f04f 0000 	mov.w	r0, #0
200007ec:	f7ff ff80 	bl	200006f0 <setRightSideSpeed>

	delay(1000);
200007f0:	f44f 707a 	mov.w	r0, #1000	; 0x3e8
200007f4:	f000 f8c4 	bl	20000980 <delay>

	HAL_restore_interrupts(interrupt_status);
200007f8:	6838      	ldr	r0, [r7, #0]
200007fa:	f000 fb01 	bl	20000e00 <HAL_restore_interrupts>
}
200007fe:	f107 0708 	add.w	r7, r7, #8
20000802:	46bd      	mov	sp, r7
20000804:	bd80      	pop	{r7, pc}
20000806:	bf00      	nop

20000808 <Timer1_IRQHandler>:

void Timer1_IRQHandler() {
20000808:	b580      	push	{r7, lr}
2000080a:	af00      	add	r7, sp, #0
	max_speed = 150;
2000080c:	f24b 1384 	movw	r3, #45444	; 0xb184
20000810:	f2c2 0300 	movt	r3, #8192	; 0x2000
20000814:	f04f 0296 	mov.w	r2, #150	; 0x96
20000818:	601a      	str	r2, [r3, #0]
	MSS_TIM1_clear_irq();
2000081a:	f7ff ff09 	bl	20000630 <MSS_TIM1_clear_irq>
}
2000081e:	bd80      	pop	{r7, pc}

20000820 <main>:
#include "drivers/mss_gpio/mss_gpio.h"

#include "CarControl.h"
#include "xbee.h"

int main() {
20000820:	b580      	push	{r7, lr}
20000822:	af00      	add	r7, sp, #0
	XBEE_init();
20000824:	f000 f8ca 	bl	200009bc <XBEE_init>
	CarControl_init();
20000828:	f7ff ff10 	bl	2000064c <CarControl_init>

	while(1);
2000082c:	e7fe      	b.n	2000082c <main+0xc>
2000082e:	bf00      	nop

20000830 <NVIC_DisableIRQ>:
 * 
 * Disable a device specific interupt in the NVIC interrupt controller.
 * The interrupt number cannot be a negative value.
 */
static __INLINE void NVIC_DisableIRQ(IRQn_Type IRQn)
{
20000830:	b480      	push	{r7}
20000832:	b083      	sub	sp, #12
20000834:	af00      	add	r7, sp, #0
20000836:	4603      	mov	r3, r0
20000838:	80fb      	strh	r3, [r7, #6]
  NVIC->ICER[((uint32_t)(IRQn) >> 5)] = (1 << ((uint32_t)(IRQn) & 0x1F)); /* disable interrupt */
2000083a:	f24e 1300 	movw	r3, #57600	; 0xe100
2000083e:	f2ce 0300 	movt	r3, #57344	; 0xe000
20000842:	f9b7 2006 	ldrsh.w	r2, [r7, #6]
20000846:	ea4f 1252 	mov.w	r2, r2, lsr #5
2000084a:	88f9      	ldrh	r1, [r7, #6]
2000084c:	f001 011f 	and.w	r1, r1, #31
20000850:	f04f 0001 	mov.w	r0, #1
20000854:	fa00 f101 	lsl.w	r1, r0, r1
20000858:	f102 0220 	add.w	r2, r2, #32
2000085c:	f843 1022 	str.w	r1, [r3, r2, lsl #2]
}
20000860:	f107 070c 	add.w	r7, r7, #12
20000864:	46bd      	mov	sp, r7
20000866:	bc80      	pop	{r7}
20000868:	4770      	bx	lr
2000086a:	bf00      	nop

2000086c <NVIC_ClearPendingIRQ>:
 *
 * Clear the pending bit for the specified interrupt. 
 * The interrupt number cannot be a negative value.
 */
static __INLINE void NVIC_ClearPendingIRQ(IRQn_Type IRQn)
{
2000086c:	b480      	push	{r7}
2000086e:	b083      	sub	sp, #12
20000870:	af00      	add	r7, sp, #0
20000872:	4603      	mov	r3, r0
20000874:	80fb      	strh	r3, [r7, #6]
  NVIC->ICPR[((uint32_t)(IRQn) >> 5)] = (1 << ((uint32_t)(IRQn) & 0x1F)); /* Clear pending interrupt */
20000876:	f24e 1300 	movw	r3, #57600	; 0xe100
2000087a:	f2ce 0300 	movt	r3, #57344	; 0xe000
2000087e:	f9b7 2006 	ldrsh.w	r2, [r7, #6]
20000882:	ea4f 1252 	mov.w	r2, r2, lsr #5
20000886:	88f9      	ldrh	r1, [r7, #6]
20000888:	f001 011f 	and.w	r1, r1, #31
2000088c:	f04f 0001 	mov.w	r0, #1
20000890:	fa00 f101 	lsl.w	r1, r0, r1
20000894:	f102 0260 	add.w	r2, r2, #96	; 0x60
20000898:	f843 1022 	str.w	r1, [r3, r2, lsl #2]
}
2000089c:	f107 070c 	add.w	r7, r7, #12
200008a0:	46bd      	mov	sp, r7
200008a2:	bc80      	pop	{r7}
200008a4:	4770      	bx	lr
200008a6:	bf00      	nop

200008a8 <MSS_TIM2_init>:
    one-shot mode. Allowed values for this parameter are:
        - MSS_TIMER_PERIODIC_MODE
        - MSS_TIMER_ONE_SHOT_MODE 
 */
static __INLINE void MSS_TIM2_init( mss_timer_mode_t mode )
{
200008a8:	b580      	push	{r7, lr}
200008aa:	b082      	sub	sp, #8
200008ac:	af00      	add	r7, sp, #0
200008ae:	4603      	mov	r3, r0
200008b0:	71fb      	strb	r3, [r7, #7]
    NVIC_DisableIRQ( Timer2_IRQn );             /* Disable timer 2 irq in the Cortex-M3 NVIC */  
200008b2:	f04f 0015 	mov.w	r0, #21
200008b6:	f7ff ffbb 	bl	20000830 <NVIC_DisableIRQ>
    
    SYSREG->SOFT_RST_CR &= ~SYSREG_TIMER_SOFTRESET_MASK; /* Take timer block out of reset */
200008ba:	f242 0300 	movw	r3, #8192	; 0x2000
200008be:	f2ce 0304 	movt	r3, #57348	; 0xe004
200008c2:	f242 0200 	movw	r2, #8192	; 0x2000
200008c6:	f2ce 0204 	movt	r2, #57348	; 0xe004
200008ca:	6b12      	ldr	r2, [r2, #48]	; 0x30
200008cc:	f022 0240 	bic.w	r2, r2, #64	; 0x40
200008d0:	631a      	str	r2, [r3, #48]	; 0x30
    
    TIMER->TIM64_MODE = 0U;                     /* switch to 32 bits mode */
200008d2:	f245 0300 	movw	r3, #20480	; 0x5000
200008d6:	f2c4 0300 	movt	r3, #16384	; 0x4000
200008da:	f04f 0200 	mov.w	r2, #0
200008de:	655a      	str	r2, [r3, #84]	; 0x54
    
    TIMER_BITBAND->TIM2ENABLE = 0U;             /* disable timer */
200008e0:	f240 0300 	movw	r3, #0
200008e4:	f2c4 230a 	movt	r3, #16906	; 0x420a
200008e8:	f04f 0200 	mov.w	r2, #0
200008ec:	f8c3 2480 	str.w	r2, [r3, #1152]	; 0x480
    TIMER_BITBAND->TIM2INTEN = 0U;              /* disable interrupt */
200008f0:	f240 0300 	movw	r3, #0
200008f4:	f2c4 230a 	movt	r3, #16906	; 0x420a
200008f8:	f04f 0200 	mov.w	r2, #0
200008fc:	f8c3 2488 	str.w	r2, [r3, #1160]	; 0x488
    TIMER_BITBAND->TIM2MODE = (uint32_t)mode;   /* set mode (continuous/one-shot) */
20000900:	f240 0300 	movw	r3, #0
20000904:	f2c4 230a 	movt	r3, #16906	; 0x420a
20000908:	79fa      	ldrb	r2, [r7, #7]
2000090a:	f8c3 2484 	str.w	r2, [r3, #1156]	; 0x484
    
    TIMER->TIM2_RIS = 1U;                       /* clear timer 2 interrupt */
2000090e:	f245 0300 	movw	r3, #20480	; 0x5000
20000912:	f2c4 0300 	movt	r3, #16384	; 0x4000
20000916:	f04f 0201 	mov.w	r2, #1
2000091a:	629a      	str	r2, [r3, #40]	; 0x28
    NVIC_ClearPendingIRQ( Timer2_IRQn );        /* clear timer 2 interrupt within NVIC */
2000091c:	f04f 0015 	mov.w	r0, #21
20000920:	f7ff ffa4 	bl	2000086c <NVIC_ClearPendingIRQ>
}
20000924:	f107 0708 	add.w	r7, r7, #8
20000928:	46bd      	mov	sp, r7
2000092a:	bd80      	pop	{r7, pc}

2000092c <MSS_TIM2_start>:
  MSS_TIM2_load_immediate() or MSS_TIM2_load_background() functions. 
  Note: The MSS_TIM2_start() function is also used to resume the down-counter
        if previously stopped using the MSS_TIM2_stop() function.
 */
static __INLINE void MSS_TIM2_start( void )
{
2000092c:	b480      	push	{r7}
2000092e:	af00      	add	r7, sp, #0
    TIMER_BITBAND->TIM2ENABLE = 1U;    /* enable timer */
20000930:	f240 0300 	movw	r3, #0
20000934:	f2c4 230a 	movt	r3, #16906	; 0x420a
20000938:	f04f 0201 	mov.w	r2, #1
2000093c:	f8c3 2480 	str.w	r2, [r3, #1152]	; 0x480
}
20000940:	46bd      	mov	sp, r7
20000942:	bc80      	pop	{r7}
20000944:	4770      	bx	lr
20000946:	bf00      	nop

20000948 <MSS_TIM2_get_current_value>:
/*-------------------------------------------------------------------------*//**
  The MSS_TIM2_get_current_value() returns the current value of the Timer 2
  down-counter.
 */
static __INLINE uint32_t MSS_TIM2_get_current_value( void )
{
20000948:	b480      	push	{r7}
2000094a:	af00      	add	r7, sp, #0
    return TIMER->TIM2_VAL;
2000094c:	f245 0300 	movw	r3, #20480	; 0x5000
20000950:	f2c4 0300 	movt	r3, #16384	; 0x4000
20000954:	699b      	ldr	r3, [r3, #24]
}
20000956:	4618      	mov	r0, r3
20000958:	46bd      	mov	sp, r7
2000095a:	bc80      	pop	{r7}
2000095c:	4770      	bx	lr
2000095e:	bf00      	nop

20000960 <MSS_TIM2_load_immediate>:
  @param load_value
    The load_value parameter specifies the value from which the Timer 2
    down-counter will start decrementing. 
 */
static __INLINE void MSS_TIM2_load_immediate(uint32_t load_value)
{
20000960:	b480      	push	{r7}
20000962:	b083      	sub	sp, #12
20000964:	af00      	add	r7, sp, #0
20000966:	6078      	str	r0, [r7, #4]
    TIMER->TIM2_LOADVAL = load_value;
20000968:	f245 0300 	movw	r3, #20480	; 0x5000
2000096c:	f2c4 0300 	movt	r3, #16384	; 0x4000
20000970:	687a      	ldr	r2, [r7, #4]
20000972:	61da      	str	r2, [r3, #28]
}
20000974:	f107 070c 	add.w	r7, r7, #12
20000978:	46bd      	mov	sp, r7
2000097a:	bc80      	pop	{r7}
2000097c:	4770      	bx	lr
2000097e:	bf00      	nop

20000980 <delay>:
#include <stdlib.h>
#include "utility.h"
#include "drivers/mss_timer/mss_timer.h"

void delay(int ms) {
20000980:	b580      	push	{r7, lr}
20000982:	b082      	sub	sp, #8
20000984:	af00      	add	r7, sp, #0
20000986:	6078      	str	r0, [r7, #4]
	MSS_TIM2_init(MSS_TIMER_ONE_SHOT_MODE);
20000988:	f04f 0001 	mov.w	r0, #1
2000098c:	f7ff ff8c 	bl	200008a8 <MSS_TIM2_init>
	MSS_TIM2_load_immediate(ms * 100000);
20000990:	687a      	ldr	r2, [r7, #4]
20000992:	f248 63a0 	movw	r3, #34464	; 0x86a0
20000996:	f2c0 0301 	movt	r3, #1
2000099a:	fb03 f302 	mul.w	r3, r3, r2
2000099e:	4618      	mov	r0, r3
200009a0:	f7ff ffde 	bl	20000960 <MSS_TIM2_load_immediate>
	MSS_TIM2_start();
200009a4:	f7ff ffc2 	bl	2000092c <MSS_TIM2_start>
	while (MSS_TIM2_get_current_value() > 0);
200009a8:	f7ff ffce 	bl	20000948 <MSS_TIM2_get_current_value>
200009ac:	4603      	mov	r3, r0
200009ae:	2b00      	cmp	r3, #0
200009b0:	d1fa      	bne.n	200009a8 <delay+0x28>
}
200009b2:	f107 0708 	add.w	r7, r7, #8
200009b6:	46bd      	mov	sp, r7
200009b8:	bd80      	pop	{r7, pc}
200009ba:	bf00      	nop

200009bc <XBEE_init>:
#include <stdio.h>
#include <string.h>

int curr_button_state=0;

void XBEE_init(void) {
200009bc:	b580      	push	{r7, lr}
200009be:	af00      	add	r7, sp, #0
	MSS_UART_init(&g_mss_uart1, MSS_UART_115200_BAUD, MSS_UART_DATA_8_BITS | MSS_UART_NO_PARITY | MSS_UART_ONE_STOP_BIT);
200009c0:	f24b 108c 	movw	r0, #45452	; 0xb18c
200009c4:	f2c2 0000 	movt	r0, #8192	; 0x2000
200009c8:	f44f 31e1 	mov.w	r1, #115200	; 0x1c200
200009cc:	f04f 0203 	mov.w	r2, #3
200009d0:	f000 fa54 	bl	20000e7c <MSS_UART_init>
	MSS_UART_set_rx_handler( &g_mss_uart1, uart1_rx_handler, MSS_UART_FIFO_SINGLE_BYTE);
200009d4:	f24b 108c 	movw	r0, #45452	; 0xb18c
200009d8:	f2c2 0000 	movt	r0, #8192	; 0x2000
200009dc:	f640 11f1 	movw	r1, #2545	; 0x9f1
200009e0:	f2c2 0100 	movt	r1, #8192	; 0x2000
200009e4:	f04f 0200 	mov.w	r2, #0
200009e8:	f000 fd3c 	bl	20001464 <MSS_UART_set_rx_handler>
}
200009ec:	bd80      	pop	{r7, pc}
200009ee:	bf00      	nop

200009f0 <uart1_rx_handler>:

void XBEE_send(char* string) {
	MSS_UART_polled_tx_string(&g_mss_uart1, (uint8_t*)string);
}

void uart1_rx_handler( mss_uart_instance_t * this_uart ) {
200009f0:	b580      	push	{r7, lr}
200009f2:	b098      	sub	sp, #96	; 0x60
200009f4:	af00      	add	r7, sp, #0
200009f6:	6078      	str	r0, [r7, #4]
	char rx_buff[1];
	char received_data[50];
	int accel=0;
200009f8:	f04f 0300 	mov.w	r3, #0
200009fc:	60fb      	str	r3, [r7, #12]
	int i = 0;
200009fe:	f04f 0300 	mov.w	r3, #0
20000a02:	64bb      	str	r3, [r7, #72]	; 0x48
	int no_rcv = 0;
20000a04:	f04f 0300 	mov.w	r3, #0
20000a08:	64fb      	str	r3, [r7, #76]	; 0x4c
	int rx_size = MSS_UART_get_rx( this_uart, (uint8_t*)rx_buff, sizeof(rx_buff) );
20000a0a:	f107 0344 	add.w	r3, r7, #68	; 0x44
20000a0e:	6878      	ldr	r0, [r7, #4]
20000a10:	4619      	mov	r1, r3
20000a12:	f04f 0201 	mov.w	r2, #1
20000a16:	f000 fba5 	bl	20001164 <MSS_UART_get_rx>
20000a1a:	4603      	mov	r3, r0
20000a1c:	653b      	str	r3, [r7, #80]	; 0x50

	if (*rx_buff == '\r' || *rx_buff == '\n') rx_size = MSS_UART_get_rx( this_uart, (uint8_t*)rx_buff, sizeof(rx_buff) );
20000a1e:	f897 3044 	ldrb.w	r3, [r7, #68]	; 0x44
20000a22:	2b0d      	cmp	r3, #13
20000a24:	d003      	beq.n	20000a2e <uart1_rx_handler+0x3e>
20000a26:	f897 3044 	ldrb.w	r3, [r7, #68]	; 0x44
20000a2a:	2b0a      	cmp	r3, #10
20000a2c:	d109      	bne.n	20000a42 <uart1_rx_handler+0x52>
20000a2e:	f107 0344 	add.w	r3, r7, #68	; 0x44
20000a32:	6878      	ldr	r0, [r7, #4]
20000a34:	4619      	mov	r1, r3
20000a36:	f04f 0201 	mov.w	r2, #1
20000a3a:	f000 fb93 	bl	20001164 <MSS_UART_get_rx>
20000a3e:	4603      	mov	r3, r0
20000a40:	653b      	str	r3, [r7, #80]	; 0x50
	if (*rx_buff == '\r' || *rx_buff == '\n') rx_size = MSS_UART_get_rx( this_uart, (uint8_t*)rx_buff, sizeof(rx_buff) );
20000a42:	f897 3044 	ldrb.w	r3, [r7, #68]	; 0x44
20000a46:	2b0d      	cmp	r3, #13
20000a48:	d003      	beq.n	20000a52 <uart1_rx_handler+0x62>
20000a4a:	f897 3044 	ldrb.w	r3, [r7, #68]	; 0x44
20000a4e:	2b0a      	cmp	r3, #10
20000a50:	d12c      	bne.n	20000aac <uart1_rx_handler+0xbc>
20000a52:	f107 0344 	add.w	r3, r7, #68	; 0x44
20000a56:	6878      	ldr	r0, [r7, #4]
20000a58:	4619      	mov	r1, r3
20000a5a:	f04f 0201 	mov.w	r2, #1
20000a5e:	f000 fb81 	bl	20001164 <MSS_UART_get_rx>
20000a62:	4603      	mov	r3, r0
20000a64:	653b      	str	r3, [r7, #80]	; 0x50

	while (*rx_buff != '\0' && i < 50 && no_rcv < 500) {
20000a66:	e022      	b.n	20000aae <uart1_rx_handler+0xbe>
		if (rx_size > 0 ) {
20000a68:	6d3b      	ldr	r3, [r7, #80]	; 0x50
20000a6a:	2b00      	cmp	r3, #0
20000a6c:	dd0f      	ble.n	20000a8e <uart1_rx_handler+0x9e>
			received_data[i++] = *rx_buff;
20000a6e:	6cbb      	ldr	r3, [r7, #72]	; 0x48
20000a70:	f897 2044 	ldrb.w	r2, [r7, #68]	; 0x44
20000a74:	f107 0160 	add.w	r1, r7, #96	; 0x60
20000a78:	440b      	add	r3, r1
20000a7a:	f803 2c50 	strb.w	r2, [r3, #-80]
20000a7e:	6cbb      	ldr	r3, [r7, #72]	; 0x48
20000a80:	f103 0301 	add.w	r3, r3, #1
20000a84:	64bb      	str	r3, [r7, #72]	; 0x48
			no_rcv = 0;
20000a86:	f04f 0300 	mov.w	r3, #0
20000a8a:	64fb      	str	r3, [r7, #76]	; 0x4c
20000a8c:	e003      	b.n	20000a96 <uart1_rx_handler+0xa6>
		}
		else no_rcv++;
20000a8e:	6cfb      	ldr	r3, [r7, #76]	; 0x4c
20000a90:	f103 0301 	add.w	r3, r3, #1
20000a94:	64fb      	str	r3, [r7, #76]	; 0x4c
		rx_size = MSS_UART_get_rx( this_uart, (uint8_t*)rx_buff, sizeof(rx_buff) );
20000a96:	f107 0344 	add.w	r3, r7, #68	; 0x44
20000a9a:	6878      	ldr	r0, [r7, #4]
20000a9c:	4619      	mov	r1, r3
20000a9e:	f04f 0201 	mov.w	r2, #1
20000aa2:	f000 fb5f 	bl	20001164 <MSS_UART_get_rx>
20000aa6:	4603      	mov	r3, r0
20000aa8:	653b      	str	r3, [r7, #80]	; 0x50
20000aaa:	e000      	b.n	20000aae <uart1_rx_handler+0xbe>
	int rx_size = MSS_UART_get_rx( this_uart, (uint8_t*)rx_buff, sizeof(rx_buff) );

	if (*rx_buff == '\r' || *rx_buff == '\n') rx_size = MSS_UART_get_rx( this_uart, (uint8_t*)rx_buff, sizeof(rx_buff) );
	if (*rx_buff == '\r' || *rx_buff == '\n') rx_size = MSS_UART_get_rx( this_uart, (uint8_t*)rx_buff, sizeof(rx_buff) );

	while (*rx_buff != '\0' && i < 50 && no_rcv < 500) {
20000aac:	bf00      	nop
20000aae:	f897 3044 	ldrb.w	r3, [r7, #68]	; 0x44
20000ab2:	2b00      	cmp	r3, #0
20000ab4:	d007      	beq.n	20000ac6 <uart1_rx_handler+0xd6>
20000ab6:	6cbb      	ldr	r3, [r7, #72]	; 0x48
20000ab8:	2b31      	cmp	r3, #49	; 0x31
20000aba:	dc04      	bgt.n	20000ac6 <uart1_rx_handler+0xd6>
20000abc:	6cfa      	ldr	r2, [r7, #76]	; 0x4c
20000abe:	f240 13f3 	movw	r3, #499	; 0x1f3
20000ac2:	429a      	cmp	r2, r3
20000ac4:	ddd0      	ble.n	20000a68 <uart1_rx_handler+0x78>
			no_rcv = 0;
		}
		else no_rcv++;
		rx_size = MSS_UART_get_rx( this_uart, (uint8_t*)rx_buff, sizeof(rx_buff) );
	}
	received_data[i] = '\0';
20000ac6:	6cbb      	ldr	r3, [r7, #72]	; 0x48
20000ac8:	f107 0260 	add.w	r2, r7, #96	; 0x60
20000acc:	4413      	add	r3, r2
20000ace:	f04f 0200 	mov.w	r2, #0
20000ad2:	f803 2c50 	strb.w	r2, [r3, #-80]

	// Process the packet string received data, i is the length of the received data

	// Process accelerometer data and translate it to motor output
	if(received_data[0]=='2' && strlen(received_data) == 7 && game_status == 1){
20000ad6:	7c3b      	ldrb	r3, [r7, #16]
20000ad8:	2b32      	cmp	r3, #50	; 0x32
20000ada:	f040 80b6 	bne.w	20000c4a <uart1_rx_handler+0x25a>
20000ade:	f107 0310 	add.w	r3, r7, #16
20000ae2:	4618      	mov	r0, r3
20000ae4:	f001 fa64 	bl	20001fb0 <strlen>
20000ae8:	4603      	mov	r3, r0
20000aea:	2b07      	cmp	r3, #7
20000aec:	f040 80ad 	bne.w	20000c4a <uart1_rx_handler+0x25a>
20000af0:	f24b 1388 	movw	r3, #45448	; 0xb188
20000af4:	f2c2 0300 	movt	r3, #8192	; 0x2000
20000af8:	681b      	ldr	r3, [r3, #0]
20000afa:	2b01      	cmp	r3, #1
20000afc:	f040 80a5 	bne.w	20000c4a <uart1_rx_handler+0x25a>
		int new_button_state;

		//Packet structure  = packet_header("2"),button_state,accel_data
		new_button_state = received_data[2] - '0';
20000b00:	7cbb      	ldrb	r3, [r7, #18]
20000b02:	f1a3 0330 	sub.w	r3, r3, #48	; 0x30
20000b06:	657b      	str	r3, [r7, #84]	; 0x54

		sscanf(received_data+4, "%d", &accel);
20000b08:	f107 0310 	add.w	r3, r7, #16
20000b0c:	f103 0204 	add.w	r2, r3, #4
20000b10:	f107 030c 	add.w	r3, r7, #12
20000b14:	4610      	mov	r0, r2
20000b16:	f24a 71bc 	movw	r1, #42940	; 0xa7bc
20000b1a:	f2c2 0100 	movt	r1, #8192	; 0x2000
20000b1e:	461a      	mov	r2, r3
20000b20:	f001 fa18 	bl	20001f54 <sscanf>

		// Calculate individual side speeds
		int left_speed = max_speed - (ACCEL_CENTER - accel) / 2;
20000b24:	f24b 1384 	movw	r3, #45444	; 0xb184
20000b28:	f2c2 0300 	movt	r3, #8192	; 0x2000
20000b2c:	681a      	ldr	r2, [r3, #0]
20000b2e:	68fb      	ldr	r3, [r7, #12]
20000b30:	f5c3 73a6 	rsb	r3, r3, #332	; 0x14c
20000b34:	f103 0303 	add.w	r3, r3, #3
20000b38:	ea4f 71d3 	mov.w	r1, r3, lsr #31
20000b3c:	440b      	add	r3, r1
20000b3e:	ea4f 0363 	mov.w	r3, r3, asr #1
20000b42:	ebc3 0302 	rsb	r3, r3, r2
20000b46:	65bb      	str	r3, [r7, #88]	; 0x58
		int right_speed = max_speed + (ACCEL_CENTER - accel) / 2;
20000b48:	68fb      	ldr	r3, [r7, #12]
20000b4a:	f5c3 73a6 	rsb	r3, r3, #332	; 0x14c
20000b4e:	f103 0303 	add.w	r3, r3, #3
20000b52:	ea4f 72d3 	mov.w	r2, r3, lsr #31
20000b56:	4413      	add	r3, r2
20000b58:	ea4f 0363 	mov.w	r3, r3, asr #1
20000b5c:	461a      	mov	r2, r3
20000b5e:	f24b 1384 	movw	r3, #45444	; 0xb184
20000b62:	f2c2 0300 	movt	r3, #8192	; 0x2000
20000b66:	681b      	ldr	r3, [r3, #0]
20000b68:	4413      	add	r3, r2
20000b6a:	65fb      	str	r3, [r7, #92]	; 0x5c
		if (left_speed > 255) left_speed = 255;
20000b6c:	6dbb      	ldr	r3, [r7, #88]	; 0x58
20000b6e:	2bff      	cmp	r3, #255	; 0xff
20000b70:	dd03      	ble.n	20000b7a <uart1_rx_handler+0x18a>
20000b72:	f04f 03ff 	mov.w	r3, #255	; 0xff
20000b76:	65bb      	str	r3, [r7, #88]	; 0x58
20000b78:	e005      	b.n	20000b86 <uart1_rx_handler+0x196>
		else if (left_speed < 0) left_speed = 0;
20000b7a:	6dbb      	ldr	r3, [r7, #88]	; 0x58
20000b7c:	2b00      	cmp	r3, #0
20000b7e:	da02      	bge.n	20000b86 <uart1_rx_handler+0x196>
20000b80:	f04f 0300 	mov.w	r3, #0
20000b84:	65bb      	str	r3, [r7, #88]	; 0x58
		if (right_speed > 255) right_speed = 255;
20000b86:	6dfb      	ldr	r3, [r7, #92]	; 0x5c
20000b88:	2bff      	cmp	r3, #255	; 0xff
20000b8a:	dd03      	ble.n	20000b94 <uart1_rx_handler+0x1a4>
20000b8c:	f04f 03ff 	mov.w	r3, #255	; 0xff
20000b90:	65fb      	str	r3, [r7, #92]	; 0x5c
20000b92:	e005      	b.n	20000ba0 <uart1_rx_handler+0x1b0>
		else if (right_speed < 0) right_speed = 0;
20000b94:	6dfb      	ldr	r3, [r7, #92]	; 0x5c
20000b96:	2b00      	cmp	r3, #0
20000b98:	da02      	bge.n	20000ba0 <uart1_rx_handler+0x1b0>
20000b9a:	f04f 0300 	mov.w	r3, #0
20000b9e:	65fb      	str	r3, [r7, #92]	; 0x5c

		if(new_button_state == 1 && curr_button_state != 1){
20000ba0:	6d7b      	ldr	r3, [r7, #84]	; 0x54
20000ba2:	2b01      	cmp	r3, #1
20000ba4:	d113      	bne.n	20000bce <uart1_rx_handler+0x1de>
20000ba6:	f24b 1344 	movw	r3, #45380	; 0xb144
20000baa:	f2c2 0300 	movt	r3, #8192	; 0x2000
20000bae:	681b      	ldr	r3, [r3, #0]
20000bb0:	2b01      	cmp	r3, #1
20000bb2:	d00c      	beq.n	20000bce <uart1_rx_handler+0x1de>
			setLeftSideForward();
20000bb4:	f7ff fd5c 	bl	20000670 <setLeftSideForward>
			setRightSideForward();
20000bb8:	f7ff fd72 	bl	200006a0 <setRightSideForward>
			setLeftSideSpeed(left_speed);
20000bbc:	6dbb      	ldr	r3, [r7, #88]	; 0x58
20000bbe:	4618      	mov	r0, r3
20000bc0:	f7ff fd86 	bl	200006d0 <setLeftSideSpeed>
			setRightSideSpeed(right_speed);
20000bc4:	6dfb      	ldr	r3, [r7, #92]	; 0x5c
20000bc6:	4618      	mov	r0, r3
20000bc8:	f7ff fd92 	bl	200006f0 <setRightSideSpeed>
		if (left_speed > 255) left_speed = 255;
		else if (left_speed < 0) left_speed = 0;
		if (right_speed > 255) right_speed = 255;
		else if (right_speed < 0) right_speed = 0;

		if(new_button_state == 1 && curr_button_state != 1){
20000bcc:	e036      	b.n	20000c3c <uart1_rx_handler+0x24c>
			setLeftSideForward();
			setRightSideForward();
			setLeftSideSpeed(left_speed);
			setRightSideSpeed(right_speed);
		}
		else if(new_button_state == 1){
20000bce:	6d7b      	ldr	r3, [r7, #84]	; 0x54
20000bd0:	2b01      	cmp	r3, #1
20000bd2:	d108      	bne.n	20000be6 <uart1_rx_handler+0x1f6>
			setLeftSideSpeed(left_speed);
20000bd4:	6dbb      	ldr	r3, [r7, #88]	; 0x58
20000bd6:	4618      	mov	r0, r3
20000bd8:	f7ff fd7a 	bl	200006d0 <setLeftSideSpeed>
			setRightSideSpeed(right_speed);
20000bdc:	6dfb      	ldr	r3, [r7, #92]	; 0x5c
20000bde:	4618      	mov	r0, r3
20000be0:	f7ff fd86 	bl	200006f0 <setRightSideSpeed>
20000be4:	e02a      	b.n	20000c3c <uart1_rx_handler+0x24c>
		}
		else if(new_button_state == 2 && curr_button_state != 2) {
20000be6:	6d7b      	ldr	r3, [r7, #84]	; 0x54
20000be8:	2b02      	cmp	r3, #2
20000bea:	d113      	bne.n	20000c14 <uart1_rx_handler+0x224>
20000bec:	f24b 1344 	movw	r3, #45380	; 0xb144
20000bf0:	f2c2 0300 	movt	r3, #8192	; 0x2000
20000bf4:	681b      	ldr	r3, [r3, #0]
20000bf6:	2b02      	cmp	r3, #2
20000bf8:	d00c      	beq.n	20000c14 <uart1_rx_handler+0x224>
			setLeftSideReverse();
20000bfa:	f7ff fd45 	bl	20000688 <setLeftSideReverse>
			setRightSideReverse();
20000bfe:	f7ff fd5b 	bl	200006b8 <setRightSideReverse>
			setLeftSideSpeed(left_speed);
20000c02:	6dbb      	ldr	r3, [r7, #88]	; 0x58
20000c04:	4618      	mov	r0, r3
20000c06:	f7ff fd63 	bl	200006d0 <setLeftSideSpeed>
			setRightSideSpeed(right_speed);
20000c0a:	6dfb      	ldr	r3, [r7, #92]	; 0x5c
20000c0c:	4618      	mov	r0, r3
20000c0e:	f7ff fd6f 	bl	200006f0 <setRightSideSpeed>
		}
		else if(new_button_state == 1){
			setLeftSideSpeed(left_speed);
			setRightSideSpeed(right_speed);
		}
		else if(new_button_state == 2 && curr_button_state != 2) {
20000c12:	e013      	b.n	20000c3c <uart1_rx_handler+0x24c>
			setLeftSideReverse();
			setRightSideReverse();
			setLeftSideSpeed(left_speed);
			setRightSideSpeed(right_speed);
		}
		else if(new_button_state == 2){
20000c14:	6d7b      	ldr	r3, [r7, #84]	; 0x54
20000c16:	2b02      	cmp	r3, #2
20000c18:	d108      	bne.n	20000c2c <uart1_rx_handler+0x23c>
			setLeftSideSpeed(left_speed);
20000c1a:	6dbb      	ldr	r3, [r7, #88]	; 0x58
20000c1c:	4618      	mov	r0, r3
20000c1e:	f7ff fd57 	bl	200006d0 <setLeftSideSpeed>
			setRightSideSpeed(right_speed);
20000c22:	6dfb      	ldr	r3, [r7, #92]	; 0x5c
20000c24:	4618      	mov	r0, r3
20000c26:	f7ff fd63 	bl	200006f0 <setRightSideSpeed>
20000c2a:	e007      	b.n	20000c3c <uart1_rx_handler+0x24c>
		}
		else{
			setLeftSideSpeed(0);
20000c2c:	f04f 0000 	mov.w	r0, #0
20000c30:	f7ff fd4e 	bl	200006d0 <setLeftSideSpeed>
			setRightSideSpeed(0);
20000c34:	f04f 0000 	mov.w	r0, #0
20000c38:	f7ff fd5a 	bl	200006f0 <setRightSideSpeed>
		}
		curr_button_state = new_button_state;
20000c3c:	f24b 1344 	movw	r3, #45380	; 0xb144
20000c40:	f2c2 0300 	movt	r3, #8192	; 0x2000
20000c44:	6d7a      	ldr	r2, [r7, #84]	; 0x54
20000c46:	601a      	str	r2, [r3, #0]
	received_data[i] = '\0';

	// Process the packet string received data, i is the length of the received data

	// Process accelerometer data and translate it to motor output
	if(received_data[0]=='2' && strlen(received_data) == 7 && game_status == 1){
20000c48:	e02b      	b.n	20000ca2 <uart1_rx_handler+0x2b2>
		}
		curr_button_state = new_button_state;
	}

	// Receive the game status packet
	else if (received_data[0] == '0' && strlen(received_data) == 3) {
20000c4a:	7c3b      	ldrb	r3, [r7, #16]
20000c4c:	2b30      	cmp	r3, #48	; 0x30
20000c4e:	d112      	bne.n	20000c76 <uart1_rx_handler+0x286>
20000c50:	f107 0310 	add.w	r3, r7, #16
20000c54:	4618      	mov	r0, r3
20000c56:	f001 f9ab 	bl	20001fb0 <strlen>
20000c5a:	4603      	mov	r3, r0
20000c5c:	2b03      	cmp	r3, #3
20000c5e:	d10a      	bne.n	20000c76 <uart1_rx_handler+0x286>
		game_status = (received_data[2] == '0') ? 0 : 1;
20000c60:	7cbb      	ldrb	r3, [r7, #18]
20000c62:	2b30      	cmp	r3, #48	; 0x30
20000c64:	bf0c      	ite	eq
20000c66:	2200      	moveq	r2, #0
20000c68:	2201      	movne	r2, #1
20000c6a:	f24b 1388 	movw	r3, #45448	; 0xb188
20000c6e:	f2c2 0300 	movt	r3, #8192	; 0x2000
20000c72:	601a      	str	r2, [r3, #0]
		}
		curr_button_state = new_button_state;
	}

	// Receive the game status packet
	else if (received_data[0] == '0' && strlen(received_data) == 3) {
20000c74:	e015      	b.n	20000ca2 <uart1_rx_handler+0x2b2>
		game_status = (received_data[2] == '0') ? 0 : 1;
	}

	// Receive powerups
	else if (received_data[0] == '4' && strlen(received_data) == 3) {
20000c76:	7c3b      	ldrb	r3, [r7, #16]
20000c78:	2b34      	cmp	r3, #52	; 0x34
20000c7a:	d112      	bne.n	20000ca2 <uart1_rx_handler+0x2b2>
20000c7c:	f107 0310 	add.w	r3, r7, #16
20000c80:	4618      	mov	r0, r3
20000c82:	f001 f995 	bl	20001fb0 <strlen>
20000c86:	4603      	mov	r3, r0
20000c88:	2b03      	cmp	r3, #3
20000c8a:	d10a      	bne.n	20000ca2 <uart1_rx_handler+0x2b2>
		if (received_data[2] == '0') CarControl_boost();
20000c8c:	7cbb      	ldrb	r3, [r7, #18]
20000c8e:	2b30      	cmp	r3, #48	; 0x30
20000c90:	d102      	bne.n	20000c98 <uart1_rx_handler+0x2a8>
20000c92:	f7ff fd3d 	bl	20000710 <CarControl_boost>
20000c96:	e004      	b.n	20000ca2 <uart1_rx_handler+0x2b2>
		else if (received_data[2] == '1') CarControl_spinout();
20000c98:	7cbb      	ldrb	r3, [r7, #18]
20000c9a:	2b31      	cmp	r3, #49	; 0x31
20000c9c:	d101      	bne.n	20000ca2 <uart1_rx_handler+0x2b2>
20000c9e:	f7ff fd4f 	bl	20000740 <CarControl_spinout>
	}



}
20000ca2:	f107 0760 	add.w	r7, r7, #96	; 0x60
20000ca6:	46bd      	mov	sp, r7
20000ca8:	bd80      	pop	{r7, pc}
20000caa:	bf00      	nop

20000cac <_close>:

/*==============================================================================
 * Close a file.
 */
int _close(int file)
{
20000cac:	b480      	push	{r7}
20000cae:	b083      	sub	sp, #12
20000cb0:	af00      	add	r7, sp, #0
20000cb2:	6078      	str	r0, [r7, #4]
    return -1;
20000cb4:	f04f 33ff 	mov.w	r3, #4294967295
}
20000cb8:	4618      	mov	r0, r3
20000cba:	f107 070c 	add.w	r7, r7, #12
20000cbe:	46bd      	mov	sp, r7
20000cc0:	bc80      	pop	{r7}
20000cc2:	4770      	bx	lr

20000cc4 <_exit>:
{
	/* Should we force a system reset? */
	while( 1 )
	{
		;
	}
20000cc4:	b480      	push	{r7}
20000cc6:	b083      	sub	sp, #12
20000cc8:	af00      	add	r7, sp, #0
20000cca:	6078      	str	r0, [r7, #4]
20000ccc:	e7fe      	b.n	20000ccc <_exit+0x8>
20000cce:	bf00      	nop

20000cd0 <_lseek>:

/*==============================================================================
 * Set position in a file.
 */
int _lseek(int file, int ptr, int dir)
{
20000cd0:	b480      	push	{r7}
20000cd2:	b085      	sub	sp, #20
20000cd4:	af00      	add	r7, sp, #0
20000cd6:	60f8      	str	r0, [r7, #12]
20000cd8:	60b9      	str	r1, [r7, #8]
20000cda:	607a      	str	r2, [r7, #4]
    return 0;
20000cdc:	f04f 0300 	mov.w	r3, #0
}
20000ce0:	4618      	mov	r0, r3
20000ce2:	f107 0714 	add.w	r7, r7, #20
20000ce6:	46bd      	mov	sp, r7
20000ce8:	bc80      	pop	{r7}
20000cea:	4770      	bx	lr

20000cec <_read>:

/*==============================================================================
 * Read from a file.
 */
int _read(int file, char *ptr, int len)
{
20000cec:	b480      	push	{r7}
20000cee:	b085      	sub	sp, #20
20000cf0:	af00      	add	r7, sp, #0
20000cf2:	60f8      	str	r0, [r7, #12]
20000cf4:	60b9      	str	r1, [r7, #8]
20000cf6:	607a      	str	r2, [r7, #4]
    return 0;
20000cf8:	f04f 0300 	mov.w	r3, #0
}
20000cfc:	4618      	mov	r0, r3
20000cfe:	f107 0714 	add.w	r7, r7, #20
20000d02:	46bd      	mov	sp, r7
20000d04:	bc80      	pop	{r7}
20000d06:	4770      	bx	lr

20000d08 <_write_r>:
 * all files, including stdout—so if you need to generate any output, for
 * example to a serial port for debugging, you should make your minimal write
 * capable of doing this.
 */
int _write_r( void * reent, int file, char * ptr, int len )
{
20000d08:	b580      	push	{r7, lr}
20000d0a:	b084      	sub	sp, #16
20000d0c:	af00      	add	r7, sp, #0
20000d0e:	60f8      	str	r0, [r7, #12]
20000d10:	60b9      	str	r1, [r7, #8]
20000d12:	607a      	str	r2, [r7, #4]
20000d14:	603b      	str	r3, [r7, #0]
#ifdef ACTEL_STDIO_THRU_UART
    /*--------------------------------------------------------------------------
     * Initialize the UART driver if it is the first time this function is
     * called.
     */
    if ( !g_stdio_uart_init_done )
20000d16:	f24b 1348 	movw	r3, #45384	; 0xb148
20000d1a:	f2c2 0300 	movt	r3, #8192	; 0x2000
20000d1e:	681b      	ldr	r3, [r3, #0]
20000d20:	2b00      	cmp	r3, #0
20000d22:	d110      	bne.n	20000d46 <_write_r+0x3e>
    {
        MSS_UART_init( &g_mss_uart0, ACTEL_STDIO_BAUD_RATE, (MSS_UART_DATA_8_BITS | MSS_UART_NO_PARITY));
20000d24:	f24b 10b4 	movw	r0, #45492	; 0xb1b4
20000d28:	f2c2 0000 	movt	r0, #8192	; 0x2000
20000d2c:	f44f 4161 	mov.w	r1, #57600	; 0xe100
20000d30:	f04f 0203 	mov.w	r2, #3
20000d34:	f000 f8a2 	bl	20000e7c <MSS_UART_init>
        g_stdio_uart_init_done = 1;
20000d38:	f24b 1348 	movw	r3, #45384	; 0xb148
20000d3c:	f2c2 0300 	movt	r3, #8192	; 0x2000
20000d40:	f04f 0201 	mov.w	r2, #1
20000d44:	601a      	str	r2, [r3, #0]
    }
    
    /*--------------------------------------------------------------------------
     * Output text to the UART.
     */
    MSS_UART_polled_tx( &g_mss_uart0, (uint8_t *)ptr, len );
20000d46:	683b      	ldr	r3, [r7, #0]
20000d48:	f24b 10b4 	movw	r0, #45492	; 0xb1b4
20000d4c:	f2c2 0000 	movt	r0, #8192	; 0x2000
20000d50:	6879      	ldr	r1, [r7, #4]
20000d52:	461a      	mov	r2, r3
20000d54:	f000 f994 	bl	20001080 <MSS_UART_polled_tx>
    
    return len;
20000d58:	683b      	ldr	r3, [r7, #0]
#else   /* ACTEL_STDIO_THRU_UART */
    return 0;
#endif  /* ACTEL_STDIO_THRU_UART */
}
20000d5a:	4618      	mov	r0, r3
20000d5c:	f107 0710 	add.w	r7, r7, #16
20000d60:	46bd      	mov	sp, r7
20000d62:	bd80      	pop	{r7, pc}

20000d64 <_sbrk>:
 * it is useful to have a working implementation. The following suffices for a
 * standalone system; it exploits the symbol _end automatically defined by the
 * GNU linker. 
 */
caddr_t _sbrk(int incr)
{
20000d64:	b580      	push	{r7, lr}
20000d66:	b084      	sub	sp, #16
20000d68:	af00      	add	r7, sp, #0
20000d6a:	6078      	str	r0, [r7, #4]
    extern char _end;		/* Defined by the linker */
    static char *heap_end;
    char *prev_heap_end;
    char * stack_ptr;
    
    if (heap_end == 0)
20000d6c:	f24b 134c 	movw	r3, #45388	; 0xb14c
20000d70:	f2c2 0300 	movt	r3, #8192	; 0x2000
20000d74:	681b      	ldr	r3, [r3, #0]
20000d76:	2b00      	cmp	r3, #0
20000d78:	d108      	bne.n	20000d8c <_sbrk+0x28>
    {
      heap_end = &_end;
20000d7a:	f24b 134c 	movw	r3, #45388	; 0xb14c
20000d7e:	f2c2 0300 	movt	r3, #8192	; 0x2000
20000d82:	f24b 22e0 	movw	r2, #45792	; 0xb2e0
20000d86:	f2c2 0200 	movt	r2, #8192	; 0x2000
20000d8a:	601a      	str	r2, [r3, #0]
    }
    
    prev_heap_end = heap_end;
20000d8c:	f24b 134c 	movw	r3, #45388	; 0xb14c
20000d90:	f2c2 0300 	movt	r3, #8192	; 0x2000
20000d94:	681b      	ldr	r3, [r3, #0]
20000d96:	60bb      	str	r3, [r7, #8]
    asm volatile ("MRS %0, msp" : "=r" (stack_ptr) );
20000d98:	f3ef 8308 	mrs	r3, MSP
20000d9c:	60fb      	str	r3, [r7, #12]
    if (heap_end + incr > stack_ptr)
20000d9e:	f24b 134c 	movw	r3, #45388	; 0xb14c
20000da2:	f2c2 0300 	movt	r3, #8192	; 0x2000
20000da6:	681a      	ldr	r2, [r3, #0]
20000da8:	687b      	ldr	r3, [r7, #4]
20000daa:	441a      	add	r2, r3
20000dac:	68fb      	ldr	r3, [r7, #12]
20000dae:	429a      	cmp	r2, r3
20000db0:	d90f      	bls.n	20000dd2 <_sbrk+0x6e>
    {
      _write_r ((void *)0, 1, "Heap and stack collision\n", 25);
20000db2:	f04f 0000 	mov.w	r0, #0
20000db6:	f04f 0101 	mov.w	r1, #1
20000dba:	f24a 72c0 	movw	r2, #42944	; 0xa7c0
20000dbe:	f2c2 0200 	movt	r2, #8192	; 0x2000
20000dc2:	f04f 0319 	mov.w	r3, #25
20000dc6:	f7ff ff9f 	bl	20000d08 <_write_r>
      _exit (1);
20000dca:	f04f 0001 	mov.w	r0, #1
20000dce:	f7ff ff79 	bl	20000cc4 <_exit>
    }
  
    heap_end += incr;
20000dd2:	f24b 134c 	movw	r3, #45388	; 0xb14c
20000dd6:	f2c2 0300 	movt	r3, #8192	; 0x2000
20000dda:	681a      	ldr	r2, [r3, #0]
20000ddc:	687b      	ldr	r3, [r7, #4]
20000dde:	441a      	add	r2, r3
20000de0:	f24b 134c 	movw	r3, #45388	; 0xb14c
20000de4:	f2c2 0300 	movt	r3, #8192	; 0x2000
20000de8:	601a      	str	r2, [r3, #0]
    return (caddr_t) prev_heap_end;
20000dea:	68bb      	ldr	r3, [r7, #8]
}
20000dec:	4618      	mov	r0, r3
20000dee:	f107 0710 	add.w	r7, r7, #16
20000df2:	46bd      	mov	sp, r7
20000df4:	bd80      	pop	{r7, pc}
20000df6:	bf00      	nop

20000df8 <HAL_disable_interrupts>:
20000df8:	f3ef 8010 	mrs	r0, PRIMASK
20000dfc:	b672      	cpsid	i
20000dfe:	4770      	bx	lr

20000e00 <HAL_restore_interrupts>:
20000e00:	f380 8810 	msr	PRIMASK, r0
20000e04:	4770      	bx	lr
	...

20000e08 <NVIC_EnableIRQ>:
 *
 * Enable a device specific interupt in the NVIC interrupt controller.
 * The interrupt number cannot be a negative value.
 */
static __INLINE void NVIC_EnableIRQ(IRQn_Type IRQn)
{
20000e08:	b480      	push	{r7}
20000e0a:	b083      	sub	sp, #12
20000e0c:	af00      	add	r7, sp, #0
20000e0e:	4603      	mov	r3, r0
20000e10:	80fb      	strh	r3, [r7, #6]
  NVIC->ISER[((uint32_t)(IRQn) >> 5)] = (1 << ((uint32_t)(IRQn) & 0x1F)); /* enable interrupt */
20000e12:	f24e 1300 	movw	r3, #57600	; 0xe100
20000e16:	f2ce 0300 	movt	r3, #57344	; 0xe000
20000e1a:	f9b7 2006 	ldrsh.w	r2, [r7, #6]
20000e1e:	ea4f 1252 	mov.w	r2, r2, lsr #5
20000e22:	88f9      	ldrh	r1, [r7, #6]
20000e24:	f001 011f 	and.w	r1, r1, #31
20000e28:	f04f 0001 	mov.w	r0, #1
20000e2c:	fa00 f101 	lsl.w	r1, r0, r1
20000e30:	f843 1022 	str.w	r1, [r3, r2, lsl #2]
}
20000e34:	f107 070c 	add.w	r7, r7, #12
20000e38:	46bd      	mov	sp, r7
20000e3a:	bc80      	pop	{r7}
20000e3c:	4770      	bx	lr
20000e3e:	bf00      	nop

20000e40 <NVIC_ClearPendingIRQ>:
 *
 * Clear the pending bit for the specified interrupt. 
 * The interrupt number cannot be a negative value.
 */
static __INLINE void NVIC_ClearPendingIRQ(IRQn_Type IRQn)
{
20000e40:	b480      	push	{r7}
20000e42:	b083      	sub	sp, #12
20000e44:	af00      	add	r7, sp, #0
20000e46:	4603      	mov	r3, r0
20000e48:	80fb      	strh	r3, [r7, #6]
  NVIC->ICPR[((uint32_t)(IRQn) >> 5)] = (1 << ((uint32_t)(IRQn) & 0x1F)); /* Clear pending interrupt */
20000e4a:	f24e 1300 	movw	r3, #57600	; 0xe100
20000e4e:	f2ce 0300 	movt	r3, #57344	; 0xe000
20000e52:	f9b7 2006 	ldrsh.w	r2, [r7, #6]
20000e56:	ea4f 1252 	mov.w	r2, r2, lsr #5
20000e5a:	88f9      	ldrh	r1, [r7, #6]
20000e5c:	f001 011f 	and.w	r1, r1, #31
20000e60:	f04f 0001 	mov.w	r0, #1
20000e64:	fa00 f101 	lsl.w	r1, r0, r1
20000e68:	f102 0260 	add.w	r2, r2, #96	; 0x60
20000e6c:	f843 1022 	str.w	r1, [r3, r2, lsl #2]
}
20000e70:	f107 070c 	add.w	r7, r7, #12
20000e74:	46bd      	mov	sp, r7
20000e76:	bc80      	pop	{r7}
20000e78:	4770      	bx	lr
20000e7a:	bf00      	nop

20000e7c <MSS_UART_init>:
(
    mss_uart_instance_t* this_uart,
    uint32_t baud_rate,
    uint8_t line_config
)
{
20000e7c:	b580      	push	{r7, lr}
20000e7e:	b088      	sub	sp, #32
20000e80:	af00      	add	r7, sp, #0
20000e82:	60f8      	str	r0, [r7, #12]
20000e84:	60b9      	str	r1, [r7, #8]
20000e86:	4613      	mov	r3, r2
20000e88:	71fb      	strb	r3, [r7, #7]
    uint16_t baud_value = 1U;
20000e8a:	f04f 0301 	mov.w	r3, #1
20000e8e:	82fb      	strh	r3, [r7, #22]
    uint32_t pclk_freq = 0U;
20000e90:	f04f 0300 	mov.w	r3, #0
20000e94:	61bb      	str	r3, [r7, #24]
    uint32_t baud_value_l;

    /* The driver expects g_mss_uart0 and g_mss_uart1 to be the only
     * mss_uart_instance_t instances used to identify UART0 and UART1. */
    ASSERT( (this_uart == &g_mss_uart0) || (this_uart == &g_mss_uart1) );
20000e96:	68fa      	ldr	r2, [r7, #12]
20000e98:	f24b 13b4 	movw	r3, #45492	; 0xb1b4
20000e9c:	f2c2 0300 	movt	r3, #8192	; 0x2000
20000ea0:	429a      	cmp	r2, r3
20000ea2:	d007      	beq.n	20000eb4 <MSS_UART_init+0x38>
20000ea4:	68fa      	ldr	r2, [r7, #12]
20000ea6:	f24b 138c 	movw	r3, #45452	; 0xb18c
20000eaa:	f2c2 0300 	movt	r3, #8192	; 0x2000
20000eae:	429a      	cmp	r2, r3
20000eb0:	d000      	beq.n	20000eb4 <MSS_UART_init+0x38>
20000eb2:	be00      	bkpt	0x0000

    /* baud_rate should be greater than 0 */
    ASSERT( 0U < baud_rate );
20000eb4:	68bb      	ldr	r3, [r7, #8]
20000eb6:	2b00      	cmp	r3, #0
20000eb8:	d100      	bne.n	20000ebc <MSS_UART_init+0x40>
20000eba:	be00      	bkpt	0x0000

    /* Force the value of the CMSIS global variables holding the various system
     * clock frequencies to be updated. */
    SystemCoreClockUpdate();
20000ebc:	f000 fb58 	bl	20001570 <SystemCoreClockUpdate>

    if ( this_uart == &g_mss_uart0 )
20000ec0:	68fa      	ldr	r2, [r7, #12]
20000ec2:	f24b 13b4 	movw	r3, #45492	; 0xb1b4
20000ec6:	f2c2 0300 	movt	r3, #8192	; 0x2000
20000eca:	429a      	cmp	r2, r3
20000ecc:	d12e      	bne.n	20000f2c <MSS_UART_init+0xb0>
    {
        this_uart->hw_reg = UART0;
20000ece:	68fb      	ldr	r3, [r7, #12]
20000ed0:	f04f 4280 	mov.w	r2, #1073741824	; 0x40000000
20000ed4:	601a      	str	r2, [r3, #0]
        this_uart->hw_reg_bit = UART0_BITBAND;
20000ed6:	68fb      	ldr	r3, [r7, #12]
20000ed8:	f04f 4284 	mov.w	r2, #1107296256	; 0x42000000
20000edc:	605a      	str	r2, [r3, #4]
        this_uart->irqn = UART0_IRQn;
20000ede:	68fb      	ldr	r3, [r7, #12]
20000ee0:	f04f 020a 	mov.w	r2, #10
20000ee4:	811a      	strh	r2, [r3, #8]

        pclk_freq = g_FrequencyPCLK0;
20000ee6:	f64a 33ec 	movw	r3, #44012	; 0xabec
20000eea:	f2c2 0300 	movt	r3, #8192	; 0x2000
20000eee:	681b      	ldr	r3, [r3, #0]
20000ef0:	61bb      	str	r3, [r7, #24]

        /* reset UART0 */
        SYSREG->SOFT_RST_CR |= SYSREG_UART0_SOFTRESET_MASK;
20000ef2:	f242 0300 	movw	r3, #8192	; 0x2000
20000ef6:	f2ce 0304 	movt	r3, #57348	; 0xe004
20000efa:	f242 0200 	movw	r2, #8192	; 0x2000
20000efe:	f2ce 0204 	movt	r2, #57348	; 0xe004
20000f02:	6b12      	ldr	r2, [r2, #48]	; 0x30
20000f04:	f042 0280 	orr.w	r2, r2, #128	; 0x80
20000f08:	631a      	str	r2, [r3, #48]	; 0x30
        /* Clear any previously pended UART0 interrupt */
        NVIC_ClearPendingIRQ( UART0_IRQn );
20000f0a:	f04f 000a 	mov.w	r0, #10
20000f0e:	f7ff ff97 	bl	20000e40 <NVIC_ClearPendingIRQ>
        /* Take UART0 out of reset. */
        SYSREG->SOFT_RST_CR &= ~SYSREG_UART0_SOFTRESET_MASK;
20000f12:	f242 0300 	movw	r3, #8192	; 0x2000
20000f16:	f2ce 0304 	movt	r3, #57348	; 0xe004
20000f1a:	f242 0200 	movw	r2, #8192	; 0x2000
20000f1e:	f2ce 0204 	movt	r2, #57348	; 0xe004
20000f22:	6b12      	ldr	r2, [r2, #48]	; 0x30
20000f24:	f022 0280 	bic.w	r2, r2, #128	; 0x80
20000f28:	631a      	str	r2, [r3, #48]	; 0x30
20000f2a:	e031      	b.n	20000f90 <MSS_UART_init+0x114>
    }
    else
    {
        this_uart->hw_reg = UART1;
20000f2c:	68fa      	ldr	r2, [r7, #12]
20000f2e:	f240 0300 	movw	r3, #0
20000f32:	f2c4 0301 	movt	r3, #16385	; 0x4001
20000f36:	6013      	str	r3, [r2, #0]
        this_uart->hw_reg_bit = UART1_BITBAND;
20000f38:	68fa      	ldr	r2, [r7, #12]
20000f3a:	f240 0300 	movw	r3, #0
20000f3e:	f2c4 2320 	movt	r3, #16928	; 0x4220
20000f42:	6053      	str	r3, [r2, #4]
        this_uart->irqn = UART1_IRQn;
20000f44:	68fb      	ldr	r3, [r7, #12]
20000f46:	f04f 020b 	mov.w	r2, #11
20000f4a:	811a      	strh	r2, [r3, #8]

        pclk_freq = g_FrequencyPCLK1;
20000f4c:	f64a 33f0 	movw	r3, #44016	; 0xabf0
20000f50:	f2c2 0300 	movt	r3, #8192	; 0x2000
20000f54:	681b      	ldr	r3, [r3, #0]
20000f56:	61bb      	str	r3, [r7, #24]

        /* Reset UART1 */
        SYSREG->SOFT_RST_CR |= SYSREG_UART1_SOFTRESET_MASK;
20000f58:	f242 0300 	movw	r3, #8192	; 0x2000
20000f5c:	f2ce 0304 	movt	r3, #57348	; 0xe004
20000f60:	f242 0200 	movw	r2, #8192	; 0x2000
20000f64:	f2ce 0204 	movt	r2, #57348	; 0xe004
20000f68:	6b12      	ldr	r2, [r2, #48]	; 0x30
20000f6a:	f442 7280 	orr.w	r2, r2, #256	; 0x100
20000f6e:	631a      	str	r2, [r3, #48]	; 0x30
        /* Clear any previously pended UART1 interrupt */
        NVIC_ClearPendingIRQ( UART1_IRQn );
20000f70:	f04f 000b 	mov.w	r0, #11
20000f74:	f7ff ff64 	bl	20000e40 <NVIC_ClearPendingIRQ>
        /* Take UART1 out of reset. */
        SYSREG->SOFT_RST_CR &= ~SYSREG_UART1_SOFTRESET_MASK;
20000f78:	f242 0300 	movw	r3, #8192	; 0x2000
20000f7c:	f2ce 0304 	movt	r3, #57348	; 0xe004
20000f80:	f242 0200 	movw	r2, #8192	; 0x2000
20000f84:	f2ce 0204 	movt	r2, #57348	; 0xe004
20000f88:	6b12      	ldr	r2, [r2, #48]	; 0x30
20000f8a:	f422 7280 	bic.w	r2, r2, #256	; 0x100
20000f8e:	631a      	str	r2, [r3, #48]	; 0x30
    }

    /* disable interrupts */
    this_uart->hw_reg->IER = 0U;
20000f90:	68fb      	ldr	r3, [r7, #12]
20000f92:	681b      	ldr	r3, [r3, #0]
20000f94:	f04f 0200 	mov.w	r2, #0
20000f98:	711a      	strb	r2, [r3, #4]
     * The baud value is computed using the following equation:
     *      baud_value_l = PCLK_Frequency / (baud_rate * 16)
     * The baud value is rounded up or down depending on what would be the remainder
     * of the divide by 16 operation.
     */
    if( 0U < baud_rate )
20000f9a:	68bb      	ldr	r3, [r7, #8]
20000f9c:	2b00      	cmp	r3, #0
20000f9e:	d021      	beq.n	20000fe4 <MSS_UART_init+0x168>
    {
        baud_value_l = (uint32_t)(pclk_freq / baud_rate);
20000fa0:	69ba      	ldr	r2, [r7, #24]
20000fa2:	68bb      	ldr	r3, [r7, #8]
20000fa4:	fbb2 f3f3 	udiv	r3, r2, r3
20000fa8:	61fb      	str	r3, [r7, #28]
        if( baud_value_l & 0x00000008U )
20000faa:	69fb      	ldr	r3, [r7, #28]
20000fac:	f003 0308 	and.w	r3, r3, #8
20000fb0:	2b00      	cmp	r3, #0
20000fb2:	d006      	beq.n	20000fc2 <MSS_UART_init+0x146>
        {
            /* remainder above 0.5 */
            baud_value_l = (baud_value_l >> 4U) + 1U;        
20000fb4:	69fb      	ldr	r3, [r7, #28]
20000fb6:	ea4f 1313 	mov.w	r3, r3, lsr #4
20000fba:	f103 0301 	add.w	r3, r3, #1
20000fbe:	61fb      	str	r3, [r7, #28]
20000fc0:	e003      	b.n	20000fca <MSS_UART_init+0x14e>
        }
        else
        {
            /* remainder below 0.5 */
            baud_value_l = (baud_value_l >> 4U);
20000fc2:	69fb      	ldr	r3, [r7, #28]
20000fc4:	ea4f 1313 	mov.w	r3, r3, lsr #4
20000fc8:	61fb      	str	r3, [r7, #28]
        }
    
        /* Check if the baud rate is supported by the PCLK */
        ASSERT( baud_value_l <= UINT16_MAX);
20000fca:	69fa      	ldr	r2, [r7, #28]
20000fcc:	f64f 73ff 	movw	r3, #65535	; 0xffff
20000fd0:	429a      	cmp	r2, r3
20000fd2:	d900      	bls.n	20000fd6 <MSS_UART_init+0x15a>
20000fd4:	be00      	bkpt	0x0000
        if( baud_value_l <= (uint32_t)UINT16_MAX)
20000fd6:	69fa      	ldr	r2, [r7, #28]
20000fd8:	f64f 73ff 	movw	r3, #65535	; 0xffff
20000fdc:	429a      	cmp	r2, r3
20000fde:	d801      	bhi.n	20000fe4 <MSS_UART_init+0x168>
        {
            baud_value = (uint16_t)baud_value_l;
20000fe0:	69fb      	ldr	r3, [r7, #28]
20000fe2:	82fb      	strh	r3, [r7, #22]
        }
    }
    
    /* set divisor latch */
    this_uart->hw_reg_bit->LCR_DLAB = (uint32_t)1;
20000fe4:	68fb      	ldr	r3, [r7, #12]
20000fe6:	685b      	ldr	r3, [r3, #4]
20000fe8:	f04f 0201 	mov.w	r2, #1
20000fec:	f8c3 219c 	str.w	r2, [r3, #412]	; 0x19c

    /* msb of baud value */
    this_uart->hw_reg->DMR = (uint8_t)(baud_value >> 8);
20000ff0:	68fb      	ldr	r3, [r7, #12]
20000ff2:	681b      	ldr	r3, [r3, #0]
20000ff4:	8afa      	ldrh	r2, [r7, #22]
20000ff6:	ea4f 2212 	mov.w	r2, r2, lsr #8
20000ffa:	b292      	uxth	r2, r2
20000ffc:	b2d2      	uxtb	r2, r2
20000ffe:	711a      	strb	r2, [r3, #4]
    /* lsb of baud value */
    this_uart->hw_reg->DLR = (uint8_t)baud_value;
20001000:	68fb      	ldr	r3, [r7, #12]
20001002:	681b      	ldr	r3, [r3, #0]
20001004:	8afa      	ldrh	r2, [r7, #22]
20001006:	b2d2      	uxtb	r2, r2
20001008:	701a      	strb	r2, [r3, #0]

    /* reset divisor latch */
    this_uart->hw_reg_bit->LCR_DLAB = (uint32_t)0;
2000100a:	68fb      	ldr	r3, [r7, #12]
2000100c:	685b      	ldr	r3, [r3, #4]
2000100e:	f04f 0200 	mov.w	r2, #0
20001012:	f8c3 219c 	str.w	r2, [r3, #412]	; 0x19c

    /* set the line control register (bit length, stop bits, parity) */
    this_uart->hw_reg->LCR = line_config;
20001016:	68fb      	ldr	r3, [r7, #12]
20001018:	681b      	ldr	r3, [r3, #0]
2000101a:	79fa      	ldrb	r2, [r7, #7]
2000101c:	731a      	strb	r2, [r3, #12]

    /* FIFO configuration */
    /* RX FIFO length = 1 byte, clear receiver FIFO, 
       clear transmitter FIFO, enable RXRDYN and TXRDYN pins. */
    this_uart->hw_reg->FCR = (uint8_t)MSS_UART_FIFO_SINGLE_BYTE | 
2000101e:	68fb      	ldr	r3, [r7, #12]
20001020:	681b      	ldr	r3, [r3, #0]
20001022:	f04f 020e 	mov.w	r2, #14
20001026:	721a      	strb	r2, [r3, #8]
                              FCR_CLEAR_RX_FIFO_MASK | FCR_CLEAR_TX_FIFO_MASK | 
                              FCR_ENABLE_TXRDY_RXRDY_MASK;
    /* disable loopback */
    this_uart->hw_reg_bit->MCR_LOOP = (uint32_t)0;
20001028:	68fb      	ldr	r3, [r7, #12]
2000102a:	685b      	ldr	r3, [r3, #4]
2000102c:	f04f 0200 	mov.w	r2, #0
20001030:	f8c3 2210 	str.w	r2, [r3, #528]	; 0x210

    /* Instance setup */
    this_uart->tx_buff_size = TX_COMPLETE;
20001034:	68fb      	ldr	r3, [r7, #12]
20001036:	f04f 0200 	mov.w	r2, #0
2000103a:	611a      	str	r2, [r3, #16]
    this_uart->tx_buffer = (const uint8_t *)0;
2000103c:	68fb      	ldr	r3, [r7, #12]
2000103e:	f04f 0200 	mov.w	r2, #0
20001042:	60da      	str	r2, [r3, #12]
    this_uart->tx_idx = 0U;
20001044:	68fb      	ldr	r3, [r7, #12]
20001046:	f04f 0200 	mov.w	r2, #0
2000104a:	615a      	str	r2, [r3, #20]

    /* Default handlers for MSS UART interrupts */
    this_uart->rx_handler       = NULL_HANDLER;
2000104c:	68fb      	ldr	r3, [r7, #12]
2000104e:	f04f 0200 	mov.w	r2, #0
20001052:	61da      	str	r2, [r3, #28]
    this_uart->tx_handler       = default_tx_handler;
20001054:	68fa      	ldr	r2, [r7, #12]
20001056:	f241 335d 	movw	r3, #4957	; 0x135d
2000105a:	f2c2 0300 	movt	r3, #8192	; 0x2000
2000105e:	6213      	str	r3, [r2, #32]
    this_uart->linests_handler  = NULL_HANDLER;
20001060:	68fb      	ldr	r3, [r7, #12]
20001062:	f04f 0200 	mov.w	r2, #0
20001066:	619a      	str	r2, [r3, #24]
    this_uart->modemsts_handler = NULL_HANDLER;
20001068:	68fb      	ldr	r3, [r7, #12]
2000106a:	f04f 0200 	mov.w	r2, #0
2000106e:	625a      	str	r2, [r3, #36]	; 0x24

    /* Initialize the sticky status */
    this_uart->status = 0U;
20001070:	68fb      	ldr	r3, [r7, #12]
20001072:	f04f 0200 	mov.w	r2, #0
20001076:	729a      	strb	r2, [r3, #10]
}
20001078:	f107 0720 	add.w	r7, r7, #32
2000107c:	46bd      	mov	sp, r7
2000107e:	bd80      	pop	{r7, pc}

20001080 <MSS_UART_polled_tx>:
(
    mss_uart_instance_t * this_uart,
    const uint8_t * pbuff,
    uint32_t tx_size
)
{
20001080:	b480      	push	{r7}
20001082:	b089      	sub	sp, #36	; 0x24
20001084:	af00      	add	r7, sp, #0
20001086:	60f8      	str	r0, [r7, #12]
20001088:	60b9      	str	r1, [r7, #8]
2000108a:	607a      	str	r2, [r7, #4]
    uint32_t char_idx = 0U;
2000108c:	f04f 0300 	mov.w	r3, #0
20001090:	613b      	str	r3, [r7, #16]
    uint32_t size_sent;
    uint8_t status;

    ASSERT( (this_uart == &g_mss_uart0) || (this_uart == &g_mss_uart1) );
20001092:	68fa      	ldr	r2, [r7, #12]
20001094:	f24b 13b4 	movw	r3, #45492	; 0xb1b4
20001098:	f2c2 0300 	movt	r3, #8192	; 0x2000
2000109c:	429a      	cmp	r2, r3
2000109e:	d007      	beq.n	200010b0 <MSS_UART_polled_tx+0x30>
200010a0:	68fa      	ldr	r2, [r7, #12]
200010a2:	f24b 138c 	movw	r3, #45452	; 0xb18c
200010a6:	f2c2 0300 	movt	r3, #8192	; 0x2000
200010aa:	429a      	cmp	r2, r3
200010ac:	d000      	beq.n	200010b0 <MSS_UART_polled_tx+0x30>
200010ae:	be00      	bkpt	0x0000
    ASSERT( pbuff != ( (uint8_t *)0 ) );
200010b0:	68bb      	ldr	r3, [r7, #8]
200010b2:	2b00      	cmp	r3, #0
200010b4:	d100      	bne.n	200010b8 <MSS_UART_polled_tx+0x38>
200010b6:	be00      	bkpt	0x0000
    ASSERT( tx_size > 0U );
200010b8:	687b      	ldr	r3, [r7, #4]
200010ba:	2b00      	cmp	r3, #0
200010bc:	d100      	bne.n	200010c0 <MSS_UART_polled_tx+0x40>
200010be:	be00      	bkpt	0x0000

    if( ( (this_uart == &g_mss_uart0) || (this_uart == &g_mss_uart1) ) &&
200010c0:	68fa      	ldr	r2, [r7, #12]
200010c2:	f24b 13b4 	movw	r3, #45492	; 0xb1b4
200010c6:	f2c2 0300 	movt	r3, #8192	; 0x2000
200010ca:	429a      	cmp	r2, r3
200010cc:	d006      	beq.n	200010dc <MSS_UART_polled_tx+0x5c>
200010ce:	68fa      	ldr	r2, [r7, #12]
200010d0:	f24b 138c 	movw	r3, #45452	; 0xb18c
200010d4:	f2c2 0300 	movt	r3, #8192	; 0x2000
200010d8:	429a      	cmp	r2, r3
200010da:	d13d      	bne.n	20001158 <MSS_UART_polled_tx+0xd8>
200010dc:	68bb      	ldr	r3, [r7, #8]
200010de:	2b00      	cmp	r3, #0
200010e0:	d03a      	beq.n	20001158 <MSS_UART_polled_tx+0xd8>
200010e2:	687b      	ldr	r3, [r7, #4]
200010e4:	2b00      	cmp	r3, #0
200010e6:	d037      	beq.n	20001158 <MSS_UART_polled_tx+0xd8>
         /* Remain in this loop until the entire input buffer
          * has been transferred to the UART.
          */
        do {
            /* Read the Line Status Register and update the sticky record */
            status = this_uart->hw_reg->LSR;
200010e8:	68fb      	ldr	r3, [r7, #12]
200010ea:	681b      	ldr	r3, [r3, #0]
200010ec:	7d1b      	ldrb	r3, [r3, #20]
200010ee:	76fb      	strb	r3, [r7, #27]
            this_uart->status |= status;
200010f0:	68fb      	ldr	r3, [r7, #12]
200010f2:	7a9a      	ldrb	r2, [r3, #10]
200010f4:	7efb      	ldrb	r3, [r7, #27]
200010f6:	ea42 0303 	orr.w	r3, r2, r3
200010fa:	b2da      	uxtb	r2, r3
200010fc:	68fb      	ldr	r3, [r7, #12]
200010fe:	729a      	strb	r2, [r3, #10]

            /* Check if TX FIFO is empty. */
            if( status & MSS_UART_THRE )
20001100:	7efb      	ldrb	r3, [r7, #27]
20001102:	f003 0320 	and.w	r3, r3, #32
20001106:	2b00      	cmp	r3, #0
20001108:	d023      	beq.n	20001152 <MSS_UART_polled_tx+0xd2>
            {
                uint32_t fill_size = TX_FIFO_SIZE;
2000110a:	f04f 0310 	mov.w	r3, #16
2000110e:	61fb      	str	r3, [r7, #28]

                /* Calculate the number of bytes to transmit. */
                if ( tx_size < TX_FIFO_SIZE )
20001110:	687b      	ldr	r3, [r7, #4]
20001112:	2b0f      	cmp	r3, #15
20001114:	d801      	bhi.n	2000111a <MSS_UART_polled_tx+0x9a>
                {
                    fill_size = tx_size;
20001116:	687b      	ldr	r3, [r7, #4]
20001118:	61fb      	str	r3, [r7, #28]
                }

                /* Fill the TX FIFO with the calculated the number of bytes. */
                for ( size_sent = 0U; size_sent < fill_size; ++size_sent )
2000111a:	f04f 0300 	mov.w	r3, #0
2000111e:	617b      	str	r3, [r7, #20]
20001120:	e00e      	b.n	20001140 <MSS_UART_polled_tx+0xc0>
                {
                    /* Send next character in the buffer. */
                    this_uart->hw_reg->THR = pbuff[char_idx++];
20001122:	68fb      	ldr	r3, [r7, #12]
20001124:	681b      	ldr	r3, [r3, #0]
20001126:	68b9      	ldr	r1, [r7, #8]
20001128:	693a      	ldr	r2, [r7, #16]
2000112a:	440a      	add	r2, r1
2000112c:	7812      	ldrb	r2, [r2, #0]
2000112e:	701a      	strb	r2, [r3, #0]
20001130:	693b      	ldr	r3, [r7, #16]
20001132:	f103 0301 	add.w	r3, r3, #1
20001136:	613b      	str	r3, [r7, #16]
                {
                    fill_size = tx_size;
                }

                /* Fill the TX FIFO with the calculated the number of bytes. */
                for ( size_sent = 0U; size_sent < fill_size; ++size_sent )
20001138:	697b      	ldr	r3, [r7, #20]
2000113a:	f103 0301 	add.w	r3, r3, #1
2000113e:	617b      	str	r3, [r7, #20]
20001140:	697a      	ldr	r2, [r7, #20]
20001142:	69fb      	ldr	r3, [r7, #28]
20001144:	429a      	cmp	r2, r3
20001146:	d3ec      	bcc.n	20001122 <MSS_UART_polled_tx+0xa2>
                    /* Send next character in the buffer. */
                    this_uart->hw_reg->THR = pbuff[char_idx++];
                }

                /* Calculate the number of untransmitted bytes remaining. */
                tx_size -= size_sent;
20001148:	687a      	ldr	r2, [r7, #4]
2000114a:	697b      	ldr	r3, [r7, #20]
2000114c:	ebc3 0302 	rsb	r3, r3, r2
20001150:	607b      	str	r3, [r7, #4]
            }
        }while( tx_size );
20001152:	687b      	ldr	r3, [r7, #4]
20001154:	2b00      	cmp	r3, #0
20001156:	d1c7      	bne.n	200010e8 <MSS_UART_polled_tx+0x68>
    }
}
20001158:	f107 0724 	add.w	r7, r7, #36	; 0x24
2000115c:	46bd      	mov	sp, r7
2000115e:	bc80      	pop	{r7}
20001160:	4770      	bx	lr
20001162:	bf00      	nop

20001164 <MSS_UART_get_rx>:
(
    mss_uart_instance_t * this_uart,
    uint8_t * rx_buff,
    size_t buff_size
)
{
20001164:	b480      	push	{r7}
20001166:	b087      	sub	sp, #28
20001168:	af00      	add	r7, sp, #0
2000116a:	60f8      	str	r0, [r7, #12]
2000116c:	60b9      	str	r1, [r7, #8]
2000116e:	607a      	str	r2, [r7, #4]
    size_t rx_size = 0U;
20001170:	f04f 0300 	mov.w	r3, #0
20001174:	613b      	str	r3, [r7, #16]
    uint8_t status = 0U;
20001176:	f04f 0300 	mov.w	r3, #0
2000117a:	75fb      	strb	r3, [r7, #23]

    ASSERT( (this_uart == &g_mss_uart0) || (this_uart == &g_mss_uart1) );
2000117c:	68fa      	ldr	r2, [r7, #12]
2000117e:	f24b 13b4 	movw	r3, #45492	; 0xb1b4
20001182:	f2c2 0300 	movt	r3, #8192	; 0x2000
20001186:	429a      	cmp	r2, r3
20001188:	d007      	beq.n	2000119a <MSS_UART_get_rx+0x36>
2000118a:	68fa      	ldr	r2, [r7, #12]
2000118c:	f24b 138c 	movw	r3, #45452	; 0xb18c
20001190:	f2c2 0300 	movt	r3, #8192	; 0x2000
20001194:	429a      	cmp	r2, r3
20001196:	d000      	beq.n	2000119a <MSS_UART_get_rx+0x36>
20001198:	be00      	bkpt	0x0000
    ASSERT( rx_buff != ((uint8_t *)0) );
2000119a:	68bb      	ldr	r3, [r7, #8]
2000119c:	2b00      	cmp	r3, #0
2000119e:	d100      	bne.n	200011a2 <MSS_UART_get_rx+0x3e>
200011a0:	be00      	bkpt	0x0000
    ASSERT( buff_size > 0U );
200011a2:	687b      	ldr	r3, [r7, #4]
200011a4:	2b00      	cmp	r3, #0
200011a6:	d100      	bne.n	200011aa <MSS_UART_get_rx+0x46>
200011a8:	be00      	bkpt	0x0000

    if( ( (this_uart == &g_mss_uart0) || (this_uart == &g_mss_uart1) ) &&
200011aa:	68fa      	ldr	r2, [r7, #12]
200011ac:	f24b 13b4 	movw	r3, #45492	; 0xb1b4
200011b0:	f2c2 0300 	movt	r3, #8192	; 0x2000
200011b4:	429a      	cmp	r2, r3
200011b6:	d006      	beq.n	200011c6 <MSS_UART_get_rx+0x62>
200011b8:	68fa      	ldr	r2, [r7, #12]
200011ba:	f24b 138c 	movw	r3, #45452	; 0xb18c
200011be:	f2c2 0300 	movt	r3, #8192	; 0x2000
200011c2:	429a      	cmp	r2, r3
200011c4:	d134      	bne.n	20001230 <MSS_UART_get_rx+0xcc>
200011c6:	68bb      	ldr	r3, [r7, #8]
200011c8:	2b00      	cmp	r3, #0
200011ca:	d031      	beq.n	20001230 <MSS_UART_get_rx+0xcc>
200011cc:	687b      	ldr	r3, [r7, #4]
200011ce:	2b00      	cmp	r3, #0
200011d0:	d02e      	beq.n	20001230 <MSS_UART_get_rx+0xcc>
          ( rx_buff != ((uint8_t *)0) ) && ( buff_size > 0U ) )
    {
        status = this_uart->hw_reg->LSR;
200011d2:	68fb      	ldr	r3, [r7, #12]
200011d4:	681b      	ldr	r3, [r3, #0]
200011d6:	7d1b      	ldrb	r3, [r3, #20]
200011d8:	75fb      	strb	r3, [r7, #23]
        this_uart->status |= status;
200011da:	68fb      	ldr	r3, [r7, #12]
200011dc:	7a9a      	ldrb	r2, [r3, #10]
200011de:	7dfb      	ldrb	r3, [r7, #23]
200011e0:	ea42 0303 	orr.w	r3, r2, r3
200011e4:	b2da      	uxtb	r2, r3
200011e6:	68fb      	ldr	r3, [r7, #12]
200011e8:	729a      	strb	r2, [r3, #10]

        while (( (status & MSS_UART_DATA_READY) != 0U) &&
200011ea:	e017      	b.n	2000121c <MSS_UART_get_rx+0xb8>
               ( rx_size < buff_size ) )
        {
            rx_buff[rx_size] = this_uart->hw_reg->RBR;
200011ec:	68ba      	ldr	r2, [r7, #8]
200011ee:	693b      	ldr	r3, [r7, #16]
200011f0:	4413      	add	r3, r2
200011f2:	68fa      	ldr	r2, [r7, #12]
200011f4:	6812      	ldr	r2, [r2, #0]
200011f6:	7812      	ldrb	r2, [r2, #0]
200011f8:	b2d2      	uxtb	r2, r2
200011fa:	701a      	strb	r2, [r3, #0]
            ++rx_size;
200011fc:	693b      	ldr	r3, [r7, #16]
200011fe:	f103 0301 	add.w	r3, r3, #1
20001202:	613b      	str	r3, [r7, #16]
            status = this_uart->hw_reg->LSR;
20001204:	68fb      	ldr	r3, [r7, #12]
20001206:	681b      	ldr	r3, [r3, #0]
20001208:	7d1b      	ldrb	r3, [r3, #20]
2000120a:	75fb      	strb	r3, [r7, #23]
            this_uart->status |= status;
2000120c:	68fb      	ldr	r3, [r7, #12]
2000120e:	7a9a      	ldrb	r2, [r3, #10]
20001210:	7dfb      	ldrb	r3, [r7, #23]
20001212:	ea42 0303 	orr.w	r3, r2, r3
20001216:	b2da      	uxtb	r2, r3
20001218:	68fb      	ldr	r3, [r7, #12]
2000121a:	729a      	strb	r2, [r3, #10]
          ( rx_buff != ((uint8_t *)0) ) && ( buff_size > 0U ) )
    {
        status = this_uart->hw_reg->LSR;
        this_uart->status |= status;

        while (( (status & MSS_UART_DATA_READY) != 0U) &&
2000121c:	7dfb      	ldrb	r3, [r7, #23]
2000121e:	f003 0301 	and.w	r3, r3, #1
20001222:	b2db      	uxtb	r3, r3
20001224:	2b00      	cmp	r3, #0
20001226:	d003      	beq.n	20001230 <MSS_UART_get_rx+0xcc>
20001228:	693a      	ldr	r2, [r7, #16]
2000122a:	687b      	ldr	r3, [r7, #4]
2000122c:	429a      	cmp	r2, r3
2000122e:	d3dd      	bcc.n	200011ec <MSS_UART_get_rx+0x88>
            ++rx_size;
            status = this_uart->hw_reg->LSR;
            this_uart->status |= status;
        }
    }
    return rx_size;
20001230:	693b      	ldr	r3, [r7, #16]
}
20001232:	4618      	mov	r0, r3
20001234:	f107 071c 	add.w	r7, r7, #28
20001238:	46bd      	mov	sp, r7
2000123a:	bc80      	pop	{r7}
2000123c:	4770      	bx	lr
2000123e:	bf00      	nop

20001240 <MSS_UART_isr>:
static void
MSS_UART_isr
(
    mss_uart_instance_t * this_uart
)
{
20001240:	b580      	push	{r7, lr}
20001242:	b084      	sub	sp, #16
20001244:	af00      	add	r7, sp, #0
20001246:	6078      	str	r0, [r7, #4]
    uint8_t iirf;

    ASSERT( (this_uart == &g_mss_uart0) || (this_uart == &g_mss_uart1) );
20001248:	687a      	ldr	r2, [r7, #4]
2000124a:	f24b 13b4 	movw	r3, #45492	; 0xb1b4
2000124e:	f2c2 0300 	movt	r3, #8192	; 0x2000
20001252:	429a      	cmp	r2, r3
20001254:	d007      	beq.n	20001266 <MSS_UART_isr+0x26>
20001256:	687a      	ldr	r2, [r7, #4]
20001258:	f24b 138c 	movw	r3, #45452	; 0xb18c
2000125c:	f2c2 0300 	movt	r3, #8192	; 0x2000
20001260:	429a      	cmp	r2, r3
20001262:	d000      	beq.n	20001266 <MSS_UART_isr+0x26>
20001264:	be00      	bkpt	0x0000

    if ( (this_uart == &g_mss_uart0) || (this_uart == &g_mss_uart1) )
20001266:	687a      	ldr	r2, [r7, #4]
20001268:	f24b 13b4 	movw	r3, #45492	; 0xb1b4
2000126c:	f2c2 0300 	movt	r3, #8192	; 0x2000
20001270:	429a      	cmp	r2, r3
20001272:	d006      	beq.n	20001282 <MSS_UART_isr+0x42>
20001274:	687a      	ldr	r2, [r7, #4]
20001276:	f24b 138c 	movw	r3, #45452	; 0xb18c
2000127a:	f2c2 0300 	movt	r3, #8192	; 0x2000
2000127e:	429a      	cmp	r2, r3
20001280:	d167      	bne.n	20001352 <MSS_UART_isr+0x112>
    {
        iirf = this_uart->hw_reg->IIR & IIRF_MASK;
20001282:	687b      	ldr	r3, [r7, #4]
20001284:	681b      	ldr	r3, [r3, #0]
20001286:	7a1b      	ldrb	r3, [r3, #8]
20001288:	b2db      	uxtb	r3, r3
2000128a:	f003 030f 	and.w	r3, r3, #15
2000128e:	73fb      	strb	r3, [r7, #15]

        switch ( iirf )
20001290:	7bfb      	ldrb	r3, [r7, #15]
20001292:	2b0c      	cmp	r3, #12
20001294:	d854      	bhi.n	20001340 <MSS_UART_isr+0x100>
20001296:	a201      	add	r2, pc, #4	; (adr r2, 2000129c <MSS_UART_isr+0x5c>)
20001298:	f852 f023 	ldr.w	pc, [r2, r3, lsl #2]
2000129c:	200012d1 	.word	0x200012d1
200012a0:	20001341 	.word	0x20001341
200012a4:	200012ed 	.word	0x200012ed
200012a8:	20001341 	.word	0x20001341
200012ac:	20001309 	.word	0x20001309
200012b0:	20001341 	.word	0x20001341
200012b4:	20001325 	.word	0x20001325
200012b8:	20001341 	.word	0x20001341
200012bc:	20001341 	.word	0x20001341
200012c0:	20001341 	.word	0x20001341
200012c4:	20001341 	.word	0x20001341
200012c8:	20001341 	.word	0x20001341
200012cc:	20001309 	.word	0x20001309
        {
            case IIRF_MODEM_STATUS:  /* Modem status interrupt */
            {
                ASSERT( NULL_HANDLER != this_uart->modemsts_handler );
200012d0:	687b      	ldr	r3, [r7, #4]
200012d2:	6a5b      	ldr	r3, [r3, #36]	; 0x24
200012d4:	2b00      	cmp	r3, #0
200012d6:	d100      	bne.n	200012da <MSS_UART_isr+0x9a>
200012d8:	be00      	bkpt	0x0000
                if( NULL_HANDLER != this_uart->modemsts_handler )
200012da:	687b      	ldr	r3, [r7, #4]
200012dc:	6a5b      	ldr	r3, [r3, #36]	; 0x24
200012de:	2b00      	cmp	r3, #0
200012e0:	d030      	beq.n	20001344 <MSS_UART_isr+0x104>
                {
                   (*(this_uart->modemsts_handler))( this_uart );
200012e2:	687b      	ldr	r3, [r7, #4]
200012e4:	6a5b      	ldr	r3, [r3, #36]	; 0x24
200012e6:	6878      	ldr	r0, [r7, #4]
200012e8:	4798      	blx	r3
                }
            }
            break;
200012ea:	e032      	b.n	20001352 <MSS_UART_isr+0x112>

            case IIRF_THRE: /* Transmitter Holding Register Empty */
            {
                ASSERT( NULL_HANDLER != this_uart->tx_handler );
200012ec:	687b      	ldr	r3, [r7, #4]
200012ee:	6a1b      	ldr	r3, [r3, #32]
200012f0:	2b00      	cmp	r3, #0
200012f2:	d100      	bne.n	200012f6 <MSS_UART_isr+0xb6>
200012f4:	be00      	bkpt	0x0000
                if ( NULL_HANDLER != this_uart->tx_handler )
200012f6:	687b      	ldr	r3, [r7, #4]
200012f8:	6a1b      	ldr	r3, [r3, #32]
200012fa:	2b00      	cmp	r3, #0
200012fc:	d024      	beq.n	20001348 <MSS_UART_isr+0x108>
                {
                    (*(this_uart->tx_handler))( this_uart );
200012fe:	687b      	ldr	r3, [r7, #4]
20001300:	6a1b      	ldr	r3, [r3, #32]
20001302:	6878      	ldr	r0, [r7, #4]
20001304:	4798      	blx	r3
                }
            }
            break;
20001306:	e024      	b.n	20001352 <MSS_UART_isr+0x112>

            case IIRF_RX_DATA:      /* Received Data Available */
            case IIRF_DATA_TIMEOUT: /* Received Data Timed-out */
            {
                ASSERT( NULL_HANDLER != this_uart->rx_handler );
20001308:	687b      	ldr	r3, [r7, #4]
2000130a:	69db      	ldr	r3, [r3, #28]
2000130c:	2b00      	cmp	r3, #0
2000130e:	d100      	bne.n	20001312 <MSS_UART_isr+0xd2>
20001310:	be00      	bkpt	0x0000
                if ( NULL_HANDLER != this_uart->rx_handler )
20001312:	687b      	ldr	r3, [r7, #4]
20001314:	69db      	ldr	r3, [r3, #28]
20001316:	2b00      	cmp	r3, #0
20001318:	d018      	beq.n	2000134c <MSS_UART_isr+0x10c>
                {
                    (*(this_uart->rx_handler))( this_uart );
2000131a:	687b      	ldr	r3, [r7, #4]
2000131c:	69db      	ldr	r3, [r3, #28]
2000131e:	6878      	ldr	r0, [r7, #4]
20001320:	4798      	blx	r3
                }
            }
            break;
20001322:	e016      	b.n	20001352 <MSS_UART_isr+0x112>

            case IIRF_RX_LINE_STATUS:  /* Line Status Interrupt */
            {
                ASSERT( NULL_HANDLER != this_uart->linests_handler );
20001324:	687b      	ldr	r3, [r7, #4]
20001326:	699b      	ldr	r3, [r3, #24]
20001328:	2b00      	cmp	r3, #0
2000132a:	d100      	bne.n	2000132e <MSS_UART_isr+0xee>
2000132c:	be00      	bkpt	0x0000
                if ( NULL_HANDLER != this_uart->linests_handler )
2000132e:	687b      	ldr	r3, [r7, #4]
20001330:	699b      	ldr	r3, [r3, #24]
20001332:	2b00      	cmp	r3, #0
20001334:	d00c      	beq.n	20001350 <MSS_UART_isr+0x110>
                {
                   (*(this_uart->linests_handler))( this_uart );
20001336:	687b      	ldr	r3, [r7, #4]
20001338:	699b      	ldr	r3, [r3, #24]
2000133a:	6878      	ldr	r0, [r7, #4]
2000133c:	4798      	blx	r3
                }
            }
            break;
2000133e:	e008      	b.n	20001352 <MSS_UART_isr+0x112>

            default:
            {
                ASSERT( INVALID_INTERRUPT );
20001340:	be00      	bkpt	0x0000
20001342:	e006      	b.n	20001352 <MSS_UART_isr+0x112>
                if( NULL_HANDLER != this_uart->modemsts_handler )
                {
                   (*(this_uart->modemsts_handler))( this_uart );
                }
            }
            break;
20001344:	bf00      	nop
20001346:	e004      	b.n	20001352 <MSS_UART_isr+0x112>
                if ( NULL_HANDLER != this_uart->tx_handler )
                {
                    (*(this_uart->tx_handler))( this_uart );
                }
            }
            break;
20001348:	bf00      	nop
2000134a:	e002      	b.n	20001352 <MSS_UART_isr+0x112>
                if ( NULL_HANDLER != this_uart->rx_handler )
                {
                    (*(this_uart->rx_handler))( this_uart );
                }
            }
            break;
2000134c:	bf00      	nop
2000134e:	e000      	b.n	20001352 <MSS_UART_isr+0x112>
                if ( NULL_HANDLER != this_uart->linests_handler )
                {
                   (*(this_uart->linests_handler))( this_uart );
                }
            }
            break;
20001350:	bf00      	nop
                ASSERT( INVALID_INTERRUPT );
            }
            break;
        }
    }
}
20001352:	f107 0710 	add.w	r7, r7, #16
20001356:	46bd      	mov	sp, r7
20001358:	bd80      	pop	{r7, pc}
2000135a:	bf00      	nop

2000135c <default_tx_handler>:
static void
default_tx_handler
(
    mss_uart_instance_t * this_uart
)
{
2000135c:	b480      	push	{r7}
2000135e:	b087      	sub	sp, #28
20001360:	af00      	add	r7, sp, #0
20001362:	6078      	str	r0, [r7, #4]
    uint8_t status;

    ASSERT( (this_uart == &g_mss_uart0) || (this_uart == &g_mss_uart1) );
20001364:	687a      	ldr	r2, [r7, #4]
20001366:	f24b 13b4 	movw	r3, #45492	; 0xb1b4
2000136a:	f2c2 0300 	movt	r3, #8192	; 0x2000
2000136e:	429a      	cmp	r2, r3
20001370:	d007      	beq.n	20001382 <default_tx_handler+0x26>
20001372:	687a      	ldr	r2, [r7, #4]
20001374:	f24b 138c 	movw	r3, #45452	; 0xb18c
20001378:	f2c2 0300 	movt	r3, #8192	; 0x2000
2000137c:	429a      	cmp	r2, r3
2000137e:	d000      	beq.n	20001382 <default_tx_handler+0x26>
20001380:	be00      	bkpt	0x0000
    ASSERT( ( (uint8_t *)0 ) != this_uart->tx_buffer );
20001382:	687b      	ldr	r3, [r7, #4]
20001384:	68db      	ldr	r3, [r3, #12]
20001386:	2b00      	cmp	r3, #0
20001388:	d100      	bne.n	2000138c <default_tx_handler+0x30>
2000138a:	be00      	bkpt	0x0000
    ASSERT( 0U < this_uart->tx_buff_size );
2000138c:	687b      	ldr	r3, [r7, #4]
2000138e:	691b      	ldr	r3, [r3, #16]
20001390:	2b00      	cmp	r3, #0
20001392:	d100      	bne.n	20001396 <default_tx_handler+0x3a>
20001394:	be00      	bkpt	0x0000

    if( ( (this_uart == &g_mss_uart0) || (this_uart == &g_mss_uart1) ) &&
20001396:	687a      	ldr	r2, [r7, #4]
20001398:	f24b 13b4 	movw	r3, #45492	; 0xb1b4
2000139c:	f2c2 0300 	movt	r3, #8192	; 0x2000
200013a0:	429a      	cmp	r2, r3
200013a2:	d006      	beq.n	200013b2 <default_tx_handler+0x56>
200013a4:	687a      	ldr	r2, [r7, #4]
200013a6:	f24b 138c 	movw	r3, #45452	; 0xb18c
200013aa:	f2c2 0300 	movt	r3, #8192	; 0x2000
200013ae:	429a      	cmp	r2, r3
200013b0:	d152      	bne.n	20001458 <default_tx_handler+0xfc>
        ( ( (uint8_t *)0 ) != this_uart->tx_buffer ) &&
200013b2:	687b      	ldr	r3, [r7, #4]
200013b4:	68db      	ldr	r3, [r3, #12]

    ASSERT( (this_uart == &g_mss_uart0) || (this_uart == &g_mss_uart1) );
    ASSERT( ( (uint8_t *)0 ) != this_uart->tx_buffer );
    ASSERT( 0U < this_uart->tx_buff_size );

    if( ( (this_uart == &g_mss_uart0) || (this_uart == &g_mss_uart1) ) &&
200013b6:	2b00      	cmp	r3, #0
200013b8:	d04e      	beq.n	20001458 <default_tx_handler+0xfc>
        ( ( (uint8_t *)0 ) != this_uart->tx_buffer ) &&
        ( 0U < this_uart->tx_buff_size ) )
200013ba:	687b      	ldr	r3, [r7, #4]
200013bc:	691b      	ldr	r3, [r3, #16]

    ASSERT( (this_uart == &g_mss_uart0) || (this_uart == &g_mss_uart1) );
    ASSERT( ( (uint8_t *)0 ) != this_uart->tx_buffer );
    ASSERT( 0U < this_uart->tx_buff_size );

    if( ( (this_uart == &g_mss_uart0) || (this_uart == &g_mss_uart1) ) &&
200013be:	2b00      	cmp	r3, #0
200013c0:	d04a      	beq.n	20001458 <default_tx_handler+0xfc>
        ( ( (uint8_t *)0 ) != this_uart->tx_buffer ) &&
        ( 0U < this_uart->tx_buff_size ) )
    {
        /* Read the Line Status Register and update the sticky record. */
        status = this_uart->hw_reg->LSR;
200013c2:	687b      	ldr	r3, [r7, #4]
200013c4:	681b      	ldr	r3, [r3, #0]
200013c6:	7d1b      	ldrb	r3, [r3, #20]
200013c8:	72fb      	strb	r3, [r7, #11]
        this_uart->status |= status;
200013ca:	687b      	ldr	r3, [r7, #4]
200013cc:	7a9a      	ldrb	r2, [r3, #10]
200013ce:	7afb      	ldrb	r3, [r7, #11]
200013d0:	ea42 0303 	orr.w	r3, r2, r3
200013d4:	b2da      	uxtb	r2, r3
200013d6:	687b      	ldr	r3, [r7, #4]
200013d8:	729a      	strb	r2, [r3, #10]

        /*
         * This function should only be called as a result of a THRE interrupt.
         * Verify that this is true before proceeding to transmit data.
         */
        if ( status & MSS_UART_THRE )
200013da:	7afb      	ldrb	r3, [r7, #11]
200013dc:	f003 0320 	and.w	r3, r3, #32
200013e0:	2b00      	cmp	r3, #0
200013e2:	d029      	beq.n	20001438 <default_tx_handler+0xdc>
        {
            uint32_t i;
            uint32_t fill_size = TX_FIFO_SIZE;
200013e4:	f04f 0310 	mov.w	r3, #16
200013e8:	613b      	str	r3, [r7, #16]
            uint32_t tx_remain = this_uart->tx_buff_size - this_uart->tx_idx;
200013ea:	687b      	ldr	r3, [r7, #4]
200013ec:	691a      	ldr	r2, [r3, #16]
200013ee:	687b      	ldr	r3, [r7, #4]
200013f0:	695b      	ldr	r3, [r3, #20]
200013f2:	ebc3 0302 	rsb	r3, r3, r2
200013f6:	617b      	str	r3, [r7, #20]

            /* Calculate the number of bytes to transmit. */
            if ( tx_remain < TX_FIFO_SIZE )
200013f8:	697b      	ldr	r3, [r7, #20]
200013fa:	2b0f      	cmp	r3, #15
200013fc:	d801      	bhi.n	20001402 <default_tx_handler+0xa6>
            {
                fill_size = tx_remain;
200013fe:	697b      	ldr	r3, [r7, #20]
20001400:	613b      	str	r3, [r7, #16]
            }

            /* Fill the TX FIFO with the calculated the number of bytes. */
            for ( i = 0U; i < fill_size; ++i )
20001402:	f04f 0300 	mov.w	r3, #0
20001406:	60fb      	str	r3, [r7, #12]
20001408:	e012      	b.n	20001430 <default_tx_handler+0xd4>
            {
                /* Send next character in the buffer. */
                this_uart->hw_reg->THR = this_uart->tx_buffer[this_uart->tx_idx];
2000140a:	687b      	ldr	r3, [r7, #4]
2000140c:	681b      	ldr	r3, [r3, #0]
2000140e:	687a      	ldr	r2, [r7, #4]
20001410:	68d1      	ldr	r1, [r2, #12]
20001412:	687a      	ldr	r2, [r7, #4]
20001414:	6952      	ldr	r2, [r2, #20]
20001416:	440a      	add	r2, r1
20001418:	7812      	ldrb	r2, [r2, #0]
2000141a:	701a      	strb	r2, [r3, #0]
                ++this_uart->tx_idx;
2000141c:	687b      	ldr	r3, [r7, #4]
2000141e:	695b      	ldr	r3, [r3, #20]
20001420:	f103 0201 	add.w	r2, r3, #1
20001424:	687b      	ldr	r3, [r7, #4]
20001426:	615a      	str	r2, [r3, #20]
            {
                fill_size = tx_remain;
            }

            /* Fill the TX FIFO with the calculated the number of bytes. */
            for ( i = 0U; i < fill_size; ++i )
20001428:	68fb      	ldr	r3, [r7, #12]
2000142a:	f103 0301 	add.w	r3, r3, #1
2000142e:	60fb      	str	r3, [r7, #12]
20001430:	68fa      	ldr	r2, [r7, #12]
20001432:	693b      	ldr	r3, [r7, #16]
20001434:	429a      	cmp	r2, r3
20001436:	d3e8      	bcc.n	2000140a <default_tx_handler+0xae>
                ++this_uart->tx_idx;
            }
        }

        /* Flag Tx as complete if all data has been pushed into the Tx FIFO. */
        if ( this_uart->tx_idx == this_uart->tx_buff_size )
20001438:	687b      	ldr	r3, [r7, #4]
2000143a:	695a      	ldr	r2, [r3, #20]
2000143c:	687b      	ldr	r3, [r7, #4]
2000143e:	691b      	ldr	r3, [r3, #16]
20001440:	429a      	cmp	r2, r3
20001442:	d109      	bne.n	20001458 <default_tx_handler+0xfc>
        {
            this_uart->tx_buff_size = TX_COMPLETE;
20001444:	687b      	ldr	r3, [r7, #4]
20001446:	f04f 0200 	mov.w	r2, #0
2000144a:	611a      	str	r2, [r3, #16]
            /* disables TX interrupt */
            this_uart->hw_reg_bit->IER_ETBEI = 0U;
2000144c:	687b      	ldr	r3, [r7, #4]
2000144e:	685b      	ldr	r3, [r3, #4]
20001450:	f04f 0200 	mov.w	r2, #0
20001454:	f8c3 2084 	str.w	r2, [r3, #132]	; 0x84
        }
    }
}
20001458:	f107 071c 	add.w	r7, r7, #28
2000145c:	46bd      	mov	sp, r7
2000145e:	bc80      	pop	{r7}
20001460:	4770      	bx	lr
20001462:	bf00      	nop

20001464 <MSS_UART_set_rx_handler>:
(
    mss_uart_instance_t *       this_uart,
    mss_uart_irq_handler_t      handler,
    mss_uart_rx_trig_level_t    trigger_level
)
{
20001464:	b580      	push	{r7, lr}
20001466:	b084      	sub	sp, #16
20001468:	af00      	add	r7, sp, #0
2000146a:	60f8      	str	r0, [r7, #12]
2000146c:	60b9      	str	r1, [r7, #8]
2000146e:	4613      	mov	r3, r2
20001470:	71fb      	strb	r3, [r7, #7]
    ASSERT( (this_uart == &g_mss_uart0) || (this_uart == &g_mss_uart1) );
20001472:	68fa      	ldr	r2, [r7, #12]
20001474:	f24b 13b4 	movw	r3, #45492	; 0xb1b4
20001478:	f2c2 0300 	movt	r3, #8192	; 0x2000
2000147c:	429a      	cmp	r2, r3
2000147e:	d007      	beq.n	20001490 <MSS_UART_set_rx_handler+0x2c>
20001480:	68fa      	ldr	r2, [r7, #12]
20001482:	f24b 138c 	movw	r3, #45452	; 0xb18c
20001486:	f2c2 0300 	movt	r3, #8192	; 0x2000
2000148a:	429a      	cmp	r2, r3
2000148c:	d000      	beq.n	20001490 <MSS_UART_set_rx_handler+0x2c>
2000148e:	be00      	bkpt	0x0000
    ASSERT( handler != INVALID_IRQ_HANDLER );
20001490:	68bb      	ldr	r3, [r7, #8]
20001492:	2b00      	cmp	r3, #0
20001494:	d100      	bne.n	20001498 <MSS_UART_set_rx_handler+0x34>
20001496:	be00      	bkpt	0x0000
    ASSERT( trigger_level < MSS_UART_FIFO_INVALID_TRIG_LEVEL );
20001498:	79fb      	ldrb	r3, [r7, #7]
2000149a:	2bc0      	cmp	r3, #192	; 0xc0
2000149c:	d900      	bls.n	200014a0 <MSS_UART_set_rx_handler+0x3c>
2000149e:	be00      	bkpt	0x0000

    if( ( (this_uart == &g_mss_uart0) || (this_uart == &g_mss_uart1) ) &&
200014a0:	68fa      	ldr	r2, [r7, #12]
200014a2:	f24b 13b4 	movw	r3, #45492	; 0xb1b4
200014a6:	f2c2 0300 	movt	r3, #8192	; 0x2000
200014aa:	429a      	cmp	r2, r3
200014ac:	d006      	beq.n	200014bc <MSS_UART_set_rx_handler+0x58>
200014ae:	68fa      	ldr	r2, [r7, #12]
200014b0:	f24b 138c 	movw	r3, #45452	; 0xb18c
200014b4:	f2c2 0300 	movt	r3, #8192	; 0x2000
200014b8:	429a      	cmp	r2, r3
200014ba:	d123      	bne.n	20001504 <MSS_UART_set_rx_handler+0xa0>
200014bc:	68bb      	ldr	r3, [r7, #8]
200014be:	2b00      	cmp	r3, #0
200014c0:	d020      	beq.n	20001504 <MSS_UART_set_rx_handler+0xa0>
200014c2:	79fb      	ldrb	r3, [r7, #7]
200014c4:	2bc0      	cmp	r3, #192	; 0xc0
200014c6:	d81d      	bhi.n	20001504 <MSS_UART_set_rx_handler+0xa0>
        ( handler != INVALID_IRQ_HANDLER) &&
        ( trigger_level < MSS_UART_FIFO_INVALID_TRIG_LEVEL) )
    {
        this_uart->rx_handler = handler;
200014c8:	68fb      	ldr	r3, [r7, #12]
200014ca:	68ba      	ldr	r2, [r7, #8]
200014cc:	61da      	str	r2, [r3, #28]

        /* Set the receive interrupt trigger level. */
        /* Clear RX FIFO; Enable TXRDY and RXRDY for PDMA */
        this_uart->hw_reg->FCR = (uint8_t)(FCR_TRIG_LEVEL_MASK & (uint8_t)trigger_level) |
200014ce:	68fb      	ldr	r3, [r7, #12]
200014d0:	681a      	ldr	r2, [r3, #0]
200014d2:	79fb      	ldrb	r3, [r7, #7]
200014d4:	f003 03c0 	and.w	r3, r3, #192	; 0xc0
200014d8:	f043 030a 	orr.w	r3, r3, #10
200014dc:	b2db      	uxtb	r3, r3
200014de:	7213      	strb	r3, [r2, #8]
                              FCR_CLEAR_RX_FIFO_MASK | FCR_ENABLE_TXRDY_RXRDY_MASK;

        /* Clear any previously pended interrupts */
        NVIC_ClearPendingIRQ( this_uart->irqn );
200014e0:	68fb      	ldr	r3, [r7, #12]
200014e2:	891b      	ldrh	r3, [r3, #8]
200014e4:	b21b      	sxth	r3, r3
200014e6:	4618      	mov	r0, r3
200014e8:	f7ff fcaa 	bl	20000e40 <NVIC_ClearPendingIRQ>

        /* Enable receive interrupt. */
        this_uart->hw_reg_bit->IER_ERBFI = 1U;
200014ec:	68fb      	ldr	r3, [r7, #12]
200014ee:	685b      	ldr	r3, [r3, #4]
200014f0:	f04f 0201 	mov.w	r2, #1
200014f4:	f8c3 2080 	str.w	r2, [r3, #128]	; 0x80

        /* Enable UART instance interrupt in Cortex-M3 NVIC. */
        NVIC_EnableIRQ( this_uart->irqn );
200014f8:	68fb      	ldr	r3, [r7, #12]
200014fa:	891b      	ldrh	r3, [r3, #8]
200014fc:	b21b      	sxth	r3, r3
200014fe:	4618      	mov	r0, r3
20001500:	f7ff fc82 	bl	20000e08 <NVIC_EnableIRQ>
    }
}
20001504:	f107 0710 	add.w	r7, r7, #16
20001508:	46bd      	mov	sp, r7
2000150a:	bd80      	pop	{r7, pc}

2000150c <UART0_IRQHandler>:
#if defined(__GNUC__)
__attribute__((__interrupt__)) void UART0_IRQHandler( void )
#else
void UART0_IRQHandler( void )
#endif
{
2000150c:	4668      	mov	r0, sp
2000150e:	f020 0107 	bic.w	r1, r0, #7
20001512:	468d      	mov	sp, r1
20001514:	b589      	push	{r0, r3, r7, lr}
20001516:	af00      	add	r7, sp, #0
    MSS_UART_isr( &g_mss_uart0 );
20001518:	f24b 10b4 	movw	r0, #45492	; 0xb1b4
2000151c:	f2c2 0000 	movt	r0, #8192	; 0x2000
20001520:	f7ff fe8e 	bl	20001240 <MSS_UART_isr>
    NVIC_ClearPendingIRQ( UART0_IRQn );
20001524:	f04f 000a 	mov.w	r0, #10
20001528:	f7ff fc8a 	bl	20000e40 <NVIC_ClearPendingIRQ>
}
2000152c:	46bd      	mov	sp, r7
2000152e:	e8bd 4089 	ldmia.w	sp!, {r0, r3, r7, lr}
20001532:	4685      	mov	sp, r0
20001534:	4770      	bx	lr
20001536:	bf00      	nop

20001538 <UART1_IRQHandler>:
#if defined(__GNUC__)
__attribute__((__interrupt__)) void UART1_IRQHandler( void )
#else
void UART1_IRQHandler( void )
#endif
{
20001538:	4668      	mov	r0, sp
2000153a:	f020 0107 	bic.w	r1, r0, #7
2000153e:	468d      	mov	sp, r1
20001540:	b589      	push	{r0, r3, r7, lr}
20001542:	af00      	add	r7, sp, #0
    MSS_UART_isr( &g_mss_uart1 );
20001544:	f24b 108c 	movw	r0, #45452	; 0xb18c
20001548:	f2c2 0000 	movt	r0, #8192	; 0x2000
2000154c:	f7ff fe78 	bl	20001240 <MSS_UART_isr>
    NVIC_ClearPendingIRQ( UART1_IRQn );
20001550:	f04f 000b 	mov.w	r0, #11
20001554:	f7ff fc74 	bl	20000e40 <NVIC_ClearPendingIRQ>
}
20001558:	46bd      	mov	sp, r7
2000155a:	e8bd 4089 	ldmia.w	sp!, {r0, r3, r7, lr}
2000155e:	4685      	mov	sp, r0
20001560:	4770      	bx	lr
20001562:	bf00      	nop

20001564 <SystemInit>:

/***************************************************************************//**
 * See system_a2fxxxm3f.h for details.
 */
void SystemInit(void)
{
20001564:	b480      	push	{r7}
20001566:	af00      	add	r7, sp, #0
    /*
     * Do not make use of global variables or make any asumptions regarding
     * memory content if modifying this function. The memory content has not been
     * initialised by the time this function is called by the start-up code.
     */
}
20001568:	46bd      	mov	sp, r7
2000156a:	bc80      	pop	{r7}
2000156c:	4770      	bx	lr
2000156e:	bf00      	nop

20001570 <SystemCoreClockUpdate>:

/***************************************************************************//**
 *
 */
void SystemCoreClockUpdate (void)
{
20001570:	b580      	push	{r7, lr}
20001572:	b08a      	sub	sp, #40	; 0x28
20001574:	af00      	add	r7, sp, #0
    uint32_t PclkDiv0;
    uint32_t PclkDiv1;
    uint32_t AceDiv;
    uint32_t FabDiv;

    const uint32_t pclk_div_lut[4] = { 1uL, 2uL, 4uL, 1uL };
20001576:	f24a 73dc 	movw	r3, #42972	; 0xa7dc
2000157a:	f2c2 0300 	movt	r3, #8192	; 0x2000
2000157e:	46bc      	mov	ip, r7
20001580:	cb0f      	ldmia	r3!, {r0, r1, r2, r3}
20001582:	e88c 000f 	stmia.w	ip, {r0, r1, r2, r3}

    /* Read PCLK dividers from system registers. Multiply the value read from
     * system register by two to get actual divider value. */
    PclkDiv0 = pclk_div_lut[((SYSREG->MSS_CLK_CR >> PCLK0_DIV_SHIFT) & PCLK_DIV_MASK)];
20001586:	f242 0300 	movw	r3, #8192	; 0x2000
2000158a:	f2ce 0304 	movt	r3, #57348	; 0xe004
2000158e:	6c9b      	ldr	r3, [r3, #72]	; 0x48
20001590:	ea4f 0393 	mov.w	r3, r3, lsr #2
20001594:	f003 0303 	and.w	r3, r3, #3
20001598:	ea4f 0383 	mov.w	r3, r3, lsl #2
2000159c:	f107 0228 	add.w	r2, r7, #40	; 0x28
200015a0:	4413      	add	r3, r2
200015a2:	f853 3c28 	ldr.w	r3, [r3, #-40]
200015a6:	613b      	str	r3, [r7, #16]
    PclkDiv1 = pclk_div_lut[((SYSREG->MSS_CLK_CR >> PCLK1_DIV_SHIFT) & PCLK_DIV_MASK)];
200015a8:	f242 0300 	movw	r3, #8192	; 0x2000
200015ac:	f2ce 0304 	movt	r3, #57348	; 0xe004
200015b0:	6c9b      	ldr	r3, [r3, #72]	; 0x48
200015b2:	ea4f 1313 	mov.w	r3, r3, lsr #4
200015b6:	f003 0303 	and.w	r3, r3, #3
200015ba:	ea4f 0383 	mov.w	r3, r3, lsl #2
200015be:	f107 0228 	add.w	r2, r7, #40	; 0x28
200015c2:	4413      	add	r3, r2
200015c4:	f853 3c28 	ldr.w	r3, [r3, #-40]
200015c8:	617b      	str	r3, [r7, #20]
    AceDiv = pclk_div_lut[((SYSREG->MSS_CLK_CR >> ACE_DIV_SHIFT) & PCLK_DIV_MASK)];
200015ca:	f242 0300 	movw	r3, #8192	; 0x2000
200015ce:	f2ce 0304 	movt	r3, #57348	; 0xe004
200015d2:	6c9b      	ldr	r3, [r3, #72]	; 0x48
200015d4:	ea4f 1393 	mov.w	r3, r3, lsr #6
200015d8:	f003 0303 	and.w	r3, r3, #3
200015dc:	ea4f 0383 	mov.w	r3, r3, lsl #2
200015e0:	f107 0228 	add.w	r2, r7, #40	; 0x28
200015e4:	4413      	add	r3, r2
200015e6:	f853 3c28 	ldr.w	r3, [r3, #-40]
200015ea:	61bb      	str	r3, [r7, #24]
    {
        /* Compute the FPGA fabric frequency divider. */
        uint32_t obdiv;
        uint32_t obdivhalf;
        
        obdiv = (SYSREG->MSS_CCC_DIV_CR >> OBDIV_SHIFT) & OBDIV_MASK;
200015ec:	f242 0300 	movw	r3, #8192	; 0x2000
200015f0:	f2ce 0304 	movt	r3, #57348	; 0xe004
200015f4:	6cdb      	ldr	r3, [r3, #76]	; 0x4c
200015f6:	ea4f 2313 	mov.w	r3, r3, lsr #8
200015fa:	f003 031f 	and.w	r3, r3, #31
200015fe:	623b      	str	r3, [r7, #32]
        obdivhalf = (SYSREG->MSS_CCC_DIV_CR >> OBDIVHALF_SHIFT) & OBDIVHALF_MASK;
20001600:	f242 0300 	movw	r3, #8192	; 0x2000
20001604:	f2ce 0304 	movt	r3, #57348	; 0xe004
20001608:	6cdb      	ldr	r3, [r3, #76]	; 0x4c
2000160a:	ea4f 3353 	mov.w	r3, r3, lsr #13
2000160e:	f003 0301 	and.w	r3, r3, #1
20001612:	627b      	str	r3, [r7, #36]	; 0x24
        FabDiv = obdiv + 1uL;
20001614:	6a3b      	ldr	r3, [r7, #32]
20001616:	f103 0301 	add.w	r3, r3, #1
2000161a:	61fb      	str	r3, [r7, #28]
        if ( obdivhalf != 0uL )
2000161c:	6a7b      	ldr	r3, [r7, #36]	; 0x24
2000161e:	2b00      	cmp	r3, #0
20001620:	d003      	beq.n	2000162a <SystemCoreClockUpdate+0xba>
        {
            FabDiv = FabDiv * 2uL;
20001622:	69fb      	ldr	r3, [r7, #28]
20001624:	ea4f 0343 	mov.w	r3, r3, lsl #1
20001628:	61fb      	str	r3, [r7, #28]
    }
    
    /* Retrieve FCLK from eNVM spare pages if Actel system boot programmed as part of the system. */
    
    /* Read system clock from eNVM spare pages. */
    SystemCoreClock = GetSystemClock();
2000162a:	f000 f849 	bl	200016c0 <GetSystemClock>
2000162e:	4602      	mov	r2, r0
20001630:	f64a 33e8 	movw	r3, #44008	; 0xabe8
20001634:	f2c2 0300 	movt	r3, #8192	; 0x2000
20001638:	601a      	str	r2, [r3, #0]
    g_FrequencyPCLK0 = SystemCoreClock / PclkDiv0;
2000163a:	f64a 33e8 	movw	r3, #44008	; 0xabe8
2000163e:	f2c2 0300 	movt	r3, #8192	; 0x2000
20001642:	681a      	ldr	r2, [r3, #0]
20001644:	693b      	ldr	r3, [r7, #16]
20001646:	fbb2 f2f3 	udiv	r2, r2, r3
2000164a:	f64a 33ec 	movw	r3, #44012	; 0xabec
2000164e:	f2c2 0300 	movt	r3, #8192	; 0x2000
20001652:	601a      	str	r2, [r3, #0]
    g_FrequencyPCLK1 = SystemCoreClock / PclkDiv1;
20001654:	f64a 33e8 	movw	r3, #44008	; 0xabe8
20001658:	f2c2 0300 	movt	r3, #8192	; 0x2000
2000165c:	681a      	ldr	r2, [r3, #0]
2000165e:	697b      	ldr	r3, [r7, #20]
20001660:	fbb2 f2f3 	udiv	r2, r2, r3
20001664:	f64a 33f0 	movw	r3, #44016	; 0xabf0
20001668:	f2c2 0300 	movt	r3, #8192	; 0x2000
2000166c:	601a      	str	r2, [r3, #0]
    g_FrequencyACE = SystemCoreClock / AceDiv;
2000166e:	f64a 33e8 	movw	r3, #44008	; 0xabe8
20001672:	f2c2 0300 	movt	r3, #8192	; 0x2000
20001676:	681a      	ldr	r2, [r3, #0]
20001678:	69bb      	ldr	r3, [r7, #24]
2000167a:	fbb2 f2f3 	udiv	r2, r2, r3
2000167e:	f64a 33f4 	movw	r3, #44020	; 0xabf4
20001682:	f2c2 0300 	movt	r3, #8192	; 0x2000
20001686:	601a      	str	r2, [r3, #0]
    g_FrequencyFPGA = SystemCoreClock / FabDiv;
20001688:	f64a 33e8 	movw	r3, #44008	; 0xabe8
2000168c:	f2c2 0300 	movt	r3, #8192	; 0x2000
20001690:	681a      	ldr	r2, [r3, #0]
20001692:	69fb      	ldr	r3, [r7, #28]
20001694:	fbb2 f2f3 	udiv	r2, r2, r3
20001698:	f64a 33f8 	movw	r3, #44024	; 0xabf8
2000169c:	f2c2 0300 	movt	r3, #8192	; 0x2000
200016a0:	601a      	str	r2, [r3, #0]
    
    /* Keep SystemFrequency as well as SystemCoreClock for legacy reasons. */
    SystemFrequency = SystemCoreClock;
200016a2:	f64a 33e8 	movw	r3, #44008	; 0xabe8
200016a6:	f2c2 0300 	movt	r3, #8192	; 0x2000
200016aa:	681a      	ldr	r2, [r3, #0]
200016ac:	f64a 33e4 	movw	r3, #44004	; 0xabe4
200016b0:	f2c2 0300 	movt	r3, #8192	; 0x2000
200016b4:	601a      	str	r2, [r3, #0]
}
200016b6:	f107 0728 	add.w	r7, r7, #40	; 0x28
200016ba:	46bd      	mov	sp, r7
200016bc:	bd80      	pop	{r7, pc}
200016be:	bf00      	nop

200016c0 <GetSystemClock>:
 * retrieved from eNVM spare pages.
 * The FCLK frequency value selected in the MSS Configurator software tool is
 * stored in eNVM spare pages as part of the Actel system boot configuration data.
 */
uint32_t GetSystemClock( void )
{
200016c0:	b480      	push	{r7}
200016c2:	b08b      	sub	sp, #44	; 0x2c
200016c4:	af00      	add	r7, sp, #0
    uint32_t fclk = 0uL;
200016c6:	f04f 0300 	mov.w	r3, #0
200016ca:	607b      	str	r3, [r7, #4]
    
    uint32_t * p_sysboot_key = SYSBOOT_KEY_ADDR;
200016cc:	f640 031c 	movw	r3, #2076	; 0x81c
200016d0:	f2c6 0308 	movt	r3, #24584	; 0x6008
200016d4:	60bb      	str	r3, [r7, #8]
    uint32_t * p_idcode = IDCODE_LOCATION;
200016d6:	f240 2330 	movw	r3, #560	; 0x230
200016da:	f2c6 0308 	movt	r3, #24584	; 0x6008
200016de:	60fb      	str	r3, [r7, #12]
    uint32_t idcode;
	
    idcode = *p_idcode & ~IDCODE_DEV_REV_MASK;
200016e0:	68fb      	ldr	r3, [r7, #12]
200016e2:	681b      	ldr	r3, [r3, #0]
200016e4:	f023 4370 	bic.w	r3, r3, #4026531840	; 0xf0000000
200016e8:	613b      	str	r3, [r7, #16]
	
    if ( A2F060IFX_ID == idcode )
200016ea:	693a      	ldr	r2, [r7, #16]
200016ec:	f241 13cf 	movw	r3, #4559	; 0x11cf
200016f0:	f2c0 53a1 	movt	r3, #1441	; 0x5a1
200016f4:	429a      	cmp	r2, r3
200016f6:	d108      	bne.n	2000170a <GetSystemClock+0x4a>
    {
        uint32_t *p_fclk = SYSBOOT_A2F060_FCLK_ADDR;
200016f8:	f64e 732c 	movw	r3, #61228	; 0xef2c
200016fc:	f2c6 0301 	movt	r3, #24577	; 0x6001
20001700:	617b      	str	r3, [r7, #20]
        fclk = *p_fclk;
20001702:	697b      	ldr	r3, [r7, #20]
20001704:	681b      	ldr	r3, [r3, #0]
20001706:	607b      	str	r3, [r7, #4]
20001708:	e03d      	b.n	20001786 <GetSystemClock+0xc6>
    }
    else if ( SYSBOOT_KEY_VALUE == *p_sysboot_key )
2000170a:	68bb      	ldr	r3, [r7, #8]
2000170c:	681a      	ldr	r2, [r3, #0]
2000170e:	f244 3341 	movw	r3, #17217	; 0x4341
20001712:	f6c4 4354 	movt	r3, #19540	; 0x4c54
20001716:	429a      	cmp	r2, r3
20001718:	d135      	bne.n	20001786 <GetSystemClock+0xc6>
    {
        /* Actel system boot programmed, check if it has the FCLK value stored. */
        uint32_t *p_sysboot_version = SYSBOOT_VERSION_ADDR;
2000171a:	f640 0340 	movw	r3, #2112	; 0x840
2000171e:	f2c6 0308 	movt	r3, #24584	; 0x6008
20001722:	61bb      	str	r3, [r7, #24]
        uint32_t sysboot_version = *p_sysboot_version;
20001724:	69bb      	ldr	r3, [r7, #24]
20001726:	681b      	ldr	r3, [r3, #0]
20001728:	61fb      	str	r3, [r7, #28]
        
        sysboot_version &= SYSBOOT_VERSION_MASK;
2000172a:	69fb      	ldr	r3, [r7, #28]
2000172c:	f023 437f 	bic.w	r3, r3, #4278190080	; 0xff000000
20001730:	61fb      	str	r3, [r7, #28]
        
        if ( sysboot_version >= MIN_SYSBOOT_VERSION )
20001732:	69fa      	ldr	r2, [r7, #28]
20001734:	f240 3300 	movw	r3, #768	; 0x300
20001738:	f2c0 0301 	movt	r3, #1
2000173c:	429a      	cmp	r2, r3
2000173e:	d922      	bls.n	20001786 <GetSystemClock+0xc6>
        {
            /* Handle change of eNVM location of FCLK between 1.3.x and 2.x.x versions of the system boot. */
            if ( sysboot_version < SYSBOOT_VERSION_2_X )
20001740:	69fa      	ldr	r2, [r7, #28]
20001742:	f64f 73ff 	movw	r3, #65535	; 0xffff
20001746:	f2c0 0301 	movt	r3, #1
2000174a:	429a      	cmp	r2, r3
2000174c:	d808      	bhi.n	20001760 <GetSystemClock+0xa0>
            {
                /* Read FCLK value from MSS configurator generated configuration
                 * data stored in eNVM spare pages as part of system boot version 1.3.x
                 * configuration tables. */
                uint32_t *p_fclk = SYSBOOT_1_3_FCLK_ADDR;
2000174e:	f241 632c 	movw	r3, #5676	; 0x162c
20001752:	f2c6 0308 	movt	r3, #24584	; 0x6008
20001756:	623b      	str	r3, [r7, #32]
                fclk = *p_fclk;
20001758:	6a3b      	ldr	r3, [r7, #32]
2000175a:	681b      	ldr	r3, [r3, #0]
2000175c:	607b      	str	r3, [r7, #4]
2000175e:	e012      	b.n	20001786 <GetSystemClock+0xc6>
            }
            else if ( sysboot_version < MAX_SYSBOOT_VERSION )
20001760:	69fa      	ldr	r2, [r7, #28]
20001762:	f64f 73ff 	movw	r3, #65535	; 0xffff
20001766:	f2c0 0302 	movt	r3, #2
2000176a:	429a      	cmp	r2, r3
2000176c:	d808      	bhi.n	20001780 <GetSystemClock+0xc0>
            {
                /* Read FCLK value from MSS configurator generated configuration
                 * data stored in eNVM spare pages as part of system boot version 2.x.x
                 * configuration tables. */
                uint32_t *p_fclk = SYSBOOT_2_x_FCLK_ADDR;
2000176e:	f641 63ac 	movw	r3, #7852	; 0x1eac
20001772:	f2c6 0308 	movt	r3, #24584	; 0x6008
20001776:	627b      	str	r3, [r7, #36]	; 0x24
                fclk = *p_fclk;
20001778:	6a7b      	ldr	r3, [r7, #36]	; 0x24
2000177a:	681b      	ldr	r3, [r3, #0]
2000177c:	607b      	str	r3, [r7, #4]
2000177e:	e002      	b.n	20001786 <GetSystemClock+0xc6>
            }
            else
            {
                fclk = 0uL;
20001780:	f04f 0300 	mov.w	r3, #0
20001784:	607b      	str	r3, [r7, #4]
            }
        }
    }
    
    if ( 0uL == fclk )
20001786:	687b      	ldr	r3, [r7, #4]
20001788:	2b00      	cmp	r3, #0
2000178a:	d105      	bne.n	20001798 <GetSystemClock+0xd8>
        /* 
         * Could not retrieve FCLK from system boot configuration data. Fall back
         * to using SMARTFUSION_FCLK_FREQ which must then be defined as part of
         * project settings.
         */
        ASSERT( SMARTFUSION_FCLK_FREQ_DEFINED );
2000178c:	be00      	bkpt	0x0000
        fclk = SMARTFUSION_FCLK_FREQ;
2000178e:	f647 0340 	movw	r3, #30784	; 0x7840
20001792:	f2c0 137d 	movt	r3, #381	; 0x17d
20001796:	607b      	str	r3, [r7, #4]
    }
    
    return fclk;
20001798:	687b      	ldr	r3, [r7, #4]
}
2000179a:	4618      	mov	r0, r3
2000179c:	f107 072c 	add.w	r7, r7, #44	; 0x2c
200017a0:	46bd      	mov	sp, r7
200017a2:	bc80      	pop	{r7}
200017a4:	4770      	bx	lr
200017a6:	bf00      	nop

200017a8 <__libc_init_array>:
200017a8:	b570      	push	{r4, r5, r6, lr}
200017aa:	f64a 36d0 	movw	r6, #43984	; 0xabd0
200017ae:	f64a 35d0 	movw	r5, #43984	; 0xabd0
200017b2:	f2c2 0600 	movt	r6, #8192	; 0x2000
200017b6:	f2c2 0500 	movt	r5, #8192	; 0x2000
200017ba:	1b76      	subs	r6, r6, r5
200017bc:	10b6      	asrs	r6, r6, #2
200017be:	d006      	beq.n	200017ce <__libc_init_array+0x26>
200017c0:	2400      	movs	r4, #0
200017c2:	f855 3024 	ldr.w	r3, [r5, r4, lsl #2]
200017c6:	3401      	adds	r4, #1
200017c8:	4798      	blx	r3
200017ca:	42a6      	cmp	r6, r4
200017cc:	d8f9      	bhi.n	200017c2 <__libc_init_array+0x1a>
200017ce:	f64a 35d0 	movw	r5, #43984	; 0xabd0
200017d2:	f64a 36d4 	movw	r6, #43988	; 0xabd4
200017d6:	f2c2 0500 	movt	r5, #8192	; 0x2000
200017da:	f2c2 0600 	movt	r6, #8192	; 0x2000
200017de:	1b76      	subs	r6, r6, r5
200017e0:	f009 f9ea 	bl	2000abb8 <_init>
200017e4:	10b6      	asrs	r6, r6, #2
200017e6:	d006      	beq.n	200017f6 <__libc_init_array+0x4e>
200017e8:	2400      	movs	r4, #0
200017ea:	f855 3024 	ldr.w	r3, [r5, r4, lsl #2]
200017ee:	3401      	adds	r4, #1
200017f0:	4798      	blx	r3
200017f2:	42a6      	cmp	r6, r4
200017f4:	d8f9      	bhi.n	200017ea <__libc_init_array+0x42>
200017f6:	bd70      	pop	{r4, r5, r6, pc}

200017f8 <free>:
200017f8:	f64a 33fc 	movw	r3, #44028	; 0xabfc
200017fc:	4601      	mov	r1, r0
200017fe:	f2c2 0300 	movt	r3, #8192	; 0x2000
20001802:	6818      	ldr	r0, [r3, #0]
20001804:	f001 bf52 	b.w	200036ac <_free_r>

20001808 <malloc>:
20001808:	f64a 33fc 	movw	r3, #44028	; 0xabfc
2000180c:	4601      	mov	r1, r0
2000180e:	f2c2 0300 	movt	r3, #8192	; 0x2000
20001812:	6818      	ldr	r0, [r3, #0]
20001814:	f000 b800 	b.w	20001818 <_malloc_r>

20001818 <_malloc_r>:
20001818:	e92d 4ff0 	stmdb	sp!, {r4, r5, r6, r7, r8, r9, sl, fp, lr}
2000181c:	f101 040b 	add.w	r4, r1, #11
20001820:	2c16      	cmp	r4, #22
20001822:	b083      	sub	sp, #12
20001824:	4606      	mov	r6, r0
20001826:	d82f      	bhi.n	20001888 <_malloc_r+0x70>
20001828:	2300      	movs	r3, #0
2000182a:	2410      	movs	r4, #16
2000182c:	428c      	cmp	r4, r1
2000182e:	bf2c      	ite	cs
20001830:	4619      	movcs	r1, r3
20001832:	f043 0101 	orrcc.w	r1, r3, #1
20001836:	2900      	cmp	r1, #0
20001838:	d130      	bne.n	2000189c <_malloc_r+0x84>
2000183a:	4630      	mov	r0, r6
2000183c:	f000 fabe 	bl	20001dbc <__malloc_lock>
20001840:	f5b4 7ffc 	cmp.w	r4, #504	; 0x1f8
20001844:	d22e      	bcs.n	200018a4 <_malloc_r+0x8c>
20001846:	ea4f 0ed4 	mov.w	lr, r4, lsr #3
2000184a:	f64a 45f0 	movw	r5, #44272	; 0xacf0
2000184e:	f2c2 0500 	movt	r5, #8192	; 0x2000
20001852:	eb05 02ce 	add.w	r2, r5, lr, lsl #3
20001856:	68d3      	ldr	r3, [r2, #12]
20001858:	4293      	cmp	r3, r2
2000185a:	f000 8206 	beq.w	20001c6a <_malloc_r+0x452>
2000185e:	685a      	ldr	r2, [r3, #4]
20001860:	f103 0508 	add.w	r5, r3, #8
20001864:	68d9      	ldr	r1, [r3, #12]
20001866:	4630      	mov	r0, r6
20001868:	f022 0c03 	bic.w	ip, r2, #3
2000186c:	689a      	ldr	r2, [r3, #8]
2000186e:	4463      	add	r3, ip
20001870:	685c      	ldr	r4, [r3, #4]
20001872:	608a      	str	r2, [r1, #8]
20001874:	f044 0401 	orr.w	r4, r4, #1
20001878:	60d1      	str	r1, [r2, #12]
2000187a:	605c      	str	r4, [r3, #4]
2000187c:	f000 faa0 	bl	20001dc0 <__malloc_unlock>
20001880:	4628      	mov	r0, r5
20001882:	b003      	add	sp, #12
20001884:	e8bd 8ff0 	ldmia.w	sp!, {r4, r5, r6, r7, r8, r9, sl, fp, pc}
20001888:	f024 0407 	bic.w	r4, r4, #7
2000188c:	0fe3      	lsrs	r3, r4, #31
2000188e:	428c      	cmp	r4, r1
20001890:	bf2c      	ite	cs
20001892:	4619      	movcs	r1, r3
20001894:	f043 0101 	orrcc.w	r1, r3, #1
20001898:	2900      	cmp	r1, #0
2000189a:	d0ce      	beq.n	2000183a <_malloc_r+0x22>
2000189c:	230c      	movs	r3, #12
2000189e:	2500      	movs	r5, #0
200018a0:	6033      	str	r3, [r6, #0]
200018a2:	e7ed      	b.n	20001880 <_malloc_r+0x68>
200018a4:	ea5f 2e54 	movs.w	lr, r4, lsr #9
200018a8:	bf04      	itt	eq
200018aa:	ea4f 0ed4 	moveq.w	lr, r4, lsr #3
200018ae:	ea4f 00ce 	moveq.w	r0, lr, lsl #3
200018b2:	f040 8090 	bne.w	200019d6 <_malloc_r+0x1be>
200018b6:	f64a 45f0 	movw	r5, #44272	; 0xacf0
200018ba:	f2c2 0500 	movt	r5, #8192	; 0x2000
200018be:	1828      	adds	r0, r5, r0
200018c0:	68c3      	ldr	r3, [r0, #12]
200018c2:	4298      	cmp	r0, r3
200018c4:	d106      	bne.n	200018d4 <_malloc_r+0xbc>
200018c6:	e00d      	b.n	200018e4 <_malloc_r+0xcc>
200018c8:	2a00      	cmp	r2, #0
200018ca:	f280 816f 	bge.w	20001bac <_malloc_r+0x394>
200018ce:	68db      	ldr	r3, [r3, #12]
200018d0:	4298      	cmp	r0, r3
200018d2:	d007      	beq.n	200018e4 <_malloc_r+0xcc>
200018d4:	6859      	ldr	r1, [r3, #4]
200018d6:	f021 0103 	bic.w	r1, r1, #3
200018da:	1b0a      	subs	r2, r1, r4
200018dc:	2a0f      	cmp	r2, #15
200018de:	ddf3      	ble.n	200018c8 <_malloc_r+0xb0>
200018e0:	f10e 3eff 	add.w	lr, lr, #4294967295
200018e4:	f10e 0e01 	add.w	lr, lr, #1
200018e8:	f64a 47f0 	movw	r7, #44272	; 0xacf0
200018ec:	f2c2 0700 	movt	r7, #8192	; 0x2000
200018f0:	f107 0108 	add.w	r1, r7, #8
200018f4:	688b      	ldr	r3, [r1, #8]
200018f6:	4299      	cmp	r1, r3
200018f8:	bf08      	it	eq
200018fa:	687a      	ldreq	r2, [r7, #4]
200018fc:	d026      	beq.n	2000194c <_malloc_r+0x134>
200018fe:	685a      	ldr	r2, [r3, #4]
20001900:	f022 0c03 	bic.w	ip, r2, #3
20001904:	ebc4 020c 	rsb	r2, r4, ip
20001908:	2a0f      	cmp	r2, #15
2000190a:	f300 8194 	bgt.w	20001c36 <_malloc_r+0x41e>
2000190e:	2a00      	cmp	r2, #0
20001910:	60c9      	str	r1, [r1, #12]
20001912:	6089      	str	r1, [r1, #8]
20001914:	f280 8099 	bge.w	20001a4a <_malloc_r+0x232>
20001918:	f5bc 7f00 	cmp.w	ip, #512	; 0x200
2000191c:	f080 8165 	bcs.w	20001bea <_malloc_r+0x3d2>
20001920:	ea4f 0cdc 	mov.w	ip, ip, lsr #3
20001924:	f04f 0a01 	mov.w	sl, #1
20001928:	687a      	ldr	r2, [r7, #4]
2000192a:	eb07 00cc 	add.w	r0, r7, ip, lsl #3
2000192e:	ea4f 0cac 	mov.w	ip, ip, asr #2
20001932:	fa0a fc0c 	lsl.w	ip, sl, ip
20001936:	60d8      	str	r0, [r3, #12]
20001938:	f8d0 8008 	ldr.w	r8, [r0, #8]
2000193c:	ea4c 0202 	orr.w	r2, ip, r2
20001940:	607a      	str	r2, [r7, #4]
20001942:	f8c3 8008 	str.w	r8, [r3, #8]
20001946:	f8c8 300c 	str.w	r3, [r8, #12]
2000194a:	6083      	str	r3, [r0, #8]
2000194c:	f04f 0c01 	mov.w	ip, #1
20001950:	ea4f 03ae 	mov.w	r3, lr, asr #2
20001954:	fa0c fc03 	lsl.w	ip, ip, r3
20001958:	4594      	cmp	ip, r2
2000195a:	f200 8082 	bhi.w	20001a62 <_malloc_r+0x24a>
2000195e:	ea12 0f0c 	tst.w	r2, ip
20001962:	d108      	bne.n	20001976 <_malloc_r+0x15e>
20001964:	f02e 0e03 	bic.w	lr, lr, #3
20001968:	ea4f 0c4c 	mov.w	ip, ip, lsl #1
2000196c:	f10e 0e04 	add.w	lr, lr, #4
20001970:	ea12 0f0c 	tst.w	r2, ip
20001974:	d0f8      	beq.n	20001968 <_malloc_r+0x150>
20001976:	eb07 09ce 	add.w	r9, r7, lr, lsl #3
2000197a:	46f2      	mov	sl, lr
2000197c:	46c8      	mov	r8, r9
2000197e:	f8d8 300c 	ldr.w	r3, [r8, #12]
20001982:	4598      	cmp	r8, r3
20001984:	d107      	bne.n	20001996 <_malloc_r+0x17e>
20001986:	e168      	b.n	20001c5a <_malloc_r+0x442>
20001988:	2a00      	cmp	r2, #0
2000198a:	f280 8178 	bge.w	20001c7e <_malloc_r+0x466>
2000198e:	68db      	ldr	r3, [r3, #12]
20001990:	4598      	cmp	r8, r3
20001992:	f000 8162 	beq.w	20001c5a <_malloc_r+0x442>
20001996:	6858      	ldr	r0, [r3, #4]
20001998:	f020 0003 	bic.w	r0, r0, #3
2000199c:	1b02      	subs	r2, r0, r4
2000199e:	2a0f      	cmp	r2, #15
200019a0:	ddf2      	ble.n	20001988 <_malloc_r+0x170>
200019a2:	461d      	mov	r5, r3
200019a4:	191f      	adds	r7, r3, r4
200019a6:	f8d3 c00c 	ldr.w	ip, [r3, #12]
200019aa:	f044 0e01 	orr.w	lr, r4, #1
200019ae:	f855 4f08 	ldr.w	r4, [r5, #8]!
200019b2:	4630      	mov	r0, r6
200019b4:	50ba      	str	r2, [r7, r2]
200019b6:	f042 0201 	orr.w	r2, r2, #1
200019ba:	f8c3 e004 	str.w	lr, [r3, #4]
200019be:	f8cc 4008 	str.w	r4, [ip, #8]
200019c2:	f8c4 c00c 	str.w	ip, [r4, #12]
200019c6:	608f      	str	r7, [r1, #8]
200019c8:	60cf      	str	r7, [r1, #12]
200019ca:	607a      	str	r2, [r7, #4]
200019cc:	60b9      	str	r1, [r7, #8]
200019ce:	60f9      	str	r1, [r7, #12]
200019d0:	f000 f9f6 	bl	20001dc0 <__malloc_unlock>
200019d4:	e754      	b.n	20001880 <_malloc_r+0x68>
200019d6:	f1be 0f04 	cmp.w	lr, #4
200019da:	bf9e      	ittt	ls
200019dc:	ea4f 1e94 	movls.w	lr, r4, lsr #6
200019e0:	f10e 0e38 	addls.w	lr, lr, #56	; 0x38
200019e4:	ea4f 00ce 	movls.w	r0, lr, lsl #3
200019e8:	f67f af65 	bls.w	200018b6 <_malloc_r+0x9e>
200019ec:	f1be 0f14 	cmp.w	lr, #20
200019f0:	bf9c      	itt	ls
200019f2:	f10e 0e5b 	addls.w	lr, lr, #91	; 0x5b
200019f6:	ea4f 00ce 	movls.w	r0, lr, lsl #3
200019fa:	f67f af5c 	bls.w	200018b6 <_malloc_r+0x9e>
200019fe:	f1be 0f54 	cmp.w	lr, #84	; 0x54
20001a02:	bf9e      	ittt	ls
20001a04:	ea4f 3e14 	movls.w	lr, r4, lsr #12
20001a08:	f10e 0e6e 	addls.w	lr, lr, #110	; 0x6e
20001a0c:	ea4f 00ce 	movls.w	r0, lr, lsl #3
20001a10:	f67f af51 	bls.w	200018b6 <_malloc_r+0x9e>
20001a14:	f5be 7faa 	cmp.w	lr, #340	; 0x154
20001a18:	bf9e      	ittt	ls
20001a1a:	ea4f 3ed4 	movls.w	lr, r4, lsr #15
20001a1e:	f10e 0e77 	addls.w	lr, lr, #119	; 0x77
20001a22:	ea4f 00ce 	movls.w	r0, lr, lsl #3
20001a26:	f67f af46 	bls.w	200018b6 <_malloc_r+0x9e>
20001a2a:	f240 5354 	movw	r3, #1364	; 0x554
20001a2e:	459e      	cmp	lr, r3
20001a30:	bf95      	itete	ls
20001a32:	ea4f 4e94 	movls.w	lr, r4, lsr #18
20001a36:	f44f 707c 	movhi.w	r0, #1008	; 0x3f0
20001a3a:	f10e 0e7c 	addls.w	lr, lr, #124	; 0x7c
20001a3e:	f04f 0e7e 	movhi.w	lr, #126	; 0x7e
20001a42:	bf98      	it	ls
20001a44:	ea4f 00ce 	movls.w	r0, lr, lsl #3
20001a48:	e735      	b.n	200018b6 <_malloc_r+0x9e>
20001a4a:	eb03 020c 	add.w	r2, r3, ip
20001a4e:	f103 0508 	add.w	r5, r3, #8
20001a52:	4630      	mov	r0, r6
20001a54:	6853      	ldr	r3, [r2, #4]
20001a56:	f043 0301 	orr.w	r3, r3, #1
20001a5a:	6053      	str	r3, [r2, #4]
20001a5c:	f000 f9b0 	bl	20001dc0 <__malloc_unlock>
20001a60:	e70e      	b.n	20001880 <_malloc_r+0x68>
20001a62:	f8d7 8008 	ldr.w	r8, [r7, #8]
20001a66:	f8d8 3004 	ldr.w	r3, [r8, #4]
20001a6a:	f023 0903 	bic.w	r9, r3, #3
20001a6e:	ebc4 0209 	rsb	r2, r4, r9
20001a72:	454c      	cmp	r4, r9
20001a74:	bf94      	ite	ls
20001a76:	2300      	movls	r3, #0
20001a78:	2301      	movhi	r3, #1
20001a7a:	2a0f      	cmp	r2, #15
20001a7c:	bfd8      	it	le
20001a7e:	f043 0301 	orrle.w	r3, r3, #1
20001a82:	2b00      	cmp	r3, #0
20001a84:	f000 80a1 	beq.w	20001bca <_malloc_r+0x3b2>
20001a88:	f24b 1b50 	movw	fp, #45392	; 0xb150
20001a8c:	f8d5 2408 	ldr.w	r2, [r5, #1032]	; 0x408
20001a90:	f2c2 0b00 	movt	fp, #8192	; 0x2000
20001a94:	f8db 3000 	ldr.w	r3, [fp]
20001a98:	3310      	adds	r3, #16
20001a9a:	191b      	adds	r3, r3, r4
20001a9c:	f1b2 3fff 	cmp.w	r2, #4294967295
20001aa0:	d006      	beq.n	20001ab0 <_malloc_r+0x298>
20001aa2:	f503 637e 	add.w	r3, r3, #4064	; 0xfe0
20001aa6:	331f      	adds	r3, #31
20001aa8:	f423 637e 	bic.w	r3, r3, #4064	; 0xfe0
20001aac:	f023 031f 	bic.w	r3, r3, #31
20001ab0:	4619      	mov	r1, r3
20001ab2:	4630      	mov	r0, r6
20001ab4:	9301      	str	r3, [sp, #4]
20001ab6:	f000 fa0b 	bl	20001ed0 <_sbrk_r>
20001aba:	9b01      	ldr	r3, [sp, #4]
20001abc:	f1b0 3fff 	cmp.w	r0, #4294967295
20001ac0:	4682      	mov	sl, r0
20001ac2:	f000 80f4 	beq.w	20001cae <_malloc_r+0x496>
20001ac6:	eb08 0109 	add.w	r1, r8, r9
20001aca:	4281      	cmp	r1, r0
20001acc:	f200 80ec 	bhi.w	20001ca8 <_malloc_r+0x490>
20001ad0:	f8db 2004 	ldr.w	r2, [fp, #4]
20001ad4:	189a      	adds	r2, r3, r2
20001ad6:	4551      	cmp	r1, sl
20001ad8:	f8cb 2004 	str.w	r2, [fp, #4]
20001adc:	f000 8145 	beq.w	20001d6a <_malloc_r+0x552>
20001ae0:	f8d5 5408 	ldr.w	r5, [r5, #1032]	; 0x408
20001ae4:	f64a 40f0 	movw	r0, #44272	; 0xacf0
20001ae8:	f2c2 0000 	movt	r0, #8192	; 0x2000
20001aec:	f1b5 3fff 	cmp.w	r5, #4294967295
20001af0:	bf08      	it	eq
20001af2:	f8c0 a408 	streq.w	sl, [r0, #1032]	; 0x408
20001af6:	d003      	beq.n	20001b00 <_malloc_r+0x2e8>
20001af8:	4452      	add	r2, sl
20001afa:	1a51      	subs	r1, r2, r1
20001afc:	f8cb 1004 	str.w	r1, [fp, #4]
20001b00:	f01a 0507 	ands.w	r5, sl, #7
20001b04:	4630      	mov	r0, r6
20001b06:	bf17      	itett	ne
20001b08:	f1c5 0508 	rsbne	r5, r5, #8
20001b0c:	f44f 5580 	moveq.w	r5, #4096	; 0x1000
20001b10:	44aa      	addne	sl, r5
20001b12:	f505 5580 	addne.w	r5, r5, #4096	; 0x1000
20001b16:	4453      	add	r3, sl
20001b18:	051b      	lsls	r3, r3, #20
20001b1a:	0d1b      	lsrs	r3, r3, #20
20001b1c:	1aed      	subs	r5, r5, r3
20001b1e:	4629      	mov	r1, r5
20001b20:	f000 f9d6 	bl	20001ed0 <_sbrk_r>
20001b24:	f1b0 3fff 	cmp.w	r0, #4294967295
20001b28:	f000 812c 	beq.w	20001d84 <_malloc_r+0x56c>
20001b2c:	ebca 0100 	rsb	r1, sl, r0
20001b30:	1949      	adds	r1, r1, r5
20001b32:	f041 0101 	orr.w	r1, r1, #1
20001b36:	f8db 2004 	ldr.w	r2, [fp, #4]
20001b3a:	f24b 1350 	movw	r3, #45392	; 0xb150
20001b3e:	f8c7 a008 	str.w	sl, [r7, #8]
20001b42:	f2c2 0300 	movt	r3, #8192	; 0x2000
20001b46:	18aa      	adds	r2, r5, r2
20001b48:	45b8      	cmp	r8, r7
20001b4a:	f8cb 2004 	str.w	r2, [fp, #4]
20001b4e:	f8ca 1004 	str.w	r1, [sl, #4]
20001b52:	d017      	beq.n	20001b84 <_malloc_r+0x36c>
20001b54:	f1b9 0f0f 	cmp.w	r9, #15
20001b58:	f240 80df 	bls.w	20001d1a <_malloc_r+0x502>
20001b5c:	f1a9 010c 	sub.w	r1, r9, #12
20001b60:	2505      	movs	r5, #5
20001b62:	f021 0107 	bic.w	r1, r1, #7
20001b66:	eb08 0001 	add.w	r0, r8, r1
20001b6a:	290f      	cmp	r1, #15
20001b6c:	6085      	str	r5, [r0, #8]
20001b6e:	6045      	str	r5, [r0, #4]
20001b70:	f8d8 0004 	ldr.w	r0, [r8, #4]
20001b74:	f000 0001 	and.w	r0, r0, #1
20001b78:	ea41 0000 	orr.w	r0, r1, r0
20001b7c:	f8c8 0004 	str.w	r0, [r8, #4]
20001b80:	f200 80ac 	bhi.w	20001cdc <_malloc_r+0x4c4>
20001b84:	46d0      	mov	r8, sl
20001b86:	f24b 1350 	movw	r3, #45392	; 0xb150
20001b8a:	f8db 102c 	ldr.w	r1, [fp, #44]	; 0x2c
20001b8e:	f2c2 0300 	movt	r3, #8192	; 0x2000
20001b92:	428a      	cmp	r2, r1
20001b94:	f8db 1030 	ldr.w	r1, [fp, #48]	; 0x30
20001b98:	bf88      	it	hi
20001b9a:	62da      	strhi	r2, [r3, #44]	; 0x2c
20001b9c:	f24b 1350 	movw	r3, #45392	; 0xb150
20001ba0:	f2c2 0300 	movt	r3, #8192	; 0x2000
20001ba4:	428a      	cmp	r2, r1
20001ba6:	bf88      	it	hi
20001ba8:	631a      	strhi	r2, [r3, #48]	; 0x30
20001baa:	e082      	b.n	20001cb2 <_malloc_r+0x49a>
20001bac:	185c      	adds	r4, r3, r1
20001bae:	689a      	ldr	r2, [r3, #8]
20001bb0:	68d9      	ldr	r1, [r3, #12]
20001bb2:	4630      	mov	r0, r6
20001bb4:	6866      	ldr	r6, [r4, #4]
20001bb6:	f103 0508 	add.w	r5, r3, #8
20001bba:	608a      	str	r2, [r1, #8]
20001bbc:	f046 0301 	orr.w	r3, r6, #1
20001bc0:	60d1      	str	r1, [r2, #12]
20001bc2:	6063      	str	r3, [r4, #4]
20001bc4:	f000 f8fc 	bl	20001dc0 <__malloc_unlock>
20001bc8:	e65a      	b.n	20001880 <_malloc_r+0x68>
20001bca:	eb08 0304 	add.w	r3, r8, r4
20001bce:	f042 0201 	orr.w	r2, r2, #1
20001bd2:	f044 0401 	orr.w	r4, r4, #1
20001bd6:	4630      	mov	r0, r6
20001bd8:	f8c8 4004 	str.w	r4, [r8, #4]
20001bdc:	f108 0508 	add.w	r5, r8, #8
20001be0:	605a      	str	r2, [r3, #4]
20001be2:	60bb      	str	r3, [r7, #8]
20001be4:	f000 f8ec 	bl	20001dc0 <__malloc_unlock>
20001be8:	e64a      	b.n	20001880 <_malloc_r+0x68>
20001bea:	ea4f 225c 	mov.w	r2, ip, lsr #9
20001bee:	2a04      	cmp	r2, #4
20001bf0:	d954      	bls.n	20001c9c <_malloc_r+0x484>
20001bf2:	2a14      	cmp	r2, #20
20001bf4:	f200 8089 	bhi.w	20001d0a <_malloc_r+0x4f2>
20001bf8:	325b      	adds	r2, #91	; 0x5b
20001bfa:	ea4f 08c2 	mov.w	r8, r2, lsl #3
20001bfe:	44a8      	add	r8, r5
20001c00:	f64a 47f0 	movw	r7, #44272	; 0xacf0
20001c04:	f2c2 0700 	movt	r7, #8192	; 0x2000
20001c08:	f8d8 0008 	ldr.w	r0, [r8, #8]
20001c0c:	4540      	cmp	r0, r8
20001c0e:	d103      	bne.n	20001c18 <_malloc_r+0x400>
20001c10:	e06f      	b.n	20001cf2 <_malloc_r+0x4da>
20001c12:	6880      	ldr	r0, [r0, #8]
20001c14:	4580      	cmp	r8, r0
20001c16:	d004      	beq.n	20001c22 <_malloc_r+0x40a>
20001c18:	6842      	ldr	r2, [r0, #4]
20001c1a:	f022 0203 	bic.w	r2, r2, #3
20001c1e:	4594      	cmp	ip, r2
20001c20:	d3f7      	bcc.n	20001c12 <_malloc_r+0x3fa>
20001c22:	f8d0 c00c 	ldr.w	ip, [r0, #12]
20001c26:	f8c3 c00c 	str.w	ip, [r3, #12]
20001c2a:	6098      	str	r0, [r3, #8]
20001c2c:	687a      	ldr	r2, [r7, #4]
20001c2e:	60c3      	str	r3, [r0, #12]
20001c30:	f8cc 3008 	str.w	r3, [ip, #8]
20001c34:	e68a      	b.n	2000194c <_malloc_r+0x134>
20001c36:	191f      	adds	r7, r3, r4
20001c38:	4630      	mov	r0, r6
20001c3a:	f044 0401 	orr.w	r4, r4, #1
20001c3e:	60cf      	str	r7, [r1, #12]
20001c40:	605c      	str	r4, [r3, #4]
20001c42:	f103 0508 	add.w	r5, r3, #8
20001c46:	50ba      	str	r2, [r7, r2]
20001c48:	f042 0201 	orr.w	r2, r2, #1
20001c4c:	608f      	str	r7, [r1, #8]
20001c4e:	607a      	str	r2, [r7, #4]
20001c50:	60b9      	str	r1, [r7, #8]
20001c52:	60f9      	str	r1, [r7, #12]
20001c54:	f000 f8b4 	bl	20001dc0 <__malloc_unlock>
20001c58:	e612      	b.n	20001880 <_malloc_r+0x68>
20001c5a:	f10a 0a01 	add.w	sl, sl, #1
20001c5e:	f01a 0f03 	tst.w	sl, #3
20001c62:	d05f      	beq.n	20001d24 <_malloc_r+0x50c>
20001c64:	f103 0808 	add.w	r8, r3, #8
20001c68:	e689      	b.n	2000197e <_malloc_r+0x166>
20001c6a:	f103 0208 	add.w	r2, r3, #8
20001c6e:	68d3      	ldr	r3, [r2, #12]
20001c70:	429a      	cmp	r2, r3
20001c72:	bf08      	it	eq
20001c74:	f10e 0e02 	addeq.w	lr, lr, #2
20001c78:	f43f ae36 	beq.w	200018e8 <_malloc_r+0xd0>
20001c7c:	e5ef      	b.n	2000185e <_malloc_r+0x46>
20001c7e:	461d      	mov	r5, r3
20001c80:	1819      	adds	r1, r3, r0
20001c82:	68da      	ldr	r2, [r3, #12]
20001c84:	4630      	mov	r0, r6
20001c86:	f855 3f08 	ldr.w	r3, [r5, #8]!
20001c8a:	684c      	ldr	r4, [r1, #4]
20001c8c:	6093      	str	r3, [r2, #8]
20001c8e:	f044 0401 	orr.w	r4, r4, #1
20001c92:	60da      	str	r2, [r3, #12]
20001c94:	604c      	str	r4, [r1, #4]
20001c96:	f000 f893 	bl	20001dc0 <__malloc_unlock>
20001c9a:	e5f1      	b.n	20001880 <_malloc_r+0x68>
20001c9c:	ea4f 129c 	mov.w	r2, ip, lsr #6
20001ca0:	3238      	adds	r2, #56	; 0x38
20001ca2:	ea4f 08c2 	mov.w	r8, r2, lsl #3
20001ca6:	e7aa      	b.n	20001bfe <_malloc_r+0x3e6>
20001ca8:	45b8      	cmp	r8, r7
20001caa:	f43f af11 	beq.w	20001ad0 <_malloc_r+0x2b8>
20001cae:	f8d7 8008 	ldr.w	r8, [r7, #8]
20001cb2:	f8d8 2004 	ldr.w	r2, [r8, #4]
20001cb6:	f022 0203 	bic.w	r2, r2, #3
20001cba:	4294      	cmp	r4, r2
20001cbc:	bf94      	ite	ls
20001cbe:	2300      	movls	r3, #0
20001cc0:	2301      	movhi	r3, #1
20001cc2:	1b12      	subs	r2, r2, r4
20001cc4:	2a0f      	cmp	r2, #15
20001cc6:	bfd8      	it	le
20001cc8:	f043 0301 	orrle.w	r3, r3, #1
20001ccc:	2b00      	cmp	r3, #0
20001cce:	f43f af7c 	beq.w	20001bca <_malloc_r+0x3b2>
20001cd2:	4630      	mov	r0, r6
20001cd4:	2500      	movs	r5, #0
20001cd6:	f000 f873 	bl	20001dc0 <__malloc_unlock>
20001cda:	e5d1      	b.n	20001880 <_malloc_r+0x68>
20001cdc:	f108 0108 	add.w	r1, r8, #8
20001ce0:	4630      	mov	r0, r6
20001ce2:	9301      	str	r3, [sp, #4]
20001ce4:	f001 fce2 	bl	200036ac <_free_r>
20001ce8:	9b01      	ldr	r3, [sp, #4]
20001cea:	f8d7 8008 	ldr.w	r8, [r7, #8]
20001cee:	685a      	ldr	r2, [r3, #4]
20001cf0:	e749      	b.n	20001b86 <_malloc_r+0x36e>
20001cf2:	f04f 0a01 	mov.w	sl, #1
20001cf6:	f8d7 8004 	ldr.w	r8, [r7, #4]
20001cfa:	1092      	asrs	r2, r2, #2
20001cfc:	4684      	mov	ip, r0
20001cfe:	fa0a f202 	lsl.w	r2, sl, r2
20001d02:	ea48 0202 	orr.w	r2, r8, r2
20001d06:	607a      	str	r2, [r7, #4]
20001d08:	e78d      	b.n	20001c26 <_malloc_r+0x40e>
20001d0a:	2a54      	cmp	r2, #84	; 0x54
20001d0c:	d824      	bhi.n	20001d58 <_malloc_r+0x540>
20001d0e:	ea4f 321c 	mov.w	r2, ip, lsr #12
20001d12:	326e      	adds	r2, #110	; 0x6e
20001d14:	ea4f 08c2 	mov.w	r8, r2, lsl #3
20001d18:	e771      	b.n	20001bfe <_malloc_r+0x3e6>
20001d1a:	2301      	movs	r3, #1
20001d1c:	46d0      	mov	r8, sl
20001d1e:	f8ca 3004 	str.w	r3, [sl, #4]
20001d22:	e7c6      	b.n	20001cb2 <_malloc_r+0x49a>
20001d24:	464a      	mov	r2, r9
20001d26:	f01e 0f03 	tst.w	lr, #3
20001d2a:	4613      	mov	r3, r2
20001d2c:	f10e 3eff 	add.w	lr, lr, #4294967295
20001d30:	d033      	beq.n	20001d9a <_malloc_r+0x582>
20001d32:	f853 2908 	ldr.w	r2, [r3], #-8
20001d36:	429a      	cmp	r2, r3
20001d38:	d0f5      	beq.n	20001d26 <_malloc_r+0x50e>
20001d3a:	687b      	ldr	r3, [r7, #4]
20001d3c:	ea4f 0c4c 	mov.w	ip, ip, lsl #1
20001d40:	459c      	cmp	ip, r3
20001d42:	f63f ae8e 	bhi.w	20001a62 <_malloc_r+0x24a>
20001d46:	f1bc 0f00 	cmp.w	ip, #0
20001d4a:	f43f ae8a 	beq.w	20001a62 <_malloc_r+0x24a>
20001d4e:	ea1c 0f03 	tst.w	ip, r3
20001d52:	d027      	beq.n	20001da4 <_malloc_r+0x58c>
20001d54:	46d6      	mov	lr, sl
20001d56:	e60e      	b.n	20001976 <_malloc_r+0x15e>
20001d58:	f5b2 7faa 	cmp.w	r2, #340	; 0x154
20001d5c:	d815      	bhi.n	20001d8a <_malloc_r+0x572>
20001d5e:	ea4f 32dc 	mov.w	r2, ip, lsr #15
20001d62:	3277      	adds	r2, #119	; 0x77
20001d64:	ea4f 08c2 	mov.w	r8, r2, lsl #3
20001d68:	e749      	b.n	20001bfe <_malloc_r+0x3e6>
20001d6a:	0508      	lsls	r0, r1, #20
20001d6c:	0d00      	lsrs	r0, r0, #20
20001d6e:	2800      	cmp	r0, #0
20001d70:	f47f aeb6 	bne.w	20001ae0 <_malloc_r+0x2c8>
20001d74:	f8d7 8008 	ldr.w	r8, [r7, #8]
20001d78:	444b      	add	r3, r9
20001d7a:	f043 0301 	orr.w	r3, r3, #1
20001d7e:	f8c8 3004 	str.w	r3, [r8, #4]
20001d82:	e700      	b.n	20001b86 <_malloc_r+0x36e>
20001d84:	2101      	movs	r1, #1
20001d86:	2500      	movs	r5, #0
20001d88:	e6d5      	b.n	20001b36 <_malloc_r+0x31e>
20001d8a:	f240 5054 	movw	r0, #1364	; 0x554
20001d8e:	4282      	cmp	r2, r0
20001d90:	d90d      	bls.n	20001dae <_malloc_r+0x596>
20001d92:	f44f 787c 	mov.w	r8, #1008	; 0x3f0
20001d96:	227e      	movs	r2, #126	; 0x7e
20001d98:	e731      	b.n	20001bfe <_malloc_r+0x3e6>
20001d9a:	687b      	ldr	r3, [r7, #4]
20001d9c:	ea23 030c 	bic.w	r3, r3, ip
20001da0:	607b      	str	r3, [r7, #4]
20001da2:	e7cb      	b.n	20001d3c <_malloc_r+0x524>
20001da4:	ea4f 0c4c 	mov.w	ip, ip, lsl #1
20001da8:	f10a 0a04 	add.w	sl, sl, #4
20001dac:	e7cf      	b.n	20001d4e <_malloc_r+0x536>
20001dae:	ea4f 429c 	mov.w	r2, ip, lsr #18
20001db2:	327c      	adds	r2, #124	; 0x7c
20001db4:	ea4f 08c2 	mov.w	r8, r2, lsl #3
20001db8:	e721      	b.n	20001bfe <_malloc_r+0x3e6>
20001dba:	bf00      	nop

20001dbc <__malloc_lock>:
20001dbc:	4770      	bx	lr
20001dbe:	bf00      	nop

20001dc0 <__malloc_unlock>:
20001dc0:	4770      	bx	lr
20001dc2:	bf00      	nop
20001dc4:	0000      	lsls	r0, r0, #0
	...

20001dc8 <rand>:
20001dc8:	b538      	push	{r3, r4, r5, lr}
20001dca:	f64a 34fc 	movw	r4, #44028	; 0xabfc
20001dce:	f2c2 0400 	movt	r4, #8192	; 0x2000
20001dd2:	6825      	ldr	r5, [r4, #0]
20001dd4:	6ba8      	ldr	r0, [r5, #56]	; 0x38
20001dd6:	b1d8      	cbz	r0, 20001e10 <rand+0x48>
20001dd8:	6904      	ldr	r4, [r0, #16]
20001dda:	f24f 4c2d 	movw	ip, #62509	; 0xf42d
20001dde:	6945      	ldr	r5, [r0, #20]
20001de0:	f6c5 0c51 	movt	ip, #22609	; 0x5851
20001de4:	f647 712d 	movw	r1, #32557	; 0x7f2d
20001de8:	2201      	movs	r2, #1
20001dea:	f6c4 4195 	movt	r1, #19605	; 0x4c95
20001dee:	2300      	movs	r3, #0
20001df0:	fb04 fc0c 	mul.w	ip, r4, ip
20001df4:	fb05 cc01 	mla	ip, r5, r1, ip
20001df8:	fba1 4504 	umull	r4, r5, r1, r4
20001dfc:	1912      	adds	r2, r2, r4
20001dfe:	4465      	add	r5, ip
20001e00:	eb43 0305 	adc.w	r3, r3, r5
20001e04:	e9c0 2304 	strd	r2, r3, [r0, #16]
20001e08:	f023 4100 	bic.w	r1, r3, #2147483648	; 0x80000000
20001e0c:	4608      	mov	r0, r1
20001e0e:	bd38      	pop	{r3, r4, r5, pc}
20001e10:	2018      	movs	r0, #24
20001e12:	f7ff fcf9 	bl	20001808 <malloc>
20001e16:	6824      	ldr	r4, [r4, #0]
20001e18:	a313      	add	r3, pc, #76	; (adr r3, 20001e68 <rand+0xa0>)
20001e1a:	e9d3 2300 	ldrd	r2, r3, [r3]
20001e1e:	f24f 412d 	movw	r1, #62509	; 0xf42d
20001e22:	f6c5 0151 	movt	r1, #22609	; 0x5851
20001e26:	f241 2c34 	movw	ip, #4660	; 0x1234
20001e2a:	63a8      	str	r0, [r5, #56]	; 0x38
20001e2c:	f64a 35cd 	movw	r5, #43981	; 0xabcd
20001e30:	6ba0      	ldr	r0, [r4, #56]	; 0x38
20001e32:	f243 340e 	movw	r4, #13070	; 0x330e
20001e36:	8045      	strh	r5, [r0, #2]
20001e38:	f64d 65ec 	movw	r5, #57068	; 0xdeec
20001e3c:	8004      	strh	r4, [r0, #0]
20001e3e:	f24e 646d 	movw	r4, #58989	; 0xe66d
20001e42:	f8a0 c004 	strh.w	ip, [r0, #4]
20001e46:	f04f 0c05 	mov.w	ip, #5
20001e4a:	80c4      	strh	r4, [r0, #6]
20001e4c:	f04f 040b 	mov.w	r4, #11
20001e50:	8105      	strh	r5, [r0, #8]
20001e52:	2500      	movs	r5, #0
20001e54:	8184      	strh	r4, [r0, #12]
20001e56:	2401      	movs	r4, #1
20001e58:	f8a0 c00a 	strh.w	ip, [r0, #10]
20001e5c:	e9c0 4504 	strd	r4, r5, [r0, #16]
20001e60:	e9c0 2304 	strd	r2, r3, [r0, #16]
20001e64:	4608      	mov	r0, r1
20001e66:	bd38      	pop	{r3, r4, r5, pc}
20001e68:	4c957f2e 	.word	0x4c957f2e
20001e6c:	5851f42d 	.word	0x5851f42d

20001e70 <srand>:
20001e70:	b570      	push	{r4, r5, r6, lr}
20001e72:	f64a 34fc 	movw	r4, #44028	; 0xabfc
20001e76:	f2c2 0400 	movt	r4, #8192	; 0x2000
20001e7a:	4606      	mov	r6, r0
20001e7c:	6825      	ldr	r5, [r4, #0]
20001e7e:	6bab      	ldr	r3, [r5, #56]	; 0x38
20001e80:	b11b      	cbz	r3, 20001e8a <srand+0x1a>
20001e82:	2200      	movs	r2, #0
20001e84:	611e      	str	r6, [r3, #16]
20001e86:	615a      	str	r2, [r3, #20]
20001e88:	bd70      	pop	{r4, r5, r6, pc}
20001e8a:	2018      	movs	r0, #24
20001e8c:	f7ff fcbc 	bl	20001808 <malloc>
20001e90:	6823      	ldr	r3, [r4, #0]
20001e92:	f64a 31cd 	movw	r1, #43981	; 0xabcd
20001e96:	f241 2234 	movw	r2, #4660	; 0x1234
20001e9a:	63a8      	str	r0, [r5, #56]	; 0x38
20001e9c:	f243 300e 	movw	r0, #13070	; 0x330e
20001ea0:	6b9b      	ldr	r3, [r3, #56]	; 0x38
20001ea2:	8018      	strh	r0, [r3, #0]
20001ea4:	f24e 606d 	movw	r0, #58989	; 0xe66d
20001ea8:	8059      	strh	r1, [r3, #2]
20001eaa:	f64d 61ec 	movw	r1, #57068	; 0xdeec
20001eae:	809a      	strh	r2, [r3, #4]
20001eb0:	f04f 0205 	mov.w	r2, #5
20001eb4:	80d8      	strh	r0, [r3, #6]
20001eb6:	f04f 000b 	mov.w	r0, #11
20001eba:	8119      	strh	r1, [r3, #8]
20001ebc:	2100      	movs	r1, #0
20001ebe:	815a      	strh	r2, [r3, #10]
20001ec0:	2200      	movs	r2, #0
20001ec2:	8198      	strh	r0, [r3, #12]
20001ec4:	2001      	movs	r0, #1
20001ec6:	e9c3 0104 	strd	r0, r1, [r3, #16]
20001eca:	611e      	str	r6, [r3, #16]
20001ecc:	615a      	str	r2, [r3, #20]
20001ece:	bd70      	pop	{r4, r5, r6, pc}

20001ed0 <_sbrk_r>:
20001ed0:	b538      	push	{r3, r4, r5, lr}
20001ed2:	f24b 14dc 	movw	r4, #45532	; 0xb1dc
20001ed6:	f2c2 0400 	movt	r4, #8192	; 0x2000
20001eda:	4605      	mov	r5, r0
20001edc:	4608      	mov	r0, r1
20001ede:	2300      	movs	r3, #0
20001ee0:	6023      	str	r3, [r4, #0]
20001ee2:	f7fe ff3f 	bl	20000d64 <_sbrk>
20001ee6:	f1b0 3fff 	cmp.w	r0, #4294967295
20001eea:	d000      	beq.n	20001eee <_sbrk_r+0x1e>
20001eec:	bd38      	pop	{r3, r4, r5, pc}
20001eee:	6823      	ldr	r3, [r4, #0]
20001ef0:	2b00      	cmp	r3, #0
20001ef2:	d0fb      	beq.n	20001eec <_sbrk_r+0x1c>
20001ef4:	602b      	str	r3, [r5, #0]
20001ef6:	bd38      	pop	{r3, r4, r5, pc}

20001ef8 <eofread>:
20001ef8:	2000      	movs	r0, #0
20001efa:	4770      	bx	lr

20001efc <_sscanf_r>:
20001efc:	b40c      	push	{r2, r3}
20001efe:	f44f 7301 	mov.w	r3, #516	; 0x204
20001f02:	b5f0      	push	{r4, r5, r6, r7, lr}
20001f04:	b09d      	sub	sp, #116	; 0x74
20001f06:	ac22      	add	r4, sp, #136	; 0x88
20001f08:	4605      	mov	r5, r0
20001f0a:	4608      	mov	r0, r1
20001f0c:	f8ad 3010 	strh.w	r3, [sp, #16]
20001f10:	f854 7b04 	ldr.w	r7, [r4], #4
20001f14:	9101      	str	r1, [sp, #4]
20001f16:	9105      	str	r1, [sp, #20]
20001f18:	f000 f84a 	bl	20001fb0 <strlen>
20001f1c:	463a      	mov	r2, r7
20001f1e:	4623      	mov	r3, r4
20001f20:	a901      	add	r1, sp, #4
20001f22:	f04f 3cff 	mov.w	ip, #4294967295
20001f26:	941b      	str	r4, [sp, #108]	; 0x6c
20001f28:	f8ad c012 	strh.w	ip, [sp, #18]
20001f2c:	4606      	mov	r6, r0
20001f2e:	4628      	mov	r0, r5
20001f30:	f641 65f9 	movw	r5, #7929	; 0x1ef9
20001f34:	9606      	str	r6, [sp, #24]
20001f36:	f2c2 0500 	movt	r5, #8192	; 0x2000
20001f3a:	9602      	str	r6, [sp, #8]
20001f3c:	950a      	str	r5, [sp, #40]	; 0x28
20001f3e:	2500      	movs	r5, #0
20001f40:	9513      	str	r5, [sp, #76]	; 0x4c
20001f42:	950e      	str	r5, [sp, #56]	; 0x38
20001f44:	f000 f8ca 	bl	200020dc <__ssvfscanf_r>
20001f48:	b01d      	add	sp, #116	; 0x74
20001f4a:	e8bd 40f0 	ldmia.w	sp!, {r4, r5, r6, r7, lr}
20001f4e:	b002      	add	sp, #8
20001f50:	4770      	bx	lr
20001f52:	bf00      	nop

20001f54 <sscanf>:
20001f54:	b40e      	push	{r1, r2, r3}
20001f56:	f44f 7301 	mov.w	r3, #516	; 0x204
20001f5a:	b570      	push	{r4, r5, r6, lr}
20001f5c:	b09d      	sub	sp, #116	; 0x74
20001f5e:	ac21      	add	r4, sp, #132	; 0x84
20001f60:	f8ad 3010 	strh.w	r3, [sp, #16]
20001f64:	f854 5b04 	ldr.w	r5, [r4], #4
20001f68:	9005      	str	r0, [sp, #20]
20001f6a:	9001      	str	r0, [sp, #4]
20001f6c:	f000 f820 	bl	20001fb0 <strlen>
20001f70:	f64a 31fc 	movw	r1, #44028	; 0xabfc
20001f74:	462a      	mov	r2, r5
20001f76:	f2c2 0100 	movt	r1, #8192	; 0x2000
20001f7a:	4623      	mov	r3, r4
20001f7c:	f641 65f9 	movw	r5, #7929	; 0x1ef9
20001f80:	f04f 3cff 	mov.w	ip, #4294967295
20001f84:	f2c2 0500 	movt	r5, #8192	; 0x2000
20001f88:	f8ad c012 	strh.w	ip, [sp, #18]
20001f8c:	950a      	str	r5, [sp, #40]	; 0x28
20001f8e:	2500      	movs	r5, #0
20001f90:	941b      	str	r4, [sp, #108]	; 0x6c
20001f92:	9513      	str	r5, [sp, #76]	; 0x4c
20001f94:	950e      	str	r5, [sp, #56]	; 0x38
20001f96:	4606      	mov	r6, r0
20001f98:	6808      	ldr	r0, [r1, #0]
20001f9a:	a901      	add	r1, sp, #4
20001f9c:	9606      	str	r6, [sp, #24]
20001f9e:	9602      	str	r6, [sp, #8]
20001fa0:	f000 f89c 	bl	200020dc <__ssvfscanf_r>
20001fa4:	b01d      	add	sp, #116	; 0x74
20001fa6:	e8bd 4070 	ldmia.w	sp!, {r4, r5, r6, lr}
20001faa:	b003      	add	sp, #12
20001fac:	4770      	bx	lr
20001fae:	bf00      	nop

20001fb0 <strlen>:
20001fb0:	f020 0103 	bic.w	r1, r0, #3
20001fb4:	f010 0003 	ands.w	r0, r0, #3
20001fb8:	f1c0 0000 	rsb	r0, r0, #0
20001fbc:	f851 3b04 	ldr.w	r3, [r1], #4
20001fc0:	f100 0c04 	add.w	ip, r0, #4
20001fc4:	ea4f 0ccc 	mov.w	ip, ip, lsl #3
20001fc8:	f06f 0200 	mvn.w	r2, #0
20001fcc:	bf1c      	itt	ne
20001fce:	fa22 f20c 	lsrne.w	r2, r2, ip
20001fd2:	4313      	orrne	r3, r2
20001fd4:	f04f 0c01 	mov.w	ip, #1
20001fd8:	ea4c 2c0c 	orr.w	ip, ip, ip, lsl #8
20001fdc:	ea4c 4c0c 	orr.w	ip, ip, ip, lsl #16
20001fe0:	eba3 020c 	sub.w	r2, r3, ip
20001fe4:	ea22 0203 	bic.w	r2, r2, r3
20001fe8:	ea12 12cc 	ands.w	r2, r2, ip, lsl #7
20001fec:	bf04      	itt	eq
20001fee:	f851 3b04 	ldreq.w	r3, [r1], #4
20001ff2:	3004      	addeq	r0, #4
20001ff4:	d0f4      	beq.n	20001fe0 <strlen+0x30>
20001ff6:	f013 0fff 	tst.w	r3, #255	; 0xff
20001ffa:	bf1f      	itttt	ne
20001ffc:	3001      	addne	r0, #1
20001ffe:	f413 4f7f 	tstne.w	r3, #65280	; 0xff00
20002002:	3001      	addne	r0, #1
20002004:	f413 0f7f 	tstne.w	r3, #16711680	; 0xff0000
20002008:	bf18      	it	ne
2000200a:	3001      	addne	r0, #1
2000200c:	4770      	bx	lr
2000200e:	bf00      	nop

20002010 <__ssrefill_r>:
20002010:	b510      	push	{r4, lr}
20002012:	460c      	mov	r4, r1
20002014:	6b49      	ldr	r1, [r1, #52]	; 0x34
20002016:	b169      	cbz	r1, 20002034 <__ssrefill_r+0x24>
20002018:	f104 0344 	add.w	r3, r4, #68	; 0x44
2000201c:	4299      	cmp	r1, r3
2000201e:	d001      	beq.n	20002024 <__ssrefill_r+0x14>
20002020:	f001 fb44 	bl	200036ac <_free_r>
20002024:	6c23      	ldr	r3, [r4, #64]	; 0x40
20002026:	2000      	movs	r0, #0
20002028:	6360      	str	r0, [r4, #52]	; 0x34
2000202a:	6063      	str	r3, [r4, #4]
2000202c:	b113      	cbz	r3, 20002034 <__ssrefill_r+0x24>
2000202e:	6be3      	ldr	r3, [r4, #60]	; 0x3c
20002030:	6023      	str	r3, [r4, #0]
20002032:	bd10      	pop	{r4, pc}
20002034:	6922      	ldr	r2, [r4, #16]
20002036:	2100      	movs	r1, #0
20002038:	89a3      	ldrh	r3, [r4, #12]
2000203a:	f04f 30ff 	mov.w	r0, #4294967295
2000203e:	6061      	str	r1, [r4, #4]
20002040:	f043 0320 	orr.w	r3, r3, #32
20002044:	6022      	str	r2, [r4, #0]
20002046:	81a3      	strh	r3, [r4, #12]
20002048:	bd10      	pop	{r4, pc}
2000204a:	bf00      	nop

2000204c <_sungetc_r>:
2000204c:	f1b1 3fff 	cmp.w	r1, #4294967295
20002050:	b530      	push	{r4, r5, lr}
20002052:	b083      	sub	sp, #12
20002054:	d014      	beq.n	20002080 <_sungetc_r+0x34>
20002056:	f8b2 c00c 	ldrh.w	ip, [r2, #12]
2000205a:	b2cc      	uxtb	r4, r1
2000205c:	6b53      	ldr	r3, [r2, #52]	; 0x34
2000205e:	f02c 0120 	bic.w	r1, ip, #32
20002062:	8191      	strh	r1, [r2, #12]
20002064:	b17b      	cbz	r3, 20002086 <_sungetc_r+0x3a>
20002066:	6851      	ldr	r1, [r2, #4]
20002068:	6b93      	ldr	r3, [r2, #56]	; 0x38
2000206a:	4299      	cmp	r1, r3
2000206c:	da2c      	bge.n	200020c8 <_sungetc_r+0x7c>
2000206e:	6813      	ldr	r3, [r2, #0]
20002070:	4621      	mov	r1, r4
20002072:	1e58      	subs	r0, r3, #1
20002074:	6010      	str	r0, [r2, #0]
20002076:	f803 4c01 	strb.w	r4, [r3, #-1]
2000207a:	6853      	ldr	r3, [r2, #4]
2000207c:	3301      	adds	r3, #1
2000207e:	6053      	str	r3, [r2, #4]
20002080:	4608      	mov	r0, r1
20002082:	b003      	add	sp, #12
20002084:	bd30      	pop	{r4, r5, pc}
20002086:	6913      	ldr	r3, [r2, #16]
20002088:	b1e3      	cbz	r3, 200020c4 <_sungetc_r+0x78>
2000208a:	6810      	ldr	r0, [r2, #0]
2000208c:	4283      	cmp	r3, r0
2000208e:	d204      	bcs.n	2000209a <_sungetc_r+0x4e>
20002090:	f810 1c01 	ldrb.w	r1, [r0, #-1]
20002094:	1e43      	subs	r3, r0, #1
20002096:	42a1      	cmp	r1, r4
20002098:	d00f      	beq.n	200020ba <_sungetc_r+0x6e>
2000209a:	6855      	ldr	r5, [r2, #4]
2000209c:	4613      	mov	r3, r2
2000209e:	63d0      	str	r0, [r2, #60]	; 0x3c
200020a0:	4621      	mov	r1, r4
200020a2:	f102 0044 	add.w	r0, r2, #68	; 0x44
200020a6:	f803 4f46 	strb.w	r4, [r3, #70]!
200020aa:	6350      	str	r0, [r2, #52]	; 0x34
200020ac:	2003      	movs	r0, #3
200020ae:	6415      	str	r5, [r2, #64]	; 0x40
200020b0:	6390      	str	r0, [r2, #56]	; 0x38
200020b2:	2001      	movs	r0, #1
200020b4:	6013      	str	r3, [r2, #0]
200020b6:	6050      	str	r0, [r2, #4]
200020b8:	e7e2      	b.n	20002080 <_sungetc_r+0x34>
200020ba:	6850      	ldr	r0, [r2, #4]
200020bc:	6013      	str	r3, [r2, #0]
200020be:	1c43      	adds	r3, r0, #1
200020c0:	6053      	str	r3, [r2, #4]
200020c2:	e7dd      	b.n	20002080 <_sungetc_r+0x34>
200020c4:	6810      	ldr	r0, [r2, #0]
200020c6:	e7e8      	b.n	2000209a <_sungetc_r+0x4e>
200020c8:	4611      	mov	r1, r2
200020ca:	9201      	str	r2, [sp, #4]
200020cc:	f001 f81c 	bl	20003108 <__submore>
200020d0:	9a01      	ldr	r2, [sp, #4]
200020d2:	2800      	cmp	r0, #0
200020d4:	d0cb      	beq.n	2000206e <_sungetc_r+0x22>
200020d6:	f04f 31ff 	mov.w	r1, #4294967295
200020da:	e7d1      	b.n	20002080 <_sungetc_r+0x34>

200020dc <__ssvfscanf_r>:
200020dc:	e92d 4ff0 	stmdb	sp!, {r4, r5, r6, r7, r8, r9, sl, fp, lr}
200020e0:	f5ad 7d2f 	sub.w	sp, sp, #700	; 0x2bc
200020e4:	460c      	mov	r4, r1
200020e6:	4617      	mov	r7, r2
200020e8:	4680      	mov	r8, r0
200020ea:	9309      	str	r3, [sp, #36]	; 0x24
200020ec:	f001 f9a6 	bl	2000343c <__sfp_lock_acquire>
200020f0:	89a3      	ldrh	r3, [r4, #12]
200020f2:	f24b 1108 	movw	r1, #45320	; 0xb108
200020f6:	f413 5f00 	tst.w	r3, #8192	; 0x2000
200020fa:	f2c2 0100 	movt	r1, #8192	; 0x2000
200020fe:	bf02      	ittt	eq
20002100:	f443 5300 	orreq.w	r3, r3, #8192	; 0x2000
20002104:	81a3      	strheq	r3, [r4, #12]
20002106:	6e62      	ldreq	r2, [r4, #100]	; 0x64
20002108:	910d      	str	r1, [sp, #52]	; 0x34
2000210a:	bf04      	itt	eq
2000210c:	f422 5300 	biceq.w	r3, r2, #8192	; 0x2000
20002110:	6663      	streq	r3, [r4, #100]	; 0x64
20002112:	2000      	movs	r0, #0
20002114:	aa67      	add	r2, sp, #412	; 0x19c
20002116:	4605      	mov	r5, r0
20002118:	3203      	adds	r2, #3
2000211a:	900a      	str	r0, [sp, #40]	; 0x28
2000211c:	900c      	str	r0, [sp, #48]	; 0x30
2000211e:	900b      	str	r0, [sp, #44]	; 0x2c
20002120:	9203      	str	r2, [sp, #12]
20002122:	783a      	ldrb	r2, [r7, #0]
20002124:	92ad      	str	r2, [sp, #692]	; 0x2b4
20002126:	b33a      	cbz	r2, 20002178 <__ssvfscanf_r+0x9c>
20002128:	f24b 1604 	movw	r6, #45316	; 0xb104
2000212c:	3701      	adds	r7, #1
2000212e:	f2c2 0600 	movt	r6, #8192	; 0x2000
20002132:	6833      	ldr	r3, [r6, #0]
20002134:	1899      	adds	r1, r3, r2
20002136:	f891 9001 	ldrb.w	r9, [r1, #1]
2000213a:	f019 0908 	ands.w	r9, r9, #8
2000213e:	d023      	beq.n	20002188 <__ssvfscanf_r+0xac>
20002140:	6863      	ldr	r3, [r4, #4]
20002142:	e00d      	b.n	20002160 <__ssvfscanf_r+0x84>
20002144:	6823      	ldr	r3, [r4, #0]
20002146:	6831      	ldr	r1, [r6, #0]
20002148:	1c5a      	adds	r2, r3, #1
2000214a:	781b      	ldrb	r3, [r3, #0]
2000214c:	185b      	adds	r3, r3, r1
2000214e:	785b      	ldrb	r3, [r3, #1]
20002150:	f013 0f08 	tst.w	r3, #8
20002154:	d0e5      	beq.n	20002122 <__ssvfscanf_r+0x46>
20002156:	6863      	ldr	r3, [r4, #4]
20002158:	3501      	adds	r5, #1
2000215a:	6022      	str	r2, [r4, #0]
2000215c:	3b01      	subs	r3, #1
2000215e:	6063      	str	r3, [r4, #4]
20002160:	2b00      	cmp	r3, #0
20002162:	dcef      	bgt.n	20002144 <__ssvfscanf_r+0x68>
20002164:	4640      	mov	r0, r8
20002166:	4621      	mov	r1, r4
20002168:	f7ff ff52 	bl	20002010 <__ssrefill_r>
2000216c:	2800      	cmp	r0, #0
2000216e:	d0e9      	beq.n	20002144 <__ssvfscanf_r+0x68>
20002170:	783a      	ldrb	r2, [r7, #0]
20002172:	92ad      	str	r2, [sp, #692]	; 0x2b4
20002174:	2a00      	cmp	r2, #0
20002176:	d1d7      	bne.n	20002128 <__ssvfscanf_r+0x4c>
20002178:	9d0c      	ldr	r5, [sp, #48]	; 0x30
2000217a:	f001 f961 	bl	20003440 <__sfp_lock_release>
2000217e:	4628      	mov	r0, r5
20002180:	f50d 7d2f 	add.w	sp, sp, #700	; 0x2bc
20002184:	e8bd 8ff0 	ldmia.w	sp!, {r4, r5, r6, r7, r8, r9, sl, fp, pc}
20002188:	2a25      	cmp	r2, #37	; 0x25
2000218a:	d010      	beq.n	200021ae <__ssvfscanf_r+0xd2>
2000218c:	6863      	ldr	r3, [r4, #4]
2000218e:	2b00      	cmp	r3, #0
20002190:	f340 810a 	ble.w	200023a8 <__ssvfscanf_r+0x2cc>
20002194:	6823      	ldr	r3, [r4, #0]
20002196:	f817 2c01 	ldrb.w	r2, [r7, #-1]
2000219a:	7819      	ldrb	r1, [r3, #0]
2000219c:	4291      	cmp	r1, r2
2000219e:	d1eb      	bne.n	20002178 <__ssvfscanf_r+0x9c>
200021a0:	6862      	ldr	r2, [r4, #4]
200021a2:	3301      	adds	r3, #1
200021a4:	3501      	adds	r5, #1
200021a6:	6023      	str	r3, [r4, #0]
200021a8:	1e53      	subs	r3, r2, #1
200021aa:	6063      	str	r3, [r4, #4]
200021ac:	e7b9      	b.n	20002122 <__ssvfscanf_r+0x46>
200021ae:	783a      	ldrb	r2, [r7, #0]
200021b0:	46cb      	mov	fp, r9
200021b2:	210a      	movs	r1, #10
200021b4:	3701      	adds	r7, #1
200021b6:	2a78      	cmp	r2, #120	; 0x78
200021b8:	f200 83c4 	bhi.w	20002944 <__ssvfscanf_r+0x868>
200021bc:	f20f 0c04 	addw	ip, pc, #4
200021c0:	f85c f022 	ldr.w	pc, [ip, r2, lsl #2]
200021c4:	20002969 	.word	0x20002969
200021c8:	20002945 	.word	0x20002945
200021cc:	20002945 	.word	0x20002945
200021d0:	20002945 	.word	0x20002945
200021d4:	20002945 	.word	0x20002945
200021d8:	20002945 	.word	0x20002945
200021dc:	20002945 	.word	0x20002945
200021e0:	20002945 	.word	0x20002945
200021e4:	20002945 	.word	0x20002945
200021e8:	20002945 	.word	0x20002945
200021ec:	20002945 	.word	0x20002945
200021f0:	20002945 	.word	0x20002945
200021f4:	20002945 	.word	0x20002945
200021f8:	20002945 	.word	0x20002945
200021fc:	20002945 	.word	0x20002945
20002200:	20002945 	.word	0x20002945
20002204:	20002945 	.word	0x20002945
20002208:	20002945 	.word	0x20002945
2000220c:	20002945 	.word	0x20002945
20002210:	20002945 	.word	0x20002945
20002214:	20002945 	.word	0x20002945
20002218:	20002945 	.word	0x20002945
2000221c:	20002945 	.word	0x20002945
20002220:	20002945 	.word	0x20002945
20002224:	20002945 	.word	0x20002945
20002228:	20002945 	.word	0x20002945
2000222c:	20002945 	.word	0x20002945
20002230:	20002945 	.word	0x20002945
20002234:	20002945 	.word	0x20002945
20002238:	20002945 	.word	0x20002945
2000223c:	20002945 	.word	0x20002945
20002240:	20002945 	.word	0x20002945
20002244:	20002945 	.word	0x20002945
20002248:	20002945 	.word	0x20002945
2000224c:	20002945 	.word	0x20002945
20002250:	20002945 	.word	0x20002945
20002254:	20002945 	.word	0x20002945
20002258:	2000218d 	.word	0x2000218d
2000225c:	20002945 	.word	0x20002945
20002260:	20002945 	.word	0x20002945
20002264:	20002945 	.word	0x20002945
20002268:	20002945 	.word	0x20002945
2000226c:	20002973 	.word	0x20002973
20002270:	20002945 	.word	0x20002945
20002274:	20002945 	.word	0x20002945
20002278:	20002945 	.word	0x20002945
2000227c:	20002945 	.word	0x20002945
20002280:	20002945 	.word	0x20002945
20002284:	2000297b 	.word	0x2000297b
20002288:	2000297b 	.word	0x2000297b
2000228c:	2000297b 	.word	0x2000297b
20002290:	2000297b 	.word	0x2000297b
20002294:	2000297b 	.word	0x2000297b
20002298:	2000297b 	.word	0x2000297b
2000229c:	2000297b 	.word	0x2000297b
200022a0:	2000297b 	.word	0x2000297b
200022a4:	2000297b 	.word	0x2000297b
200022a8:	2000297b 	.word	0x2000297b
200022ac:	20002945 	.word	0x20002945
200022b0:	20002945 	.word	0x20002945
200022b4:	20002945 	.word	0x20002945
200022b8:	20002945 	.word	0x20002945
200022bc:	20002945 	.word	0x20002945
200022c0:	20002945 	.word	0x20002945
200022c4:	20002945 	.word	0x20002945
200022c8:	20002945 	.word	0x20002945
200022cc:	20002945 	.word	0x20002945
200022d0:	20002945 	.word	0x20002945
200022d4:	200023cf 	.word	0x200023cf
200022d8:	20002989 	.word	0x20002989
200022dc:	20002945 	.word	0x20002945
200022e0:	20002989 	.word	0x20002989
200022e4:	20002945 	.word	0x20002945
200022e8:	20002945 	.word	0x20002945
200022ec:	20002945 	.word	0x20002945
200022f0:	20002945 	.word	0x20002945
200022f4:	20002991 	.word	0x20002991
200022f8:	20002945 	.word	0x20002945
200022fc:	20002945 	.word	0x20002945
20002300:	20002999 	.word	0x20002999
20002304:	20002945 	.word	0x20002945
20002308:	20002945 	.word	0x20002945
2000230c:	20002945 	.word	0x20002945
20002310:	20002945 	.word	0x20002945
20002314:	20002945 	.word	0x20002945
20002318:	20002945 	.word	0x20002945
2000231c:	20002945 	.word	0x20002945
20002320:	20002945 	.word	0x20002945
20002324:	200029b3 	.word	0x200029b3
20002328:	20002945 	.word	0x20002945
2000232c:	20002945 	.word	0x20002945
20002330:	200029d1 	.word	0x200029d1
20002334:	20002945 	.word	0x20002945
20002338:	20002945 	.word	0x20002945
2000233c:	20002945 	.word	0x20002945
20002340:	20002945 	.word	0x20002945
20002344:	20002945 	.word	0x20002945
20002348:	20002945 	.word	0x20002945
2000234c:	20002945 	.word	0x20002945
20002350:	200029e7 	.word	0x200029e7
20002354:	200023d3 	.word	0x200023d3
20002358:	20002989 	.word	0x20002989
2000235c:	20002989 	.word	0x20002989
20002360:	20002989 	.word	0x20002989
20002364:	200028a9 	.word	0x200028a9
20002368:	200028b1 	.word	0x200028b1
2000236c:	20002945 	.word	0x20002945
20002370:	20002945 	.word	0x20002945
20002374:	200028c7 	.word	0x200028c7
20002378:	20002945 	.word	0x20002945
2000237c:	200028db 	.word	0x200028db
20002380:	200028f7 	.word	0x200028f7
20002384:	2000290d 	.word	0x2000290d
20002388:	20002945 	.word	0x20002945
2000238c:	20002945 	.word	0x20002945
20002390:	20002927 	.word	0x20002927
20002394:	20002945 	.word	0x20002945
20002398:	2000292f 	.word	0x2000292f
2000239c:	20002945 	.word	0x20002945
200023a0:	20002945 	.word	0x20002945
200023a4:	200029b3 	.word	0x200029b3
200023a8:	4640      	mov	r0, r8
200023aa:	4621      	mov	r1, r4
200023ac:	f7ff fe30 	bl	20002010 <__ssrefill_r>
200023b0:	2800      	cmp	r0, #0
200023b2:	f43f aeef 	beq.w	20002194 <__ssvfscanf_r+0xb8>
200023b6:	9d0c      	ldr	r5, [sp, #48]	; 0x30
200023b8:	f001 f842 	bl	20003440 <__sfp_lock_release>
200023bc:	b125      	cbz	r5, 200023c8 <__ssvfscanf_r+0x2ec>
200023be:	89a3      	ldrh	r3, [r4, #12]
200023c0:	f013 0f40 	tst.w	r3, #64	; 0x40
200023c4:	f43f aedb 	beq.w	2000217e <__ssvfscanf_r+0xa2>
200023c8:	f04f 35ff 	mov.w	r5, #4294967295
200023cc:	e6d7      	b.n	2000217e <__ssvfscanf_r+0xa2>
200023ce:	f049 0901 	orr.w	r9, r9, #1
200023d2:	46da      	mov	sl, fp
200023d4:	f245 32f9 	movw	r2, #21497	; 0x53f9
200023d8:	f2c2 0200 	movt	r2, #8192	; 0x2000
200023dc:	230a      	movs	r3, #10
200023de:	f04f 0c03 	mov.w	ip, #3
200023e2:	920b      	str	r2, [sp, #44]	; 0x2c
200023e4:	930a      	str	r3, [sp, #40]	; 0x28
200023e6:	f8cd c020 	str.w	ip, [sp, #32]
200023ea:	6863      	ldr	r3, [r4, #4]
200023ec:	2b00      	cmp	r3, #0
200023ee:	f340 824a 	ble.w	20002886 <__ssvfscanf_r+0x7aa>
200023f2:	f019 0f40 	tst.w	r9, #64	; 0x40
200023f6:	bf08      	it	eq
200023f8:	6823      	ldreq	r3, [r4, #0]
200023fa:	d012      	beq.n	20002422 <__ssvfscanf_r+0x346>
200023fc:	9a08      	ldr	r2, [sp, #32]
200023fe:	1e53      	subs	r3, r2, #1
20002400:	2b03      	cmp	r3, #3
20002402:	f200 80d7 	bhi.w	200025b4 <__ssvfscanf_r+0x4d8>
20002406:	e8df f013 	tbh	[pc, r3, lsl #1]
2000240a:	01aa      	.short	0x01aa
2000240c:	001d0094 	.word	0x001d0094
20002410:	0136      	.short	0x0136
20002412:	4640      	mov	r0, r8
20002414:	4621      	mov	r1, r4
20002416:	f7ff fdfb 	bl	20002010 <__ssrefill_r>
2000241a:	2800      	cmp	r0, #0
2000241c:	d1cb      	bne.n	200023b6 <__ssvfscanf_r+0x2da>
2000241e:	6823      	ldr	r3, [r4, #0]
20002420:	3501      	adds	r5, #1
20002422:	7819      	ldrb	r1, [r3, #0]
20002424:	3301      	adds	r3, #1
20002426:	6832      	ldr	r2, [r6, #0]
20002428:	188a      	adds	r2, r1, r2
2000242a:	7852      	ldrb	r2, [r2, #1]
2000242c:	f012 0f08 	tst.w	r2, #8
20002430:	d0e4      	beq.n	200023fc <__ssvfscanf_r+0x320>
20002432:	6862      	ldr	r2, [r4, #4]
20002434:	3a01      	subs	r2, #1
20002436:	6062      	str	r2, [r4, #4]
20002438:	2a00      	cmp	r2, #0
2000243a:	bfc8      	it	gt
2000243c:	6023      	strgt	r3, [r4, #0]
2000243e:	dde8      	ble.n	20002412 <__ssvfscanf_r+0x336>
20002440:	3501      	adds	r5, #1
20002442:	e7ee      	b.n	20002422 <__ssvfscanf_r+0x346>
20002444:	f10b 33ff 	add.w	r3, fp, #4294967295
20002448:	f449 6c58 	orr.w	ip, r9, #3456	; 0xd80
2000244c:	f5b3 7fae 	cmp.w	r3, #348	; 0x15c
20002450:	f24a 73f4 	movw	r3, #42996	; 0xa7f4
20002454:	bf88      	it	hi
20002456:	f5ab 7bae 	subhi.w	fp, fp, #348	; 0x15c
2000245a:	f10d 094c 	add.w	r9, sp, #76	; 0x4c
2000245e:	f2c2 0300 	movt	r3, #8192	; 0x2000
20002462:	970e      	str	r7, [sp, #56]	; 0x38
20002464:	9f0a      	ldr	r7, [sp, #40]	; 0x28
20002466:	bf92      	itee	ls
20002468:	f04f 0b00 	movls.w	fp, #0
2000246c:	f240 1a5d 	movwhi	sl, #349	; 0x15d
20002470:	f10b 3bff 	addhi.w	fp, fp, #4294967295
20002474:	462a      	mov	r2, r5
20002476:	2600      	movs	r6, #0
20002478:	464d      	mov	r5, r9
2000247a:	9608      	str	r6, [sp, #32]
2000247c:	4699      	mov	r9, r3
2000247e:	4666      	mov	r6, ip
20002480:	f8d4 c000 	ldr.w	ip, [r4]
20002484:	f89c 0000 	ldrb.w	r0, [ip]
20002488:	f1a0 012b 	sub.w	r1, r0, #43	; 0x2b
2000248c:	294d      	cmp	r1, #77	; 0x4d
2000248e:	f200 81a7 	bhi.w	200027e0 <__ssvfscanf_r+0x704>
20002492:	e8df f011 	tbh	[pc, r1, lsl #1]
20002496:	01c7      	.short	0x01c7
20002498:	01c701a5 	.word	0x01c701a5
2000249c:	01a501a5 	.word	0x01a501a5
200024a0:	01cd01d2 	.word	0x01cd01d2
200024a4:	01cd01cd 	.word	0x01cd01cd
200024a8:	01cd01cd 	.word	0x01cd01cd
200024ac:	01cd01cd 	.word	0x01cd01cd
200024b0:	01f101f1 	.word	0x01f101f1
200024b4:	01a501a5 	.word	0x01a501a5
200024b8:	01a501a5 	.word	0x01a501a5
200024bc:	01a501a5 	.word	0x01a501a5
200024c0:	01ec01a5 	.word	0x01ec01a5
200024c4:	01ec01ec 	.word	0x01ec01ec
200024c8:	01ec01ec 	.word	0x01ec01ec
200024cc:	01a501ec 	.word	0x01a501ec
200024d0:	01a501a5 	.word	0x01a501a5
200024d4:	01a501a5 	.word	0x01a501a5
200024d8:	01a501a5 	.word	0x01a501a5
200024dc:	01a501a5 	.word	0x01a501a5
200024e0:	01a501a5 	.word	0x01a501a5
200024e4:	01a501a5 	.word	0x01a501a5
200024e8:	01a501a5 	.word	0x01a501a5
200024ec:	01a501a5 	.word	0x01a501a5
200024f0:	01a5018c 	.word	0x01a5018c
200024f4:	01a501a5 	.word	0x01a501a5
200024f8:	01a501a5 	.word	0x01a501a5
200024fc:	01a501a5 	.word	0x01a501a5
20002500:	01ec01a5 	.word	0x01ec01a5
20002504:	01ec01ec 	.word	0x01ec01ec
20002508:	01ec01ec 	.word	0x01ec01ec
2000250c:	01a501ec 	.word	0x01a501ec
20002510:	01a501a5 	.word	0x01a501a5
20002514:	01a501a5 	.word	0x01a501a5
20002518:	01a501a5 	.word	0x01a501a5
2000251c:	01a501a5 	.word	0x01a501a5
20002520:	01a501a5 	.word	0x01a501a5
20002524:	01a501a5 	.word	0x01a501a5
20002528:	01a501a5 	.word	0x01a501a5
2000252c:	01a501a5 	.word	0x01a501a5
20002530:	018c      	.short	0x018c
20002532:	f1bb 0f00 	cmp.w	fp, #0
20002536:	bf14      	ite	ne
20002538:	46da      	movne	sl, fp
2000253a:	f04f 3aff 	moveq.w	sl, #4294967295
2000253e:	f019 0301 	ands.w	r3, r9, #1
20002542:	f000 83ed 	beq.w	20002d20 <__ssvfscanf_r+0xc44>
20002546:	f019 0010 	ands.w	r0, r9, #16
2000254a:	9008      	str	r0, [sp, #32]
2000254c:	bf18      	it	ne
2000254e:	f50d 7b2d 	addne.w	fp, sp, #692	; 0x2b4
20002552:	d104      	bne.n	2000255e <__ssvfscanf_r+0x482>
20002554:	9909      	ldr	r1, [sp, #36]	; 0x24
20002556:	f8d1 b000 	ldr.w	fp, [r1]
2000255a:	3104      	adds	r1, #4
2000255c:	9109      	str	r1, [sp, #36]	; 0x24
2000255e:	463b      	mov	r3, r7
20002560:	f04f 0900 	mov.w	r9, #0
20002564:	462f      	mov	r7, r5
20002566:	465d      	mov	r5, fp
20002568:	469b      	mov	fp, r3
2000256a:	960e      	str	r6, [sp, #56]	; 0x38
2000256c:	9b0e      	ldr	r3, [sp, #56]	; 0x38
2000256e:	6822      	ldr	r2, [r4, #0]
20002570:	6819      	ldr	r1, [r3, #0]
20002572:	7813      	ldrb	r3, [r2, #0]
20002574:	1859      	adds	r1, r3, r1
20002576:	7849      	ldrb	r1, [r1, #1]
20002578:	f081 0108 	eor.w	r1, r1, #8
2000257c:	f3c1 01c0 	ubfx	r1, r1, #3, #1
20002580:	f1ba 0f00 	cmp.w	sl, #0
20002584:	bf0c      	ite	eq
20002586:	2100      	moveq	r1, #0
20002588:	f001 0101 	andne.w	r1, r1, #1
2000258c:	2900      	cmp	r1, #0
2000258e:	f040 8446 	bne.w	20002e1e <__ssvfscanf_r+0xd42>
20002592:	465b      	mov	r3, fp
20002594:	46ab      	mov	fp, r5
20002596:	463d      	mov	r5, r7
20002598:	461f      	mov	r7, r3
2000259a:	9e08      	ldr	r6, [sp, #32]
2000259c:	2e00      	cmp	r6, #0
2000259e:	f47f adc0 	bne.w	20002122 <__ssvfscanf_r+0x46>
200025a2:	f8cb 6000 	str.w	r6, [fp]
200025a6:	f8dd c030 	ldr.w	ip, [sp, #48]	; 0x30
200025aa:	f10c 0c01 	add.w	ip, ip, #1
200025ae:	f8cd c030 	str.w	ip, [sp, #48]	; 0x30
200025b2:	e5b6      	b.n	20002122 <__ssvfscanf_r+0x46>
200025b4:	f1bb 0f00 	cmp.w	fp, #0
200025b8:	bf14      	ite	ne
200025ba:	46da      	movne	sl, fp
200025bc:	f04f 0a01 	moveq.w	sl, #1
200025c0:	f019 0601 	ands.w	r6, r9, #1
200025c4:	f000 835a 	beq.w	20002c7c <__ssvfscanf_r+0xba0>
200025c8:	f019 0010 	ands.w	r0, r9, #16
200025cc:	9008      	str	r0, [sp, #32]
200025ce:	bf18      	it	ne
200025d0:	f04f 0900 	movne.w	r9, #0
200025d4:	d104      	bne.n	200025e0 <__ssvfscanf_r+0x504>
200025d6:	9909      	ldr	r1, [sp, #36]	; 0x24
200025d8:	f8d1 9000 	ldr.w	r9, [r1]
200025dc:	3104      	adds	r1, #4
200025de:	9109      	str	r1, [sp, #36]	; 0x24
200025e0:	462b      	mov	r3, r5
200025e2:	f8cd 903c 	str.w	r9, [sp, #60]	; 0x3c
200025e6:	46c1      	mov	r9, r8
200025e8:	f8dd 8034 	ldr.w	r8, [sp, #52]	; 0x34
200025ec:	4655      	mov	r5, sl
200025ee:	2600      	movs	r6, #0
200025f0:	f10d 0b4c 	add.w	fp, sp, #76	; 0x4c
200025f4:	469a      	mov	sl, r3
200025f6:	970e      	str	r7, [sp, #56]	; 0x38
200025f8:	f8d8 3000 	ldr.w	r3, [r8]
200025fc:	429e      	cmp	r6, r3
200025fe:	f43f aeda 	beq.w	200023b6 <__ssvfscanf_r+0x2da>
20002602:	6823      	ldr	r3, [r4, #0]
20002604:	2100      	movs	r1, #0
20002606:	f8d4 e004 	ldr.w	lr, [r4, #4]
2000260a:	2208      	movs	r2, #8
2000260c:	a8ab      	add	r0, sp, #684	; 0x2ac
2000260e:	afab      	add	r7, sp, #684	; 0x2ac
20002610:	f813 cb01 	ldrb.w	ip, [r3], #1
20002614:	f10e 3eff 	add.w	lr, lr, #4294967295
20002618:	f8c4 e004 	str.w	lr, [r4, #4]
2000261c:	f80b c006 	strb.w	ip, [fp, r6]
20002620:	3601      	adds	r6, #1
20002622:	6023      	str	r3, [r4, #0]
20002624:	f001 facc 	bl	20003bc0 <memset>
20002628:	4648      	mov	r0, r9
2000262a:	990f      	ldr	r1, [sp, #60]	; 0x3c
2000262c:	465a      	mov	r2, fp
2000262e:	4633      	mov	r3, r6
20002630:	9700      	str	r7, [sp, #0]
20002632:	f001 f9b3 	bl	2000399c <_mbrtowc_r>
20002636:	f1b0 3fff 	cmp.w	r0, #4294967295
2000263a:	f43f aebc 	beq.w	200023b6 <__ssvfscanf_r+0x2da>
2000263e:	2800      	cmp	r0, #0
20002640:	f040 83b9 	bne.w	20002db6 <__ssvfscanf_r+0xcda>
20002644:	9808      	ldr	r0, [sp, #32]
20002646:	b908      	cbnz	r0, 2000264c <__ssvfscanf_r+0x570>
20002648:	990f      	ldr	r1, [sp, #60]	; 0x3c
2000264a:	6008      	str	r0, [r1, #0]
2000264c:	9a08      	ldr	r2, [sp, #32]
2000264e:	44b2      	add	sl, r6
20002650:	3d01      	subs	r5, #1
20002652:	2a00      	cmp	r2, #0
20002654:	f000 83b9 	beq.w	20002dca <__ssvfscanf_r+0xcee>
20002658:	2600      	movs	r6, #0
2000265a:	6863      	ldr	r3, [r4, #4]
2000265c:	2b00      	cmp	r3, #0
2000265e:	f340 8350 	ble.w	20002d02 <__ssvfscanf_r+0xc26>
20002662:	2d00      	cmp	r5, #0
20002664:	d1c8      	bne.n	200025f8 <__ssvfscanf_r+0x51c>
20002666:	9f0e      	ldr	r7, [sp, #56]	; 0x38
20002668:	4655      	mov	r5, sl
2000266a:	46c8      	mov	r8, r9
2000266c:	9e08      	ldr	r6, [sp, #32]
2000266e:	2e00      	cmp	r6, #0
20002670:	f47f ad57 	bne.w	20002122 <__ssvfscanf_r+0x46>
20002674:	e797      	b.n	200025a6 <__ssvfscanf_r+0x4ca>
20002676:	f10b 33ff 	add.w	r3, fp, #4294967295
2000267a:	f5b3 7fae 	cmp.w	r3, #348	; 0x15c
2000267e:	f200 82f7 	bhi.w	20002c70 <__ssvfscanf_r+0xb94>
20002682:	2200      	movs	r2, #0
20002684:	f04f 0b00 	mov.w	fp, #0
20002688:	4641      	mov	r1, r8
2000268a:	9711      	str	r7, [sp, #68]	; 0x44
2000268c:	4690      	mov	r8, r2
2000268e:	f449 69f0 	orr.w	r9, r9, #1920	; 0x780
20002692:	ae13      	add	r6, sp, #76	; 0x4c
20002694:	465b      	mov	r3, fp
20002696:	465f      	mov	r7, fp
20002698:	460a      	mov	r2, r1
2000269a:	f8cd b020 	str.w	fp, [sp, #32]
2000269e:	f8cd b040 	str.w	fp, [sp, #64]	; 0x40
200026a2:	f8cd b038 	str.w	fp, [sp, #56]	; 0x38
200026a6:	f8cd b03c 	str.w	fp, [sp, #60]	; 0x3c
200026aa:	f8d4 e000 	ldr.w	lr, [r4]
200026ae:	f89e 0000 	ldrb.w	r0, [lr]
200026b2:	f1a0 012b 	sub.w	r1, r0, #43	; 0x2b
200026b6:	294e      	cmp	r1, #78	; 0x4e
200026b8:	f200 81d6 	bhi.w	20002a68 <__ssvfscanf_r+0x98c>
200026bc:	e8df f011 	tbh	[pc, r1, lsl #1]
200026c0:	01d4025d 	.word	0x01d4025d
200026c4:	0255025d 	.word	0x0255025d
200026c8:	024501d4 	.word	0x024501d4
200026cc:	01be01be 	.word	0x01be01be
200026d0:	01be01be 	.word	0x01be01be
200026d4:	01be01be 	.word	0x01be01be
200026d8:	01be01be 	.word	0x01be01be
200026dc:	01d401be 	.word	0x01d401be
200026e0:	01d401d4 	.word	0x01d401d4
200026e4:	01d401d4 	.word	0x01d401d4
200026e8:	01d401d4 	.word	0x01d401d4
200026ec:	01d402d3 	.word	0x01d402d3
200026f0:	01d401d4 	.word	0x01d401d4
200026f4:	02b302ba 	.word	0x02b302ba
200026f8:	01d401d4 	.word	0x01d401d4
200026fc:	01d40296 	.word	0x01d40296
20002700:	01d401d4 	.word	0x01d401d4
20002704:	026b01d4 	.word	0x026b01d4
20002708:	01d401d4 	.word	0x01d401d4
2000270c:	01d401d4 	.word	0x01d401d4
20002710:	026401d4 	.word	0x026401d4
20002714:	01d401d4 	.word	0x01d401d4
20002718:	01d401d4 	.word	0x01d401d4
2000271c:	01d4028f 	.word	0x01d4028f
20002720:	01d401d4 	.word	0x01d401d4
20002724:	01d401d4 	.word	0x01d401d4
20002728:	01d401d4 	.word	0x01d401d4
2000272c:	01d402d3 	.word	0x01d402d3
20002730:	01d401d4 	.word	0x01d401d4
20002734:	02b302ba 	.word	0x02b302ba
20002738:	01d401d4 	.word	0x01d401d4
2000273c:	01d40296 	.word	0x01d40296
20002740:	01d401d4 	.word	0x01d401d4
20002744:	026b01d4 	.word	0x026b01d4
20002748:	01d401d4 	.word	0x01d401d4
2000274c:	01d401d4 	.word	0x01d401d4
20002750:	026401d4 	.word	0x026401d4
20002754:	01d401d4 	.word	0x01d401d4
20002758:	01d401d4 	.word	0x01d401d4
2000275c:	028f      	.short	0x028f
2000275e:	f1bb 0f00 	cmp.w	fp, #0
20002762:	bf14      	ite	ne
20002764:	46da      	movne	sl, fp
20002766:	f04f 3aff 	moveq.w	sl, #4294967295
2000276a:	f019 0f10 	tst.w	r9, #16
2000276e:	f000 8140 	beq.w	200029f2 <__ssvfscanf_r+0x916>
20002772:	6823      	ldr	r3, [r4, #0]
20002774:	2600      	movs	r6, #0
20002776:	781a      	ldrb	r2, [r3, #0]
20002778:	f50d 7cd6 	add.w	ip, sp, #428	; 0x1ac
2000277c:	3301      	adds	r3, #1
2000277e:	f81c 2002 	ldrb.w	r2, [ip, r2]
20002782:	2a00      	cmp	r2, #0
20002784:	f000 83b8 	beq.w	20002ef8 <__ssvfscanf_r+0xe1c>
20002788:	6862      	ldr	r2, [r4, #4]
2000278a:	3601      	adds	r6, #1
2000278c:	6023      	str	r3, [r4, #0]
2000278e:	3a01      	subs	r2, #1
20002790:	45b2      	cmp	sl, r6
20002792:	6062      	str	r2, [r4, #4]
20002794:	f000 82b2 	beq.w	20002cfc <__ssvfscanf_r+0xc20>
20002798:	2a00      	cmp	r2, #0
2000279a:	dcec      	bgt.n	20002776 <__ssvfscanf_r+0x69a>
2000279c:	4640      	mov	r0, r8
2000279e:	4621      	mov	r1, r4
200027a0:	f7ff fc36 	bl	20002010 <__ssrefill_r>
200027a4:	2800      	cmp	r0, #0
200027a6:	f040 82a9 	bne.w	20002cfc <__ssvfscanf_r+0xc20>
200027aa:	6823      	ldr	r3, [r4, #0]
200027ac:	e7e3      	b.n	20002776 <__ssvfscanf_r+0x69a>
200027ae:	f406 61c0 	and.w	r1, r6, #1536	; 0x600
200027b2:	f5b1 7f00 	cmp.w	r1, #512	; 0x200
200027b6:	d113      	bne.n	200027e0 <__ssvfscanf_r+0x704>
200027b8:	f426 7600 	bic.w	r6, r6, #512	; 0x200
200027bc:	2710      	movs	r7, #16
200027be:	f446 66a0 	orr.w	r6, r6, #1280	; 0x500
200027c2:	f805 0b01 	strb.w	r0, [r5], #1
200027c6:	6861      	ldr	r1, [r4, #4]
200027c8:	3901      	subs	r1, #1
200027ca:	6061      	str	r1, [r4, #4]
200027cc:	2900      	cmp	r1, #0
200027ce:	bfc4      	itt	gt
200027d0:	f10c 0101 	addgt.w	r1, ip, #1
200027d4:	6021      	strgt	r1, [r4, #0]
200027d6:	dd5e      	ble.n	20002896 <__ssvfscanf_r+0x7ba>
200027d8:	f1ba 0a01 	subs.w	sl, sl, #1
200027dc:	f47f ae50 	bne.w	20002480 <__ssvfscanf_r+0x3a4>
200027e0:	f416 7f80 	tst.w	r6, #256	; 0x100
200027e4:	46a9      	mov	r9, r5
200027e6:	970a      	str	r7, [sp, #40]	; 0x28
200027e8:	46b4      	mov	ip, r6
200027ea:	4615      	mov	r5, r2
200027ec:	9f0e      	ldr	r7, [sp, #56]	; 0x38
200027ee:	d00f      	beq.n	20002810 <__ssvfscanf_r+0x734>
200027f0:	f10d 0a4c 	add.w	sl, sp, #76	; 0x4c
200027f4:	45ca      	cmp	sl, r9
200027f6:	d208      	bcs.n	2000280a <__ssvfscanf_r+0x72e>
200027f8:	f819 1d01 	ldrb.w	r1, [r9, #-1]!
200027fc:	4640      	mov	r0, r8
200027fe:	4622      	mov	r2, r4
20002800:	9607      	str	r6, [sp, #28]
20002802:	f7ff fc23 	bl	2000204c <_sungetc_r>
20002806:	f8dd c01c 	ldr.w	ip, [sp, #28]
2000280a:	45ca      	cmp	sl, r9
2000280c:	f43f acb4 	beq.w	20002178 <__ssvfscanf_r+0x9c>
20002810:	f01c 0210 	ands.w	r2, ip, #16
20002814:	f000 8354 	beq.w	20002ec0 <__ssvfscanf_r+0xde4>
20002818:	ab13      	add	r3, sp, #76	; 0x4c
2000281a:	9808      	ldr	r0, [sp, #32]
2000281c:	1aed      	subs	r5, r5, r3
2000281e:	182d      	adds	r5, r5, r0
20002820:	444d      	add	r5, r9
20002822:	e47e      	b.n	20002122 <__ssvfscanf_r+0x46>
20002824:	f016 0f80 	tst.w	r6, #128	; 0x80
20002828:	d0da      	beq.n	200027e0 <__ssvfscanf_r+0x704>
2000282a:	f026 0680 	bic.w	r6, r6, #128	; 0x80
2000282e:	e7c8      	b.n	200027c2 <__ssvfscanf_r+0x6e6>
20002830:	f939 7017 	ldrsh.w	r7, [r9, r7, lsl #1]
20002834:	f426 6638 	bic.w	r6, r6, #2944	; 0xb80
20002838:	e7c3      	b.n	200027c2 <__ssvfscanf_r+0x6e6>
2000283a:	f416 6f00 	tst.w	r6, #2048	; 0x800
2000283e:	d0c0      	beq.n	200027c2 <__ssvfscanf_r+0x6e6>
20002840:	b917      	cbnz	r7, 20002848 <__ssvfscanf_r+0x76c>
20002842:	f446 7600 	orr.w	r6, r6, #512	; 0x200
20002846:	3708      	adds	r7, #8
20002848:	f416 6f80 	tst.w	r6, #1024	; 0x400
2000284c:	bf18      	it	ne
2000284e:	f426 66b0 	bicne.w	r6, r6, #1408	; 0x580
20002852:	d1b6      	bne.n	200027c2 <__ssvfscanf_r+0x6e6>
20002854:	f1bb 0f00 	cmp.w	fp, #0
20002858:	d003      	beq.n	20002862 <__ssvfscanf_r+0x786>
2000285a:	f10b 3bff 	add.w	fp, fp, #4294967295
2000285e:	f10a 0a01 	add.w	sl, sl, #1
20002862:	9808      	ldr	r0, [sp, #32]
20002864:	f426 7660 	bic.w	r6, r6, #896	; 0x380
20002868:	3001      	adds	r0, #1
2000286a:	9008      	str	r0, [sp, #32]
2000286c:	e7ab      	b.n	200027c6 <__ssvfscanf_r+0x6ea>
2000286e:	2f0a      	cmp	r7, #10
20002870:	ddb6      	ble.n	200027e0 <__ssvfscanf_r+0x704>
20002872:	f426 6638 	bic.w	r6, r6, #2944	; 0xb80
20002876:	e7a4      	b.n	200027c2 <__ssvfscanf_r+0x6e6>
20002878:	f939 7017 	ldrsh.w	r7, [r9, r7, lsl #1]
2000287c:	2f08      	cmp	r7, #8
2000287e:	ddaf      	ble.n	200027e0 <__ssvfscanf_r+0x704>
20002880:	f426 6638 	bic.w	r6, r6, #2944	; 0xb80
20002884:	e79d      	b.n	200027c2 <__ssvfscanf_r+0x6e6>
20002886:	4640      	mov	r0, r8
20002888:	4621      	mov	r1, r4
2000288a:	f7ff fbc1 	bl	20002010 <__ssrefill_r>
2000288e:	2800      	cmp	r0, #0
20002890:	f43f adaf 	beq.w	200023f2 <__ssvfscanf_r+0x316>
20002894:	e58f      	b.n	200023b6 <__ssvfscanf_r+0x2da>
20002896:	4640      	mov	r0, r8
20002898:	4621      	mov	r1, r4
2000289a:	9207      	str	r2, [sp, #28]
2000289c:	f7ff fbb8 	bl	20002010 <__ssrefill_r>
200028a0:	9a07      	ldr	r2, [sp, #28]
200028a2:	2800      	cmp	r0, #0
200028a4:	d098      	beq.n	200027d8 <__ssvfscanf_r+0x6fc>
200028a6:	e79b      	b.n	200027e0 <__ssvfscanf_r+0x704>
200028a8:	f049 0904 	orr.w	r9, r9, #4
200028ac:	783a      	ldrb	r2, [r7, #0]
200028ae:	e481      	b.n	200021b4 <__ssvfscanf_r+0xd8>
200028b0:	f245 30f9 	movw	r0, #21497	; 0x53f9
200028b4:	2100      	movs	r1, #0
200028b6:	f2c2 0000 	movt	r0, #8192	; 0x2000
200028ba:	2203      	movs	r2, #3
200028bc:	46da      	mov	sl, fp
200028be:	900b      	str	r0, [sp, #44]	; 0x2c
200028c0:	910a      	str	r1, [sp, #40]	; 0x28
200028c2:	9208      	str	r2, [sp, #32]
200028c4:	e591      	b.n	200023ea <__ssvfscanf_r+0x30e>
200028c6:	783a      	ldrb	r2, [r7, #0]
200028c8:	2a6c      	cmp	r2, #108	; 0x6c
200028ca:	bf0a      	itet	eq
200028cc:	f049 0902 	orreq.w	r9, r9, #2
200028d0:	f049 0901 	orrne.w	r9, r9, #1
200028d4:	f817 2f01 	ldrbeq.w	r2, [r7, #1]!
200028d8:	e46c      	b.n	200021b4 <__ssvfscanf_r+0xd8>
200028da:	f019 0f10 	tst.w	r9, #16
200028de:	f47f ac20 	bne.w	20002122 <__ssvfscanf_r+0x46>
200028e2:	f019 0f04 	tst.w	r9, #4
200028e6:	f000 8377 	beq.w	20002fd8 <__ssvfscanf_r+0xefc>
200028ea:	9e09      	ldr	r6, [sp, #36]	; 0x24
200028ec:	6833      	ldr	r3, [r6, #0]
200028ee:	3604      	adds	r6, #4
200028f0:	9609      	str	r6, [sp, #36]	; 0x24
200028f2:	801d      	strh	r5, [r3, #0]
200028f4:	e415      	b.n	20002122 <__ssvfscanf_r+0x46>
200028f6:	f245 7341 	movw	r3, #22337	; 0x5741
200028fa:	2008      	movs	r0, #8
200028fc:	f2c2 0300 	movt	r3, #8192	; 0x2000
20002900:	2103      	movs	r1, #3
20002902:	46da      	mov	sl, fp
20002904:	930b      	str	r3, [sp, #44]	; 0x2c
20002906:	900a      	str	r0, [sp, #40]	; 0x28
20002908:	9108      	str	r1, [sp, #32]
2000290a:	e56e      	b.n	200023ea <__ssvfscanf_r+0x30e>
2000290c:	f245 7041 	movw	r0, #22337	; 0x5741
20002910:	2110      	movs	r1, #16
20002912:	f2c2 0000 	movt	r0, #8192	; 0x2000
20002916:	2203      	movs	r2, #3
20002918:	f449 7908 	orr.w	r9, r9, #544	; 0x220
2000291c:	900b      	str	r0, [sp, #44]	; 0x2c
2000291e:	46da      	mov	sl, fp
20002920:	910a      	str	r1, [sp, #40]	; 0x28
20002922:	9208      	str	r2, [sp, #32]
20002924:	e561      	b.n	200023ea <__ssvfscanf_r+0x30e>
20002926:	2102      	movs	r1, #2
20002928:	46da      	mov	sl, fp
2000292a:	9108      	str	r1, [sp, #32]
2000292c:	e55d      	b.n	200023ea <__ssvfscanf_r+0x30e>
2000292e:	f245 7041 	movw	r0, #22337	; 0x5741
20002932:	210a      	movs	r1, #10
20002934:	f2c2 0000 	movt	r0, #8192	; 0x2000
20002938:	2203      	movs	r2, #3
2000293a:	46da      	mov	sl, fp
2000293c:	900b      	str	r0, [sp, #44]	; 0x2c
2000293e:	910a      	str	r1, [sp, #40]	; 0x28
20002940:	9208      	str	r2, [sp, #32]
20002942:	e552      	b.n	200023ea <__ssvfscanf_r+0x30e>
20002944:	18d3      	adds	r3, r2, r3
20002946:	46da      	mov	sl, fp
20002948:	785b      	ldrb	r3, [r3, #1]
2000294a:	f013 0f01 	tst.w	r3, #1
2000294e:	f245 33f9 	movw	r3, #21497	; 0x53f9
20002952:	bf18      	it	ne
20002954:	f049 0901 	orrne.w	r9, r9, #1
20002958:	f2c2 0300 	movt	r3, #8192	; 0x2000
2000295c:	200a      	movs	r0, #10
2000295e:	2103      	movs	r1, #3
20002960:	930b      	str	r3, [sp, #44]	; 0x2c
20002962:	900a      	str	r0, [sp, #40]	; 0x28
20002964:	9108      	str	r1, [sp, #32]
20002966:	e540      	b.n	200023ea <__ssvfscanf_r+0x30e>
20002968:	f000 fd6a 	bl	20003440 <__sfp_lock_release>
2000296c:	f04f 35ff 	mov.w	r5, #4294967295
20002970:	e405      	b.n	2000217e <__ssvfscanf_r+0xa2>
20002972:	f049 0910 	orr.w	r9, r9, #16
20002976:	783a      	ldrb	r2, [r7, #0]
20002978:	e41c      	b.n	200021b4 <__ssvfscanf_r+0xd8>
2000297a:	fb01 fb0b 	mul.w	fp, r1, fp
2000297e:	f1ab 0b30 	sub.w	fp, fp, #48	; 0x30
20002982:	4493      	add	fp, r2
20002984:	783a      	ldrb	r2, [r7, #0]
20002986:	e415      	b.n	200021b4 <__ssvfscanf_r+0xd8>
20002988:	2004      	movs	r0, #4
2000298a:	46da      	mov	sl, fp
2000298c:	9008      	str	r0, [sp, #32]
2000298e:	e52c      	b.n	200023ea <__ssvfscanf_r+0x30e>
20002990:	f049 0902 	orr.w	r9, r9, #2
20002994:	783a      	ldrb	r2, [r7, #0]
20002996:	e40d      	b.n	200021b4 <__ssvfscanf_r+0xd8>
20002998:	f245 7341 	movw	r3, #22337	; 0x5741
2000299c:	2008      	movs	r0, #8
2000299e:	f2c2 0300 	movt	r3, #8192	; 0x2000
200029a2:	2103      	movs	r1, #3
200029a4:	f049 0901 	orr.w	r9, r9, #1
200029a8:	930b      	str	r3, [sp, #44]	; 0x2c
200029aa:	46da      	mov	sl, fp
200029ac:	900a      	str	r0, [sp, #40]	; 0x28
200029ae:	9108      	str	r1, [sp, #32]
200029b0:	e51b      	b.n	200023ea <__ssvfscanf_r+0x30e>
200029b2:	f245 7241 	movw	r2, #22337	; 0x5741
200029b6:	2310      	movs	r3, #16
200029b8:	f2c2 0200 	movt	r2, #8192	; 0x2000
200029bc:	f04f 0c03 	mov.w	ip, #3
200029c0:	f449 7900 	orr.w	r9, r9, #512	; 0x200
200029c4:	920b      	str	r2, [sp, #44]	; 0x2c
200029c6:	46da      	mov	sl, fp
200029c8:	930a      	str	r3, [sp, #40]	; 0x28
200029ca:	f8cd c020 	str.w	ip, [sp, #32]
200029ce:	e50c      	b.n	200023ea <__ssvfscanf_r+0x30e>
200029d0:	4639      	mov	r1, r7
200029d2:	a86b      	add	r0, sp, #428	; 0x1ac
200029d4:	f001 fb46 	bl	20004064 <__sccl>
200029d8:	f049 0940 	orr.w	r9, r9, #64	; 0x40
200029dc:	2201      	movs	r2, #1
200029de:	46da      	mov	sl, fp
200029e0:	9208      	str	r2, [sp, #32]
200029e2:	4607      	mov	r7, r0
200029e4:	e501      	b.n	200023ea <__ssvfscanf_r+0x30e>
200029e6:	2300      	movs	r3, #0
200029e8:	f049 0940 	orr.w	r9, r9, #64	; 0x40
200029ec:	46da      	mov	sl, fp
200029ee:	9308      	str	r3, [sp, #32]
200029f0:	e4fb      	b.n	200023ea <__ssvfscanf_r+0x30e>
200029f2:	9809      	ldr	r0, [sp, #36]	; 0x24
200029f4:	6822      	ldr	r2, [r4, #0]
200029f6:	6806      	ldr	r6, [r0, #0]
200029f8:	4633      	mov	r3, r6
200029fa:	7812      	ldrb	r2, [r2, #0]
200029fc:	a96b      	add	r1, sp, #428	; 0x1ac
200029fe:	5c8a      	ldrb	r2, [r1, r2]
20002a00:	2a00      	cmp	r2, #0
20002a02:	f000 81f6 	beq.w	20002df2 <__ssvfscanf_r+0xd16>
20002a06:	6822      	ldr	r2, [r4, #0]
20002a08:	6861      	ldr	r1, [r4, #4]
20002a0a:	3901      	subs	r1, #1
20002a0c:	6061      	str	r1, [r4, #4]
20002a0e:	f812 1b01 	ldrb.w	r1, [r2], #1
20002a12:	f1ba 0a01 	subs.w	sl, sl, #1
20002a16:	f803 1b01 	strb.w	r1, [r3], #1
20002a1a:	6022      	str	r2, [r4, #0]
20002a1c:	f000 81e9 	beq.w	20002df2 <__ssvfscanf_r+0xd16>
20002a20:	6861      	ldr	r1, [r4, #4]
20002a22:	2900      	cmp	r1, #0
20002a24:	dce9      	bgt.n	200029fa <__ssvfscanf_r+0x91e>
20002a26:	4640      	mov	r0, r8
20002a28:	4621      	mov	r1, r4
20002a2a:	9306      	str	r3, [sp, #24]
20002a2c:	f7ff faf0 	bl	20002010 <__ssrefill_r>
20002a30:	9b06      	ldr	r3, [sp, #24]
20002a32:	2800      	cmp	r0, #0
20002a34:	f040 81da 	bne.w	20002dec <__ssvfscanf_r+0xd10>
20002a38:	6822      	ldr	r2, [r4, #0]
20002a3a:	e7de      	b.n	200029fa <__ssvfscanf_r+0x91e>
20002a3c:	eb0b 0107 	add.w	r1, fp, r7
20002a40:	b991      	cbnz	r1, 20002a68 <__ssvfscanf_r+0x98c>
20002a42:	f429 79c0 	bic.w	r9, r9, #384	; 0x180
20002a46:	f806 0b01 	strb.w	r0, [r6], #1
20002a4a:	6861      	ldr	r1, [r4, #4]
20002a4c:	3501      	adds	r5, #1
20002a4e:	3901      	subs	r1, #1
20002a50:	6061      	str	r1, [r4, #4]
20002a52:	2900      	cmp	r1, #0
20002a54:	bfc4      	itt	gt
20002a56:	f10e 0101 	addgt.w	r1, lr, #1
20002a5a:	6021      	strgt	r1, [r4, #0]
20002a5c:	f340 81ba 	ble.w	20002dd4 <__ssvfscanf_r+0xcf8>
20002a60:	f1ba 0a01 	subs.w	sl, sl, #1
20002a64:	f47f ae21 	bne.w	200026aa <__ssvfscanf_r+0x5ce>
20002a68:	930e      	str	r3, [sp, #56]	; 0x38
20002a6a:	4690      	mov	r8, r2
20002a6c:	9a0e      	ldr	r2, [sp, #56]	; 0x38
20002a6e:	463b      	mov	r3, r7
20002a70:	9f11      	ldr	r7, [sp, #68]	; 0x44
20002a72:	b10a      	cbz	r2, 20002a78 <__ssvfscanf_r+0x99c>
20002a74:	f429 7980 	bic.w	r9, r9, #256	; 0x100
20002a78:	3b01      	subs	r3, #1
20002a7a:	2b01      	cmp	r3, #1
20002a7c:	f240 8323 	bls.w	200030c6 <__ssvfscanf_r+0xfea>
20002a80:	f10b 33ff 	add.w	r3, fp, #4294967295
20002a84:	2b06      	cmp	r3, #6
20002a86:	d821      	bhi.n	20002acc <__ssvfscanf_r+0x9f0>
20002a88:	f1bb 0f02 	cmp.w	fp, #2
20002a8c:	f240 830f 	bls.w	200030ae <__ssvfscanf_r+0xfd2>
20002a90:	f1bb 0f03 	cmp.w	fp, #3
20002a94:	d01a      	beq.n	20002acc <__ssvfscanf_r+0x9f0>
20002a96:	f8cd 9044 	str.w	r9, [sp, #68]	; 0x44
20002a9a:	46da      	mov	sl, fp
20002a9c:	46b1      	mov	r9, r6
20002a9e:	f10a 3aff 	add.w	sl, sl, #4294967295
20002aa2:	4640      	mov	r0, r8
20002aa4:	f816 1d01 	ldrb.w	r1, [r6, #-1]!
20002aa8:	4622      	mov	r2, r4
20002aaa:	fa5f fa8a 	uxtb.w	sl, sl
20002aae:	f7ff facd 	bl	2000204c <_sungetc_r>
20002ab2:	f1ba 0f03 	cmp.w	sl, #3
20002ab6:	d8f2      	bhi.n	20002a9e <__ssvfscanf_r+0x9c2>
20002ab8:	f1ab 0304 	sub.w	r3, fp, #4
20002abc:	3d01      	subs	r5, #1
20002abe:	464e      	mov	r6, r9
20002ac0:	f8dd 9044 	ldr.w	r9, [sp, #68]	; 0x44
20002ac4:	b2db      	uxtb	r3, r3
20002ac6:	1aed      	subs	r5, r5, r3
20002ac8:	43db      	mvns	r3, r3
20002aca:	18f6      	adds	r6, r6, r3
20002acc:	f419 7f80 	tst.w	r9, #256	; 0x100
20002ad0:	d016      	beq.n	20002b00 <__ssvfscanf_r+0xa24>
20002ad2:	f419 6f80 	tst.w	r9, #1024	; 0x400
20002ad6:	f040 830b 	bne.w	200030f0 <__ssvfscanf_r+0x1014>
20002ada:	f816 1d01 	ldrb.w	r1, [r6, #-1]!
20002ade:	3d01      	subs	r5, #1
20002ae0:	f1b1 0365 	subs.w	r3, r1, #101	; 0x65
20002ae4:	bf18      	it	ne
20002ae6:	2301      	movne	r3, #1
20002ae8:	2945      	cmp	r1, #69	; 0x45
20002aea:	bf0c      	ite	eq
20002aec:	2300      	moveq	r3, #0
20002aee:	f003 0301 	andne.w	r3, r3, #1
20002af2:	2b00      	cmp	r3, #0
20002af4:	f040 8259 	bne.w	20002faa <__ssvfscanf_r+0xece>
20002af8:	4640      	mov	r0, r8
20002afa:	4622      	mov	r2, r4
20002afc:	f7ff faa6 	bl	2000204c <_sungetc_r>
20002b00:	f019 0210 	ands.w	r2, r9, #16
20002b04:	f47f ab0d 	bne.w	20002122 <__ssvfscanf_r+0x46>
20002b08:	f409 63c0 	and.w	r3, r9, #1536	; 0x600
20002b0c:	7032      	strb	r2, [r6, #0]
20002b0e:	f5b3 6f80 	cmp.w	r3, #1024	; 0x400
20002b12:	f000 8240 	beq.w	20002f96 <__ssvfscanf_r+0xeba>
20002b16:	9810      	ldr	r0, [sp, #64]	; 0x40
20002b18:	2800      	cmp	r0, #0
20002b1a:	f040 8224 	bne.w	20002f66 <__ssvfscanf_r+0xe8a>
20002b1e:	2200      	movs	r2, #0
20002b20:	4640      	mov	r0, r8
20002b22:	a913      	add	r1, sp, #76	; 0x4c
20002b24:	f001 fc60 	bl	200043e8 <_strtod_r>
20002b28:	f019 0f01 	tst.w	r9, #1
20002b2c:	4682      	mov	sl, r0
20002b2e:	468b      	mov	fp, r1
20002b30:	f000 81e8 	beq.w	20002f04 <__ssvfscanf_r+0xe28>
20002b34:	9a09      	ldr	r2, [sp, #36]	; 0x24
20002b36:	1d16      	adds	r6, r2, #4
20002b38:	6813      	ldr	r3, [r2, #0]
20002b3a:	e9c3 ab00 	strd	sl, fp, [r3]
20002b3e:	9b0c      	ldr	r3, [sp, #48]	; 0x30
20002b40:	9609      	str	r6, [sp, #36]	; 0x24
20002b42:	3301      	adds	r3, #1
20002b44:	930c      	str	r3, [sp, #48]	; 0x30
20002b46:	f7ff baec 	b.w	20002122 <__ssvfscanf_r+0x46>
20002b4a:	f419 7f80 	tst.w	r9, #256	; 0x100
20002b4e:	f43f af75 	beq.w	20002a3c <__ssvfscanf_r+0x960>
20002b52:	f029 0980 	bic.w	r9, r9, #128	; 0x80
20002b56:	3301      	adds	r3, #1
20002b58:	f1b8 0f00 	cmp.w	r8, #0
20002b5c:	f43f af75 	beq.w	20002a4a <__ssvfscanf_r+0x96e>
20002b60:	f108 38ff 	add.w	r8, r8, #4294967295
20002b64:	f10a 0a01 	add.w	sl, sl, #1
20002b68:	e76f      	b.n	20002a4a <__ssvfscanf_r+0x96e>
20002b6a:	f419 7f00 	tst.w	r9, #512	; 0x200
20002b6e:	f43f af7b 	beq.w	20002a68 <__ssvfscanf_r+0x98c>
20002b72:	f429 7920 	bic.w	r9, r9, #640	; 0x280
20002b76:	930f      	str	r3, [sp, #60]	; 0x3c
20002b78:	e765      	b.n	20002a46 <__ssvfscanf_r+0x96a>
20002b7a:	f019 0f80 	tst.w	r9, #128	; 0x80
20002b7e:	f43f af73 	beq.w	20002a68 <__ssvfscanf_r+0x98c>
20002b82:	f029 0980 	bic.w	r9, r9, #128	; 0x80
20002b86:	e75e      	b.n	20002a46 <__ssvfscanf_r+0x96a>
20002b88:	f1bb 0f06 	cmp.w	fp, #6
20002b8c:	f47f af6c 	bne.w	20002a68 <__ssvfscanf_r+0x98c>
20002b90:	f04f 0b07 	mov.w	fp, #7
20002b94:	e757      	b.n	20002a46 <__ssvfscanf_r+0x96a>
20002b96:	f1d7 0101 	rsbs	r1, r7, #1
20002b9a:	bf38      	it	cc
20002b9c:	2100      	movcc	r1, #0
20002b9e:	2b00      	cmp	r3, #0
20002ba0:	bf14      	ite	ne
20002ba2:	2100      	movne	r1, #0
20002ba4:	f001 0101 	andeq.w	r1, r1, #1
20002ba8:	2900      	cmp	r1, #0
20002baa:	f000 8133 	beq.w	20002e14 <__ssvfscanf_r+0xd38>
20002bae:	f409 61e0 	and.w	r1, r9, #1792	; 0x700
20002bb2:	f5b1 6fe0 	cmp.w	r1, #1792	; 0x700
20002bb6:	f000 81d1 	beq.w	20002f5c <__ssvfscanf_r+0xe80>
20002bba:	f1bb 0f01 	cmp.w	fp, #1
20002bbe:	bf14      	ite	ne
20002bc0:	2100      	movne	r1, #0
20002bc2:	2101      	moveq	r1, #1
20002bc4:	f1bb 0f04 	cmp.w	fp, #4
20002bc8:	bf08      	it	eq
20002bca:	f041 0101 	orreq.w	r1, r1, #1
20002bce:	2900      	cmp	r1, #0
20002bd0:	f43f af4a 	beq.w	20002a68 <__ssvfscanf_r+0x98c>
20002bd4:	f10b 0b01 	add.w	fp, fp, #1
20002bd8:	fa5f fb8b 	uxtb.w	fp, fp
20002bdc:	e733      	b.n	20002a46 <__ssvfscanf_r+0x96a>
20002bde:	f1bb 0f07 	cmp.w	fp, #7
20002be2:	f47f af41 	bne.w	20002a68 <__ssvfscanf_r+0x98c>
20002be6:	f04f 0b08 	mov.w	fp, #8
20002bea:	e72c      	b.n	20002a46 <__ssvfscanf_r+0x96a>
20002bec:	f1db 0101 	rsbs	r1, fp, #1
20002bf0:	bf38      	it	cc
20002bf2:	2100      	movcc	r1, #0
20002bf4:	2b00      	cmp	r3, #0
20002bf6:	bf14      	ite	ne
20002bf8:	2100      	movne	r1, #0
20002bfa:	f001 0101 	andeq.w	r1, r1, #1
20002bfe:	b129      	cbz	r1, 20002c0c <__ssvfscanf_r+0xb30>
20002c00:	f409 61e0 	and.w	r1, r9, #1792	; 0x700
20002c04:	f5b1 6fe0 	cmp.w	r1, #1792	; 0x700
20002c08:	f000 81e0 	beq.w	20002fcc <__ssvfscanf_r+0xef0>
20002c0c:	f1bb 0f03 	cmp.w	fp, #3
20002c10:	bf14      	ite	ne
20002c12:	2100      	movne	r1, #0
20002c14:	2101      	moveq	r1, #1
20002c16:	f1bb 0f05 	cmp.w	fp, #5
20002c1a:	bf08      	it	eq
20002c1c:	f041 0101 	orreq.w	r1, r1, #1
20002c20:	2900      	cmp	r1, #0
20002c22:	d1d7      	bne.n	20002bd4 <__ssvfscanf_r+0xaf8>
20002c24:	e720      	b.n	20002a68 <__ssvfscanf_r+0x98c>
20002c26:	f1bb 0f02 	cmp.w	fp, #2
20002c2a:	f47f af1d 	bne.w	20002a68 <__ssvfscanf_r+0x98c>
20002c2e:	f04f 0b03 	mov.w	fp, #3
20002c32:	e708      	b.n	20002a46 <__ssvfscanf_r+0x96a>
20002c34:	f409 61a0 	and.w	r1, r9, #1280	; 0x500
20002c38:	f5b1 6f80 	cmp.w	r1, #1024	; 0x400
20002c3c:	d006      	beq.n	20002c4c <__ssvfscanf_r+0xb70>
20002c3e:	1e19      	subs	r1, r3, #0
20002c40:	bf18      	it	ne
20002c42:	2101      	movne	r1, #1
20002c44:	ea11 2199 	ands.w	r1, r1, r9, lsr #10
20002c48:	f43f af0e 	beq.w	20002a68 <__ssvfscanf_r+0x98c>
20002c4c:	f419 7f00 	tst.w	r9, #512	; 0x200
20002c50:	d103      	bne.n	20002c5a <__ssvfscanf_r+0xb7e>
20002c52:	990f      	ldr	r1, [sp, #60]	; 0x3c
20002c54:	9608      	str	r6, [sp, #32]
20002c56:	1a5b      	subs	r3, r3, r1
20002c58:	9310      	str	r3, [sp, #64]	; 0x40
20002c5a:	f429 69f0 	bic.w	r9, r9, #1920	; 0x780
20002c5e:	2300      	movs	r3, #0
20002c60:	f449 79c0 	orr.w	r9, r9, #384	; 0x180
20002c64:	e6ef      	b.n	20002a46 <__ssvfscanf_r+0x96a>
20002c66:	2f01      	cmp	r7, #1
20002c68:	f47f aefe 	bne.w	20002a68 <__ssvfscanf_r+0x98c>
20002c6c:	2702      	movs	r7, #2
20002c6e:	e6ea      	b.n	20002a46 <__ssvfscanf_r+0x96a>
20002c70:	f5ab 72ae 	sub.w	r2, fp, #348	; 0x15c
20002c74:	f240 1a5d 	movw	sl, #349	; 0x15d
20002c78:	3a01      	subs	r2, #1
20002c7a:	e503      	b.n	20002684 <__ssvfscanf_r+0x5a8>
20002c7c:	f019 0910 	ands.w	r9, r9, #16
20002c80:	d129      	bne.n	20002cd6 <__ssvfscanf_r+0xbfa>
20002c82:	9809      	ldr	r0, [sp, #36]	; 0x24
20002c84:	4656      	mov	r6, sl
20002c86:	46d1      	mov	r9, sl
20002c88:	46aa      	mov	sl, r5
20002c8a:	f8d0 b000 	ldr.w	fp, [r0]
20002c8e:	6865      	ldr	r5, [r4, #4]
20002c90:	4658      	mov	r0, fp
20002c92:	42ae      	cmp	r6, r5
20002c94:	462a      	mov	r2, r5
20002c96:	f240 81f7 	bls.w	20003088 <__ssvfscanf_r+0xfac>
20002c9a:	6821      	ldr	r1, [r4, #0]
20002c9c:	1b76      	subs	r6, r6, r5
20002c9e:	f000 fec7 	bl	20003a30 <memcpy>
20002ca2:	6823      	ldr	r3, [r4, #0]
20002ca4:	2100      	movs	r1, #0
20002ca6:	4640      	mov	r0, r8
20002ca8:	6061      	str	r1, [r4, #4]
20002caa:	195b      	adds	r3, r3, r5
20002cac:	4621      	mov	r1, r4
20002cae:	6023      	str	r3, [r4, #0]
20002cb0:	44ab      	add	fp, r5
20002cb2:	f7ff f9ad 	bl	20002010 <__ssrefill_r>
20002cb6:	2800      	cmp	r0, #0
20002cb8:	d0e9      	beq.n	20002c8e <__ssvfscanf_r+0xbb2>
20002cba:	4655      	mov	r5, sl
20002cbc:	ebb9 0a06 	subs.w	sl, r9, r6
20002cc0:	f43f ab79 	beq.w	200023b6 <__ssvfscanf_r+0x2da>
20002cc4:	9a09      	ldr	r2, [sp, #36]	; 0x24
20002cc6:	4455      	add	r5, sl
20002cc8:	9b0c      	ldr	r3, [sp, #48]	; 0x30
20002cca:	3204      	adds	r2, #4
20002ccc:	9209      	str	r2, [sp, #36]	; 0x24
20002cce:	3301      	adds	r3, #1
20002cd0:	930c      	str	r3, [sp, #48]	; 0x30
20002cd2:	f7ff ba26 	b.w	20002122 <__ssvfscanf_r+0x46>
20002cd6:	6863      	ldr	r3, [r4, #4]
20002cd8:	4640      	mov	r0, r8
20002cda:	4621      	mov	r1, r4
20002cdc:	4553      	cmp	r3, sl
20002cde:	f280 81af 	bge.w	20003040 <__ssvfscanf_r+0xf64>
20002ce2:	6822      	ldr	r2, [r4, #0]
20002ce4:	18f6      	adds	r6, r6, r3
20002ce6:	ebc3 0a0a 	rsb	sl, r3, sl
20002cea:	18d3      	adds	r3, r2, r3
20002cec:	6023      	str	r3, [r4, #0]
20002cee:	f7ff f98f 	bl	20002010 <__ssrefill_r>
20002cf2:	2800      	cmp	r0, #0
20002cf4:	d0ef      	beq.n	20002cd6 <__ssvfscanf_r+0xbfa>
20002cf6:	2e00      	cmp	r6, #0
20002cf8:	f43f ab5d 	beq.w	200023b6 <__ssvfscanf_r+0x2da>
20002cfc:	19ad      	adds	r5, r5, r6
20002cfe:	f7ff ba10 	b.w	20002122 <__ssvfscanf_r+0x46>
20002d02:	4648      	mov	r0, r9
20002d04:	4621      	mov	r1, r4
20002d06:	f7ff f983 	bl	20002010 <__ssrefill_r>
20002d0a:	2800      	cmp	r0, #0
20002d0c:	f43f aca9 	beq.w	20002662 <__ssvfscanf_r+0x586>
20002d10:	4655      	mov	r5, sl
20002d12:	9f0e      	ldr	r7, [sp, #56]	; 0x38
20002d14:	46c8      	mov	r8, r9
20002d16:	2e00      	cmp	r6, #0
20002d18:	f43f aca8 	beq.w	2000266c <__ssvfscanf_r+0x590>
20002d1c:	f7ff bb4b 	b.w	200023b6 <__ssvfscanf_r+0x2da>
20002d20:	f019 0f10 	tst.w	r9, #16
20002d24:	bf1c      	itt	ne
20002d26:	4699      	movne	r9, r3
20002d28:	6823      	ldrne	r3, [r4, #0]
20002d2a:	d12f      	bne.n	20002d8c <__ssvfscanf_r+0xcb0>
20002d2c:	9809      	ldr	r0, [sp, #36]	; 0x24
20002d2e:	6822      	ldr	r2, [r4, #0]
20002d30:	f8d0 9000 	ldr.w	r9, [r0]
20002d34:	464b      	mov	r3, r9
20002d36:	7811      	ldrb	r1, [r2, #0]
20002d38:	6832      	ldr	r2, [r6, #0]
20002d3a:	188a      	adds	r2, r1, r2
20002d3c:	7852      	ldrb	r2, [r2, #1]
20002d3e:	f012 0f08 	tst.w	r2, #8
20002d42:	f040 80b0 	bne.w	20002ea6 <__ssvfscanf_r+0xdca>
20002d46:	6822      	ldr	r2, [r4, #0]
20002d48:	6861      	ldr	r1, [r4, #4]
20002d4a:	3901      	subs	r1, #1
20002d4c:	6061      	str	r1, [r4, #4]
20002d4e:	f812 1b01 	ldrb.w	r1, [r2], #1
20002d52:	f1ba 0a01 	subs.w	sl, sl, #1
20002d56:	f803 1b01 	strb.w	r1, [r3], #1
20002d5a:	6022      	str	r2, [r4, #0]
20002d5c:	f000 80a3 	beq.w	20002ea6 <__ssvfscanf_r+0xdca>
20002d60:	6861      	ldr	r1, [r4, #4]
20002d62:	2900      	cmp	r1, #0
20002d64:	dce7      	bgt.n	20002d36 <__ssvfscanf_r+0xc5a>
20002d66:	4640      	mov	r0, r8
20002d68:	4621      	mov	r1, r4
20002d6a:	9306      	str	r3, [sp, #24]
20002d6c:	f7ff f950 	bl	20002010 <__ssrefill_r>
20002d70:	9b06      	ldr	r3, [sp, #24]
20002d72:	2800      	cmp	r0, #0
20002d74:	f040 8097 	bne.w	20002ea6 <__ssvfscanf_r+0xdca>
20002d78:	6822      	ldr	r2, [r4, #0]
20002d7a:	e7dc      	b.n	20002d36 <__ssvfscanf_r+0xc5a>
20002d7c:	4640      	mov	r0, r8
20002d7e:	4621      	mov	r1, r4
20002d80:	f7ff f946 	bl	20002010 <__ssrefill_r>
20002d84:	2800      	cmp	r0, #0
20002d86:	f47f ad4b 	bne.w	20002820 <__ssvfscanf_r+0x744>
20002d8a:	6823      	ldr	r3, [r4, #0]
20002d8c:	7819      	ldrb	r1, [r3, #0]
20002d8e:	3301      	adds	r3, #1
20002d90:	6832      	ldr	r2, [r6, #0]
20002d92:	188a      	adds	r2, r1, r2
20002d94:	7852      	ldrb	r2, [r2, #1]
20002d96:	f012 0f08 	tst.w	r2, #8
20002d9a:	f47f ad41 	bne.w	20002820 <__ssvfscanf_r+0x744>
20002d9e:	6862      	ldr	r2, [r4, #4]
20002da0:	f109 0901 	add.w	r9, r9, #1
20002da4:	6023      	str	r3, [r4, #0]
20002da6:	3a01      	subs	r2, #1
20002da8:	45d1      	cmp	r9, sl
20002daa:	6062      	str	r2, [r4, #4]
20002dac:	f43f ad38 	beq.w	20002820 <__ssvfscanf_r+0x744>
20002db0:	2a00      	cmp	r2, #0
20002db2:	dceb      	bgt.n	20002d8c <__ssvfscanf_r+0xcb0>
20002db4:	e7e2      	b.n	20002d7c <__ssvfscanf_r+0xca0>
20002db6:	f110 0f02 	cmn.w	r0, #2
20002dba:	f43f ac4e 	beq.w	2000265a <__ssvfscanf_r+0x57e>
20002dbe:	9a08      	ldr	r2, [sp, #32]
20002dc0:	44b2      	add	sl, r6
20002dc2:	3d01      	subs	r5, #1
20002dc4:	2a00      	cmp	r2, #0
20002dc6:	f47f ac47 	bne.w	20002658 <__ssvfscanf_r+0x57c>
20002dca:	9b0f      	ldr	r3, [sp, #60]	; 0x3c
20002dcc:	9e08      	ldr	r6, [sp, #32]
20002dce:	3304      	adds	r3, #4
20002dd0:	930f      	str	r3, [sp, #60]	; 0x3c
20002dd2:	e442      	b.n	2000265a <__ssvfscanf_r+0x57e>
20002dd4:	4610      	mov	r0, r2
20002dd6:	4621      	mov	r1, r4
20002dd8:	9207      	str	r2, [sp, #28]
20002dda:	9306      	str	r3, [sp, #24]
20002ddc:	f7ff f918 	bl	20002010 <__ssrefill_r>
20002de0:	9a07      	ldr	r2, [sp, #28]
20002de2:	9b06      	ldr	r3, [sp, #24]
20002de4:	2800      	cmp	r0, #0
20002de6:	f43f ae3b 	beq.w	20002a60 <__ssvfscanf_r+0x984>
20002dea:	e63d      	b.n	20002a68 <__ssvfscanf_r+0x98c>
20002dec:	429e      	cmp	r6, r3
20002dee:	f43f aae2 	beq.w	200023b6 <__ssvfscanf_r+0x2da>
20002df2:	1b9e      	subs	r6, r3, r6
20002df4:	f43f a9c0 	beq.w	20002178 <__ssvfscanf_r+0x9c>
20002df8:	9a09      	ldr	r2, [sp, #36]	; 0x24
20002dfa:	19ad      	adds	r5, r5, r6
20002dfc:	f8dd c030 	ldr.w	ip, [sp, #48]	; 0x30
20002e00:	3204      	adds	r2, #4
20002e02:	9209      	str	r2, [sp, #36]	; 0x24
20002e04:	f10c 0c01 	add.w	ip, ip, #1
20002e08:	2200      	movs	r2, #0
20002e0a:	f8cd c030 	str.w	ip, [sp, #48]	; 0x30
20002e0e:	701a      	strb	r2, [r3, #0]
20002e10:	f7ff b987 	b.w	20002122 <__ssvfscanf_r+0x46>
20002e14:	2f02      	cmp	r7, #2
20002e16:	f47f aed0 	bne.w	20002bba <__ssvfscanf_r+0xade>
20002e1a:	3701      	adds	r7, #1
20002e1c:	e613      	b.n	20002a46 <__ssvfscanf_r+0x96a>
20002e1e:	9e0d      	ldr	r6, [sp, #52]	; 0x34
20002e20:	6831      	ldr	r1, [r6, #0]
20002e22:	4589      	cmp	r9, r1
20002e24:	f43f aac7 	beq.w	200023b6 <__ssvfscanf_r+0x2da>
20002e28:	6861      	ldr	r1, [r4, #4]
20002e2a:	f10d 0c4c 	add.w	ip, sp, #76	; 0x4c
20002e2e:	3201      	adds	r2, #1
20002e30:	a8ab      	add	r0, sp, #684	; 0x2ac
20002e32:	f80c 3009 	strb.w	r3, [ip, r9]
20002e36:	3901      	subs	r1, #1
20002e38:	6022      	str	r2, [r4, #0]
20002e3a:	f109 0901 	add.w	r9, r9, #1
20002e3e:	2208      	movs	r2, #8
20002e40:	6061      	str	r1, [r4, #4]
20002e42:	2100      	movs	r1, #0
20002e44:	aeab      	add	r6, sp, #684	; 0x2ac
20002e46:	f000 febb 	bl	20003bc0 <memset>
20002e4a:	4640      	mov	r0, r8
20002e4c:	4629      	mov	r1, r5
20002e4e:	aa13      	add	r2, sp, #76	; 0x4c
20002e50:	464b      	mov	r3, r9
20002e52:	9600      	str	r6, [sp, #0]
20002e54:	f000 fda2 	bl	2000399c <_mbrtowc_r>
20002e58:	f1b0 3fff 	cmp.w	r0, #4294967295
20002e5c:	f43f aaab 	beq.w	200023b6 <__ssvfscanf_r+0x2da>
20002e60:	2800      	cmp	r0, #0
20002e62:	d159      	bne.n	20002f18 <__ssvfscanf_r+0xe3c>
20002e64:	6028      	str	r0, [r5, #0]
20002e66:	f000 fd51 	bl	2000390c <iswspace>
20002e6a:	4603      	mov	r3, r0
20002e6c:	2800      	cmp	r0, #0
20002e6e:	f000 80a4 	beq.w	20002fba <__ssvfscanf_r+0xede>
20002e72:	465b      	mov	r3, fp
20002e74:	46ab      	mov	fp, r5
20002e76:	463d      	mov	r5, r7
20002e78:	461f      	mov	r7, r3
20002e7a:	f1b9 0f00 	cmp.w	r9, #0
20002e7e:	f43f ab8c 	beq.w	2000259a <__ssvfscanf_r+0x4be>
20002e82:	f10d 0c4c 	add.w	ip, sp, #76	; 0x4c
20002e86:	46a2      	mov	sl, r4
20002e88:	eb0c 0609 	add.w	r6, ip, r9
20002e8c:	464c      	mov	r4, r9
20002e8e:	3c01      	subs	r4, #1
20002e90:	4640      	mov	r0, r8
20002e92:	f816 1d01 	ldrb.w	r1, [r6, #-1]!
20002e96:	4652      	mov	r2, sl
20002e98:	f7ff f8d8 	bl	2000204c <_sungetc_r>
20002e9c:	2c00      	cmp	r4, #0
20002e9e:	d1f6      	bne.n	20002e8e <__ssvfscanf_r+0xdb2>
20002ea0:	4654      	mov	r4, sl
20002ea2:	f7ff bb7a 	b.w	2000259a <__ssvfscanf_r+0x4be>
20002ea6:	9909      	ldr	r1, [sp, #36]	; 0x24
20002ea8:	ebc9 0505 	rsb	r5, r9, r5
20002eac:	9a0c      	ldr	r2, [sp, #48]	; 0x30
20002eae:	18ed      	adds	r5, r5, r3
20002eb0:	3104      	adds	r1, #4
20002eb2:	9109      	str	r1, [sp, #36]	; 0x24
20002eb4:	3201      	adds	r2, #1
20002eb6:	920c      	str	r2, [sp, #48]	; 0x30
20002eb8:	2200      	movs	r2, #0
20002eba:	701a      	strb	r2, [r3, #0]
20002ebc:	f7ff b931 	b.w	20002122 <__ssvfscanf_r+0x46>
20002ec0:	f889 2000 	strb.w	r2, [r9]
20002ec4:	f10d 0a4c 	add.w	sl, sp, #76	; 0x4c
20002ec8:	f8cd c01c 	str.w	ip, [sp, #28]
20002ecc:	4640      	mov	r0, r8
20002ece:	4651      	mov	r1, sl
20002ed0:	9b0a      	ldr	r3, [sp, #40]	; 0x28
20002ed2:	9e0b      	ldr	r6, [sp, #44]	; 0x2c
20002ed4:	47b0      	blx	r6
20002ed6:	f8dd c01c 	ldr.w	ip, [sp, #28]
20002eda:	f01c 0f20 	tst.w	ip, #32
20002ede:	d033      	beq.n	20002f48 <__ssvfscanf_r+0xe6c>
20002ee0:	9909      	ldr	r1, [sp, #36]	; 0x24
20002ee2:	680b      	ldr	r3, [r1, #0]
20002ee4:	3104      	adds	r1, #4
20002ee6:	9109      	str	r1, [sp, #36]	; 0x24
20002ee8:	6018      	str	r0, [r3, #0]
20002eea:	f8dd c030 	ldr.w	ip, [sp, #48]	; 0x30
20002eee:	f10c 0c01 	add.w	ip, ip, #1
20002ef2:	f8cd c030 	str.w	ip, [sp, #48]	; 0x30
20002ef6:	e48f      	b.n	20002818 <__ssvfscanf_r+0x73c>
20002ef8:	2e00      	cmp	r6, #0
20002efa:	f43f a93d 	beq.w	20002178 <__ssvfscanf_r+0x9c>
20002efe:	19ad      	adds	r5, r5, r6
20002f00:	f7ff b90f 	b.w	20002122 <__ssvfscanf_r+0x46>
20002f04:	f019 0302 	ands.w	r3, r9, #2
20002f08:	f000 8089 	beq.w	2000301e <__ssvfscanf_r+0xf42>
20002f0c:	9e09      	ldr	r6, [sp, #36]	; 0x24
20002f0e:	6833      	ldr	r3, [r6, #0]
20002f10:	3604      	adds	r6, #4
20002f12:	e9c3 ab00 	strd	sl, fp, [r3]
20002f16:	e612      	b.n	20002b3e <__ssvfscanf_r+0xa62>
20002f18:	f110 0f02 	cmn.w	r0, #2
20002f1c:	d17d      	bne.n	2000301a <__ssvfscanf_r+0xf3e>
20002f1e:	6863      	ldr	r3, [r4, #4]
20002f20:	2b00      	cmp	r3, #0
20002f22:	f73f ab23 	bgt.w	2000256c <__ssvfscanf_r+0x490>
20002f26:	4640      	mov	r0, r8
20002f28:	4621      	mov	r1, r4
20002f2a:	f7ff f871 	bl	20002010 <__ssrefill_r>
20002f2e:	2800      	cmp	r0, #0
20002f30:	f43f ab1c 	beq.w	2000256c <__ssvfscanf_r+0x490>
20002f34:	465b      	mov	r3, fp
20002f36:	46ab      	mov	fp, r5
20002f38:	463d      	mov	r5, r7
20002f3a:	461f      	mov	r7, r3
20002f3c:	f1b9 0f00 	cmp.w	r9, #0
20002f40:	f47f aa39 	bne.w	200023b6 <__ssvfscanf_r+0x2da>
20002f44:	f7ff bb29 	b.w	2000259a <__ssvfscanf_r+0x4be>
20002f48:	f01c 0f04 	tst.w	ip, #4
20002f4c:	f000 8083 	beq.w	20003056 <__ssvfscanf_r+0xf7a>
20002f50:	9a09      	ldr	r2, [sp, #36]	; 0x24
20002f52:	6813      	ldr	r3, [r2, #0]
20002f54:	3204      	adds	r2, #4
20002f56:	9209      	str	r2, [sp, #36]	; 0x24
20002f58:	8018      	strh	r0, [r3, #0]
20002f5a:	e7c6      	b.n	20002eea <__ssvfscanf_r+0xe0e>
20002f5c:	f429 69f0 	bic.w	r9, r9, #1920	; 0x780
20002f60:	2701      	movs	r7, #1
20002f62:	2300      	movs	r3, #0
20002f64:	e56f      	b.n	20002a46 <__ssvfscanf_r+0x96a>
20002f66:	9b08      	ldr	r3, [sp, #32]
20002f68:	4640      	mov	r0, r8
20002f6a:	1c59      	adds	r1, r3, #1
20002f6c:	230a      	movs	r3, #10
20002f6e:	f002 fa43 	bl	200053f8 <_strtol_r>
20002f72:	9e10      	ldr	r6, [sp, #64]	; 0x40
20002f74:	1b82      	subs	r2, r0, r6
20002f76:	9808      	ldr	r0, [sp, #32]
20002f78:	f8dd c00c 	ldr.w	ip, [sp, #12]
20002f7c:	4584      	cmp	ip, r0
20002f7e:	bf9c      	itt	ls
20002f80:	f50d 71cf 	addls.w	r1, sp, #414	; 0x19e
20002f84:	9108      	strls	r1, [sp, #32]
20002f86:	f64a 0118 	movw	r1, #43032	; 0xa818
20002f8a:	9808      	ldr	r0, [sp, #32]
20002f8c:	f2c2 0100 	movt	r1, #8192	; 0x2000
20002f90:	f001 f8a8 	bl	200040e4 <sprintf>
20002f94:	e5c3      	b.n	20002b1e <__ssvfscanf_r+0xa42>
20002f96:	9b0e      	ldr	r3, [sp, #56]	; 0x38
20002f98:	f8dd c03c 	ldr.w	ip, [sp, #60]	; 0x3c
20002f9c:	ebb3 020c 	subs.w	r2, r3, ip
20002fa0:	f43f adbd 	beq.w	20002b1e <__ssvfscanf_r+0xa42>
20002fa4:	4252      	negs	r2, r2
20002fa6:	9608      	str	r6, [sp, #32]
20002fa8:	e7e5      	b.n	20002f76 <__ssvfscanf_r+0xe9a>
20002faa:	4640      	mov	r0, r8
20002fac:	4622      	mov	r2, r4
20002fae:	f7ff f84d 	bl	2000204c <_sungetc_r>
20002fb2:	3d01      	subs	r5, #1
20002fb4:	f816 1d01 	ldrb.w	r1, [r6, #-1]!
20002fb8:	e59e      	b.n	20002af8 <__ssvfscanf_r+0xa1c>
20002fba:	9808      	ldr	r0, [sp, #32]
20002fbc:	444f      	add	r7, r9
20002fbe:	f10a 3aff 	add.w	sl, sl, #4294967295
20002fc2:	bb08      	cbnz	r0, 20003008 <__ssvfscanf_r+0xf2c>
20002fc4:	3504      	adds	r5, #4
20002fc6:	f8dd 9020 	ldr.w	r9, [sp, #32]
20002fca:	e7a8      	b.n	20002f1e <__ssvfscanf_r+0xe42>
20002fcc:	f429 69f0 	bic.w	r9, r9, #1920	; 0x780
20002fd0:	f04f 0b01 	mov.w	fp, #1
20002fd4:	2300      	movs	r3, #0
20002fd6:	e536      	b.n	20002a46 <__ssvfscanf_r+0x96a>
20002fd8:	f019 0f01 	tst.w	r9, #1
20002fdc:	d10d      	bne.n	20002ffa <__ssvfscanf_r+0xf1e>
20002fde:	f019 0f02 	tst.w	r9, #2
20002fe2:	d013      	beq.n	2000300c <__ssvfscanf_r+0xf30>
20002fe4:	9909      	ldr	r1, [sp, #36]	; 0x24
20002fe6:	680b      	ldr	r3, [r1, #0]
20002fe8:	3104      	adds	r1, #4
20002fea:	9109      	str	r1, [sp, #36]	; 0x24
20002fec:	4628      	mov	r0, r5
20002fee:	ea4f 71e0 	mov.w	r1, r0, asr #31
20002ff2:	e9c3 0100 	strd	r0, r1, [r3]
20002ff6:	f7ff b894 	b.w	20002122 <__ssvfscanf_r+0x46>
20002ffa:	9809      	ldr	r0, [sp, #36]	; 0x24
20002ffc:	6803      	ldr	r3, [r0, #0]
20002ffe:	3004      	adds	r0, #4
20003000:	9009      	str	r0, [sp, #36]	; 0x24
20003002:	601d      	str	r5, [r3, #0]
20003004:	f7ff b88d 	b.w	20002122 <__ssvfscanf_r+0x46>
20003008:	4699      	mov	r9, r3
2000300a:	e788      	b.n	20002f1e <__ssvfscanf_r+0xe42>
2000300c:	9a09      	ldr	r2, [sp, #36]	; 0x24
2000300e:	6813      	ldr	r3, [r2, #0]
20003010:	3204      	adds	r2, #4
20003012:	9209      	str	r2, [sp, #36]	; 0x24
20003014:	601d      	str	r5, [r3, #0]
20003016:	f7ff b884 	b.w	20002122 <__ssvfscanf_r+0x46>
2000301a:	6828      	ldr	r0, [r5, #0]
2000301c:	e723      	b.n	20002e66 <__ssvfscanf_r+0xd8a>
2000301e:	9a09      	ldr	r2, [sp, #36]	; 0x24
20003020:	9306      	str	r3, [sp, #24]
20003022:	1d16      	adds	r6, r2, #4
20003024:	f8d2 9000 	ldr.w	r9, [r2]
20003028:	f001 f80e 	bl	20004048 <__isnand>
2000302c:	9b06      	ldr	r3, [sp, #24]
2000302e:	2800      	cmp	r0, #0
20003030:	d155      	bne.n	200030de <__ssvfscanf_r+0x1002>
20003032:	4650      	mov	r0, sl
20003034:	4659      	mov	r1, fp
20003036:	f006 ff87 	bl	20009f48 <__aeabi_d2f>
2000303a:	f8c9 0000 	str.w	r0, [r9]
2000303e:	e57e      	b.n	20002b3e <__ssvfscanf_r+0xa62>
20003040:	6822      	ldr	r2, [r4, #0]
20003042:	4456      	add	r6, sl
20003044:	ebca 0303 	rsb	r3, sl, r3
20003048:	19ad      	adds	r5, r5, r6
2000304a:	6063      	str	r3, [r4, #4]
2000304c:	eb02 030a 	add.w	r3, r2, sl
20003050:	6023      	str	r3, [r4, #0]
20003052:	f7ff b866 	b.w	20002122 <__ssvfscanf_r+0x46>
20003056:	f01c 0201 	ands.w	r2, ip, #1
2000305a:	d122      	bne.n	200030a2 <__ssvfscanf_r+0xfc6>
2000305c:	f01c 0f02 	tst.w	ip, #2
20003060:	d01f      	beq.n	200030a2 <__ssvfscanf_r+0xfc6>
20003062:	980b      	ldr	r0, [sp, #44]	; 0x2c
20003064:	f245 7341 	movw	r3, #22337	; 0x5741
20003068:	f2c2 0300 	movt	r3, #8192	; 0x2000
2000306c:	4651      	mov	r1, sl
2000306e:	4298      	cmp	r0, r3
20003070:	4640      	mov	r0, r8
20003072:	9b0a      	ldr	r3, [sp, #40]	; 0x28
20003074:	d039      	beq.n	200030ea <__ssvfscanf_r+0x100e>
20003076:	f002 fa6b 	bl	20005550 <_strtoll_r>
2000307a:	9a09      	ldr	r2, [sp, #36]	; 0x24
2000307c:	6813      	ldr	r3, [r2, #0]
2000307e:	3204      	adds	r2, #4
20003080:	9209      	str	r2, [sp, #36]	; 0x24
20003082:	6059      	str	r1, [r3, #4]
20003084:	6018      	str	r0, [r3, #0]
20003086:	e730      	b.n	20002eea <__ssvfscanf_r+0xe0e>
20003088:	4632      	mov	r2, r6
2000308a:	6821      	ldr	r1, [r4, #0]
2000308c:	f000 fcd0 	bl	20003a30 <memcpy>
20003090:	6862      	ldr	r2, [r4, #4]
20003092:	6823      	ldr	r3, [r4, #0]
20003094:	4655      	mov	r5, sl
20003096:	1b92      	subs	r2, r2, r6
20003098:	46ca      	mov	sl, r9
2000309a:	199e      	adds	r6, r3, r6
2000309c:	6062      	str	r2, [r4, #4]
2000309e:	6026      	str	r6, [r4, #0]
200030a0:	e610      	b.n	20002cc4 <__ssvfscanf_r+0xbe8>
200030a2:	9e09      	ldr	r6, [sp, #36]	; 0x24
200030a4:	6833      	ldr	r3, [r6, #0]
200030a6:	3604      	adds	r6, #4
200030a8:	9609      	str	r6, [sp, #36]	; 0x24
200030aa:	6018      	str	r0, [r3, #0]
200030ac:	e71d      	b.n	20002eea <__ssvfscanf_r+0xe0e>
200030ae:	ad13      	add	r5, sp, #76	; 0x4c
200030b0:	e003      	b.n	200030ba <__ssvfscanf_r+0xfde>
200030b2:	f816 1d01 	ldrb.w	r1, [r6, #-1]!
200030b6:	f7fe ffc9 	bl	2000204c <_sungetc_r>
200030ba:	42b5      	cmp	r5, r6
200030bc:	4640      	mov	r0, r8
200030be:	4622      	mov	r2, r4
200030c0:	d3f7      	bcc.n	200030b2 <__ssvfscanf_r+0xfd6>
200030c2:	f7ff b859 	b.w	20002178 <__ssvfscanf_r+0x9c>
200030c6:	ad13      	add	r5, sp, #76	; 0x4c
200030c8:	e003      	b.n	200030d2 <__ssvfscanf_r+0xff6>
200030ca:	f816 1d01 	ldrb.w	r1, [r6, #-1]!
200030ce:	f7fe ffbd 	bl	2000204c <_sungetc_r>
200030d2:	42b5      	cmp	r5, r6
200030d4:	4640      	mov	r0, r8
200030d6:	4622      	mov	r2, r4
200030d8:	d3f7      	bcc.n	200030ca <__ssvfscanf_r+0xfee>
200030da:	f7ff b84d 	b.w	20002178 <__ssvfscanf_r+0x9c>
200030de:	4618      	mov	r0, r3
200030e0:	f000 fffa 	bl	200040d8 <nanf>
200030e4:	f8c9 0000 	str.w	r0, [r9]
200030e8:	e529      	b.n	20002b3e <__ssvfscanf_r+0xa62>
200030ea:	f002 fbd3 	bl	20005894 <_strtoull_r>
200030ee:	e7c4      	b.n	2000307a <__ssvfscanf_r+0xf9e>
200030f0:	ad13      	add	r5, sp, #76	; 0x4c
200030f2:	e003      	b.n	200030fc <__ssvfscanf_r+0x1020>
200030f4:	f816 1d01 	ldrb.w	r1, [r6, #-1]!
200030f8:	f7fe ffa8 	bl	2000204c <_sungetc_r>
200030fc:	42b5      	cmp	r5, r6
200030fe:	4640      	mov	r0, r8
20003100:	4622      	mov	r2, r4
20003102:	d3f7      	bcc.n	200030f4 <__ssvfscanf_r+0x1018>
20003104:	f7ff b838 	b.w	20002178 <__ssvfscanf_r+0x9c>

20003108 <__submore>:
20003108:	f101 0344 	add.w	r3, r1, #68	; 0x44
2000310c:	e92d 41f0 	stmdb	sp!, {r4, r5, r6, r7, r8, lr}
20003110:	460c      	mov	r4, r1
20003112:	6b49      	ldr	r1, [r1, #52]	; 0x34
20003114:	4299      	cmp	r1, r3
20003116:	d018      	beq.n	2000314a <__submore+0x42>
20003118:	6ba5      	ldr	r5, [r4, #56]	; 0x38
2000311a:	006f      	lsls	r7, r5, #1
2000311c:	463a      	mov	r2, r7
2000311e:	f000 fdb9 	bl	20003c94 <_realloc_r>
20003122:	4606      	mov	r6, r0
20003124:	b168      	cbz	r0, 20003142 <__submore+0x3a>
20003126:	eb00 0805 	add.w	r8, r0, r5
2000312a:	462a      	mov	r2, r5
2000312c:	4640      	mov	r0, r8
2000312e:	4631      	mov	r1, r6
20003130:	f000 fc7e 	bl	20003a30 <memcpy>
20003134:	63a7      	str	r7, [r4, #56]	; 0x38
20003136:	f8c4 8000 	str.w	r8, [r4]
2000313a:	2000      	movs	r0, #0
2000313c:	6366      	str	r6, [r4, #52]	; 0x34
2000313e:	e8bd 81f0 	ldmia.w	sp!, {r4, r5, r6, r7, r8, pc}
20003142:	f04f 30ff 	mov.w	r0, #4294967295
20003146:	e8bd 81f0 	ldmia.w	sp!, {r4, r5, r6, r7, r8, pc}
2000314a:	f44f 6180 	mov.w	r1, #1024	; 0x400
2000314e:	f7fe fb63 	bl	20001818 <_malloc_r>
20003152:	4603      	mov	r3, r0
20003154:	2800      	cmp	r0, #0
20003156:	d0f4      	beq.n	20003142 <__submore+0x3a>
20003158:	f894 1046 	ldrb.w	r1, [r4, #70]	; 0x46
2000315c:	f500 727e 	add.w	r2, r0, #1016	; 0x3f8
20003160:	3205      	adds	r2, #5
20003162:	6360      	str	r0, [r4, #52]	; 0x34
20003164:	f44f 6080 	mov.w	r0, #1024	; 0x400
20003168:	63a0      	str	r0, [r4, #56]	; 0x38
2000316a:	7091      	strb	r1, [r2, #2]
2000316c:	2000      	movs	r0, #0
2000316e:	f894 1045 	ldrb.w	r1, [r4, #69]	; 0x45
20003172:	7051      	strb	r1, [r2, #1]
20003174:	f894 1044 	ldrb.w	r1, [r4, #68]	; 0x44
20003178:	f883 13fd 	strb.w	r1, [r3, #1021]	; 0x3fd
2000317c:	6022      	str	r2, [r4, #0]
2000317e:	e8bd 81f0 	ldmia.w	sp!, {r4, r5, r6, r7, r8, pc}
20003182:	bf00      	nop

20003184 <_ungetc_r>:
20003184:	f1b1 3fff 	cmp.w	r1, #4294967295
20003188:	b5f8      	push	{r3, r4, r5, r6, r7, lr}
2000318a:	460c      	mov	r4, r1
2000318c:	4615      	mov	r5, r2
2000318e:	4606      	mov	r6, r0
20003190:	d03a      	beq.n	20003208 <_ungetc_r+0x84>
20003192:	b110      	cbz	r0, 2000319a <_ungetc_r+0x16>
20003194:	6983      	ldr	r3, [r0, #24]
20003196:	2b00      	cmp	r3, #0
20003198:	d041      	beq.n	2000321e <_ungetc_r+0x9a>
2000319a:	f64a 1324 	movw	r3, #43300	; 0xa924
2000319e:	f2c2 0300 	movt	r3, #8192	; 0x2000
200031a2:	429d      	cmp	r5, r3
200031a4:	bf08      	it	eq
200031a6:	6875      	ldreq	r5, [r6, #4]
200031a8:	d00e      	beq.n	200031c8 <_ungetc_r+0x44>
200031aa:	f64a 1344 	movw	r3, #43332	; 0xa944
200031ae:	f2c2 0300 	movt	r3, #8192	; 0x2000
200031b2:	429d      	cmp	r5, r3
200031b4:	bf08      	it	eq
200031b6:	68b5      	ldreq	r5, [r6, #8]
200031b8:	d006      	beq.n	200031c8 <_ungetc_r+0x44>
200031ba:	f64a 1364 	movw	r3, #43364	; 0xa964
200031be:	f2c2 0300 	movt	r3, #8192	; 0x2000
200031c2:	429d      	cmp	r5, r3
200031c4:	bf08      	it	eq
200031c6:	68f5      	ldreq	r5, [r6, #12]
200031c8:	89ab      	ldrh	r3, [r5, #12]
200031ca:	b299      	uxth	r1, r3
200031cc:	f411 5f00 	tst.w	r1, #8192	; 0x2000
200031d0:	d01c      	beq.n	2000320c <_ungetc_r+0x88>
200031d2:	f64f 72df 	movw	r2, #65503	; 0xffdf
200031d6:	f2c0 0200 	movt	r2, #0
200031da:	ea01 0202 	and.w	r2, r1, r2
200031de:	81aa      	strh	r2, [r5, #12]
200031e0:	b293      	uxth	r3, r2
200031e2:	f013 0f04 	tst.w	r3, #4
200031e6:	d03e      	beq.n	20003266 <_ungetc_r+0xe2>
200031e8:	6b6b      	ldr	r3, [r5, #52]	; 0x34
200031ea:	b2e7      	uxtb	r7, r4
200031ec:	b1d3      	cbz	r3, 20003224 <_ungetc_r+0xa0>
200031ee:	686a      	ldr	r2, [r5, #4]
200031f0:	6bab      	ldr	r3, [r5, #56]	; 0x38
200031f2:	429a      	cmp	r2, r3
200031f4:	da41      	bge.n	2000327a <_ungetc_r+0xf6>
200031f6:	682b      	ldr	r3, [r5, #0]
200031f8:	463c      	mov	r4, r7
200031fa:	1e5a      	subs	r2, r3, #1
200031fc:	602a      	str	r2, [r5, #0]
200031fe:	f803 7c01 	strb.w	r7, [r3, #-1]
20003202:	686b      	ldr	r3, [r5, #4]
20003204:	3301      	adds	r3, #1
20003206:	606b      	str	r3, [r5, #4]
20003208:	4620      	mov	r0, r4
2000320a:	bdf8      	pop	{r3, r4, r5, r6, r7, pc}
2000320c:	f443 5300 	orr.w	r3, r3, #8192	; 0x2000
20003210:	6e6a      	ldr	r2, [r5, #100]	; 0x64
20003212:	81ab      	strh	r3, [r5, #12]
20003214:	b299      	uxth	r1, r3
20003216:	f422 5300 	bic.w	r3, r2, #8192	; 0x2000
2000321a:	666b      	str	r3, [r5, #100]	; 0x64
2000321c:	e7d9      	b.n	200031d2 <_ungetc_r+0x4e>
2000321e:	f000 f9c1 	bl	200035a4 <__sinit>
20003222:	e7ba      	b.n	2000319a <_ungetc_r+0x16>
20003224:	692b      	ldr	r3, [r5, #16]
20003226:	2b00      	cmp	r3, #0
20003228:	d030      	beq.n	2000328c <_ungetc_r+0x108>
2000322a:	682a      	ldr	r2, [r5, #0]
2000322c:	4293      	cmp	r3, r2
2000322e:	d204      	bcs.n	2000323a <_ungetc_r+0xb6>
20003230:	f812 4c01 	ldrb.w	r4, [r2, #-1]
20003234:	1e53      	subs	r3, r2, #1
20003236:	42bc      	cmp	r4, r7
20003238:	d010      	beq.n	2000325c <_ungetc_r+0xd8>
2000323a:	6869      	ldr	r1, [r5, #4]
2000323c:	462b      	mov	r3, r5
2000323e:	463c      	mov	r4, r7
20003240:	63ea      	str	r2, [r5, #60]	; 0x3c
20003242:	f803 7f46 	strb.w	r7, [r3, #70]!
20003246:	f105 0244 	add.w	r2, r5, #68	; 0x44
2000324a:	6429      	str	r1, [r5, #64]	; 0x40
2000324c:	4620      	mov	r0, r4
2000324e:	636a      	str	r2, [r5, #52]	; 0x34
20003250:	2201      	movs	r2, #1
20003252:	602b      	str	r3, [r5, #0]
20003254:	606a      	str	r2, [r5, #4]
20003256:	2203      	movs	r2, #3
20003258:	63aa      	str	r2, [r5, #56]	; 0x38
2000325a:	bdf8      	pop	{r3, r4, r5, r6, r7, pc}
2000325c:	686a      	ldr	r2, [r5, #4]
2000325e:	602b      	str	r3, [r5, #0]
20003260:	1c53      	adds	r3, r2, #1
20003262:	606b      	str	r3, [r5, #4]
20003264:	e7d0      	b.n	20003208 <_ungetc_r+0x84>
20003266:	f013 0f10 	tst.w	r3, #16
2000326a:	d00c      	beq.n	20003286 <_ungetc_r+0x102>
2000326c:	f013 0f08 	tst.w	r3, #8
20003270:	d10e      	bne.n	20003290 <_ungetc_r+0x10c>
20003272:	f042 0204 	orr.w	r2, r2, #4
20003276:	81aa      	strh	r2, [r5, #12]
20003278:	e7b6      	b.n	200031e8 <_ungetc_r+0x64>
2000327a:	4630      	mov	r0, r6
2000327c:	4629      	mov	r1, r5
2000327e:	f7ff ff43 	bl	20003108 <__submore>
20003282:	2800      	cmp	r0, #0
20003284:	d0b7      	beq.n	200031f6 <_ungetc_r+0x72>
20003286:	f04f 34ff 	mov.w	r4, #4294967295
2000328a:	e7bd      	b.n	20003208 <_ungetc_r+0x84>
2000328c:	682a      	ldr	r2, [r5, #0]
2000328e:	e7d4      	b.n	2000323a <_ungetc_r+0xb6>
20003290:	4630      	mov	r0, r6
20003292:	4629      	mov	r1, r5
20003294:	f000 f816 	bl	200032c4 <_fflush_r>
20003298:	2800      	cmp	r0, #0
2000329a:	d1f4      	bne.n	20003286 <_ungetc_r+0x102>
2000329c:	89a9      	ldrh	r1, [r5, #12]
2000329e:	f64f 72f7 	movw	r2, #65527	; 0xfff7
200032a2:	f2c0 0200 	movt	r2, #0
200032a6:	61a8      	str	r0, [r5, #24]
200032a8:	ea01 0202 	and.w	r2, r1, r2
200032ac:	60a8      	str	r0, [r5, #8]
200032ae:	81aa      	strh	r2, [r5, #12]
200032b0:	e7df      	b.n	20003272 <_ungetc_r+0xee>
200032b2:	bf00      	nop

200032b4 <ungetc>:
200032b4:	f64a 33fc 	movw	r3, #44028	; 0xabfc
200032b8:	460a      	mov	r2, r1
200032ba:	f2c2 0300 	movt	r3, #8192	; 0x2000
200032be:	4601      	mov	r1, r0
200032c0:	6818      	ldr	r0, [r3, #0]
200032c2:	e75f      	b.n	20003184 <_ungetc_r>

200032c4 <_fflush_r>:
200032c4:	690b      	ldr	r3, [r1, #16]
200032c6:	e92d 41f0 	stmdb	sp!, {r4, r5, r6, r7, r8, lr}
200032ca:	460c      	mov	r4, r1
200032cc:	4680      	mov	r8, r0
200032ce:	2b00      	cmp	r3, #0
200032d0:	d071      	beq.n	200033b6 <_fflush_r+0xf2>
200032d2:	b110      	cbz	r0, 200032da <_fflush_r+0x16>
200032d4:	6983      	ldr	r3, [r0, #24]
200032d6:	2b00      	cmp	r3, #0
200032d8:	d078      	beq.n	200033cc <_fflush_r+0x108>
200032da:	f64a 1324 	movw	r3, #43300	; 0xa924
200032de:	f2c2 0300 	movt	r3, #8192	; 0x2000
200032e2:	429c      	cmp	r4, r3
200032e4:	bf08      	it	eq
200032e6:	f8d8 4004 	ldreq.w	r4, [r8, #4]
200032ea:	d010      	beq.n	2000330e <_fflush_r+0x4a>
200032ec:	f64a 1344 	movw	r3, #43332	; 0xa944
200032f0:	f2c2 0300 	movt	r3, #8192	; 0x2000
200032f4:	429c      	cmp	r4, r3
200032f6:	bf08      	it	eq
200032f8:	f8d8 4008 	ldreq.w	r4, [r8, #8]
200032fc:	d007      	beq.n	2000330e <_fflush_r+0x4a>
200032fe:	f64a 1364 	movw	r3, #43364	; 0xa964
20003302:	f2c2 0300 	movt	r3, #8192	; 0x2000
20003306:	429c      	cmp	r4, r3
20003308:	bf08      	it	eq
2000330a:	f8d8 400c 	ldreq.w	r4, [r8, #12]
2000330e:	89a3      	ldrh	r3, [r4, #12]
20003310:	b21a      	sxth	r2, r3
20003312:	f012 0f08 	tst.w	r2, #8
20003316:	d135      	bne.n	20003384 <_fflush_r+0xc0>
20003318:	6862      	ldr	r2, [r4, #4]
2000331a:	f443 6300 	orr.w	r3, r3, #2048	; 0x800
2000331e:	81a3      	strh	r3, [r4, #12]
20003320:	2a00      	cmp	r2, #0
20003322:	dd5e      	ble.n	200033e2 <_fflush_r+0x11e>
20003324:	6ae6      	ldr	r6, [r4, #44]	; 0x2c
20003326:	2e00      	cmp	r6, #0
20003328:	d045      	beq.n	200033b6 <_fflush_r+0xf2>
2000332a:	b29b      	uxth	r3, r3
2000332c:	f413 5280 	ands.w	r2, r3, #4096	; 0x1000
20003330:	bf18      	it	ne
20003332:	6d65      	ldrne	r5, [r4, #84]	; 0x54
20003334:	d059      	beq.n	200033ea <_fflush_r+0x126>
20003336:	f013 0f04 	tst.w	r3, #4
2000333a:	d14a      	bne.n	200033d2 <_fflush_r+0x10e>
2000333c:	2300      	movs	r3, #0
2000333e:	4640      	mov	r0, r8
20003340:	6a21      	ldr	r1, [r4, #32]
20003342:	462a      	mov	r2, r5
20003344:	47b0      	blx	r6
20003346:	4285      	cmp	r5, r0
20003348:	d138      	bne.n	200033bc <_fflush_r+0xf8>
2000334a:	89a1      	ldrh	r1, [r4, #12]
2000334c:	f24f 73ff 	movw	r3, #63487	; 0xf7ff
20003350:	6922      	ldr	r2, [r4, #16]
20003352:	f2c0 0300 	movt	r3, #0
20003356:	ea01 0303 	and.w	r3, r1, r3
2000335a:	2100      	movs	r1, #0
2000335c:	6061      	str	r1, [r4, #4]
2000335e:	f413 5f80 	tst.w	r3, #4096	; 0x1000
20003362:	6b61      	ldr	r1, [r4, #52]	; 0x34
20003364:	81a3      	strh	r3, [r4, #12]
20003366:	6022      	str	r2, [r4, #0]
20003368:	bf18      	it	ne
2000336a:	6565      	strne	r5, [r4, #84]	; 0x54
2000336c:	b319      	cbz	r1, 200033b6 <_fflush_r+0xf2>
2000336e:	f104 0344 	add.w	r3, r4, #68	; 0x44
20003372:	4299      	cmp	r1, r3
20003374:	d002      	beq.n	2000337c <_fflush_r+0xb8>
20003376:	4640      	mov	r0, r8
20003378:	f000 f998 	bl	200036ac <_free_r>
2000337c:	2000      	movs	r0, #0
2000337e:	6360      	str	r0, [r4, #52]	; 0x34
20003380:	e8bd 81f0 	ldmia.w	sp!, {r4, r5, r6, r7, r8, pc}
20003384:	6926      	ldr	r6, [r4, #16]
20003386:	b1b6      	cbz	r6, 200033b6 <_fflush_r+0xf2>
20003388:	6825      	ldr	r5, [r4, #0]
2000338a:	6026      	str	r6, [r4, #0]
2000338c:	1bad      	subs	r5, r5, r6
2000338e:	f012 0f03 	tst.w	r2, #3
20003392:	bf0c      	ite	eq
20003394:	6963      	ldreq	r3, [r4, #20]
20003396:	2300      	movne	r3, #0
20003398:	60a3      	str	r3, [r4, #8]
2000339a:	e00a      	b.n	200033b2 <_fflush_r+0xee>
2000339c:	4632      	mov	r2, r6
2000339e:	462b      	mov	r3, r5
200033a0:	6aa7      	ldr	r7, [r4, #40]	; 0x28
200033a2:	4640      	mov	r0, r8
200033a4:	6a21      	ldr	r1, [r4, #32]
200033a6:	47b8      	blx	r7
200033a8:	2800      	cmp	r0, #0
200033aa:	ebc0 0505 	rsb	r5, r0, r5
200033ae:	4406      	add	r6, r0
200033b0:	dd04      	ble.n	200033bc <_fflush_r+0xf8>
200033b2:	2d00      	cmp	r5, #0
200033b4:	dcf2      	bgt.n	2000339c <_fflush_r+0xd8>
200033b6:	2000      	movs	r0, #0
200033b8:	e8bd 81f0 	ldmia.w	sp!, {r4, r5, r6, r7, r8, pc}
200033bc:	89a3      	ldrh	r3, [r4, #12]
200033be:	f04f 30ff 	mov.w	r0, #4294967295
200033c2:	f043 0340 	orr.w	r3, r3, #64	; 0x40
200033c6:	81a3      	strh	r3, [r4, #12]
200033c8:	e8bd 81f0 	ldmia.w	sp!, {r4, r5, r6, r7, r8, pc}
200033cc:	f000 f8ea 	bl	200035a4 <__sinit>
200033d0:	e783      	b.n	200032da <_fflush_r+0x16>
200033d2:	6862      	ldr	r2, [r4, #4]
200033d4:	6b63      	ldr	r3, [r4, #52]	; 0x34
200033d6:	1aad      	subs	r5, r5, r2
200033d8:	2b00      	cmp	r3, #0
200033da:	d0af      	beq.n	2000333c <_fflush_r+0x78>
200033dc:	6c23      	ldr	r3, [r4, #64]	; 0x40
200033de:	1aed      	subs	r5, r5, r3
200033e0:	e7ac      	b.n	2000333c <_fflush_r+0x78>
200033e2:	6c22      	ldr	r2, [r4, #64]	; 0x40
200033e4:	2a00      	cmp	r2, #0
200033e6:	dc9d      	bgt.n	20003324 <_fflush_r+0x60>
200033e8:	e7e5      	b.n	200033b6 <_fflush_r+0xf2>
200033ea:	2301      	movs	r3, #1
200033ec:	4640      	mov	r0, r8
200033ee:	6a21      	ldr	r1, [r4, #32]
200033f0:	47b0      	blx	r6
200033f2:	f1b0 3fff 	cmp.w	r0, #4294967295
200033f6:	4605      	mov	r5, r0
200033f8:	d002      	beq.n	20003400 <_fflush_r+0x13c>
200033fa:	89a3      	ldrh	r3, [r4, #12]
200033fc:	6ae6      	ldr	r6, [r4, #44]	; 0x2c
200033fe:	e79a      	b.n	20003336 <_fflush_r+0x72>
20003400:	f8d8 3000 	ldr.w	r3, [r8]
20003404:	2b1d      	cmp	r3, #29
20003406:	d0d6      	beq.n	200033b6 <_fflush_r+0xf2>
20003408:	89a3      	ldrh	r3, [r4, #12]
2000340a:	f043 0340 	orr.w	r3, r3, #64	; 0x40
2000340e:	81a3      	strh	r3, [r4, #12]
20003410:	e8bd 81f0 	ldmia.w	sp!, {r4, r5, r6, r7, r8, pc}

20003414 <fflush>:
20003414:	4601      	mov	r1, r0
20003416:	b128      	cbz	r0, 20003424 <fflush+0x10>
20003418:	f64a 33fc 	movw	r3, #44028	; 0xabfc
2000341c:	f2c2 0300 	movt	r3, #8192	; 0x2000
20003420:	6818      	ldr	r0, [r3, #0]
20003422:	e74f      	b.n	200032c4 <_fflush_r>
20003424:	f24a 73ec 	movw	r3, #42988	; 0xa7ec
20003428:	f243 21c5 	movw	r1, #12997	; 0x32c5
2000342c:	f2c2 0300 	movt	r3, #8192	; 0x2000
20003430:	f2c2 0100 	movt	r1, #8192	; 0x2000
20003434:	6818      	ldr	r0, [r3, #0]
20003436:	f000 ba19 	b.w	2000386c <_fwalk_reent>
2000343a:	bf00      	nop

2000343c <__sfp_lock_acquire>:
2000343c:	4770      	bx	lr
2000343e:	bf00      	nop

20003440 <__sfp_lock_release>:
20003440:	4770      	bx	lr
20003442:	bf00      	nop

20003444 <__sinit_lock_acquire>:
20003444:	4770      	bx	lr
20003446:	bf00      	nop

20003448 <__sinit_lock_release>:
20003448:	4770      	bx	lr
2000344a:	bf00      	nop

2000344c <__fp_lock>:
2000344c:	2000      	movs	r0, #0
2000344e:	4770      	bx	lr

20003450 <__fp_unlock>:
20003450:	2000      	movs	r0, #0
20003452:	4770      	bx	lr

20003454 <__fp_unlock_all>:
20003454:	f64a 33fc 	movw	r3, #44028	; 0xabfc
20003458:	f243 4151 	movw	r1, #13393	; 0x3451
2000345c:	f2c2 0300 	movt	r3, #8192	; 0x2000
20003460:	f2c2 0100 	movt	r1, #8192	; 0x2000
20003464:	6818      	ldr	r0, [r3, #0]
20003466:	f000 ba2b 	b.w	200038c0 <_fwalk>
2000346a:	bf00      	nop

2000346c <__fp_lock_all>:
2000346c:	f64a 33fc 	movw	r3, #44028	; 0xabfc
20003470:	f243 414d 	movw	r1, #13389	; 0x344d
20003474:	f2c2 0300 	movt	r3, #8192	; 0x2000
20003478:	f2c2 0100 	movt	r1, #8192	; 0x2000
2000347c:	6818      	ldr	r0, [r3, #0]
2000347e:	f000 ba1f 	b.w	200038c0 <_fwalk>
20003482:	bf00      	nop

20003484 <_cleanup_r>:
20003484:	f248 01c5 	movw	r1, #32965	; 0x80c5
20003488:	f2c2 0100 	movt	r1, #8192	; 0x2000
2000348c:	f000 ba18 	b.w	200038c0 <_fwalk>

20003490 <_cleanup>:
20003490:	f24a 73ec 	movw	r3, #42988	; 0xa7ec
20003494:	f2c2 0300 	movt	r3, #8192	; 0x2000
20003498:	6818      	ldr	r0, [r3, #0]
2000349a:	e7f3      	b.n	20003484 <_cleanup_r>

2000349c <std>:
2000349c:	b510      	push	{r4, lr}
2000349e:	4604      	mov	r4, r0
200034a0:	2300      	movs	r3, #0
200034a2:	305c      	adds	r0, #92	; 0x5c
200034a4:	81a1      	strh	r1, [r4, #12]
200034a6:	4619      	mov	r1, r3
200034a8:	81e2      	strh	r2, [r4, #14]
200034aa:	2208      	movs	r2, #8
200034ac:	6023      	str	r3, [r4, #0]
200034ae:	6063      	str	r3, [r4, #4]
200034b0:	60a3      	str	r3, [r4, #8]
200034b2:	6663      	str	r3, [r4, #100]	; 0x64
200034b4:	6123      	str	r3, [r4, #16]
200034b6:	6163      	str	r3, [r4, #20]
200034b8:	61a3      	str	r3, [r4, #24]
200034ba:	f000 fb81 	bl	20003bc0 <memset>
200034be:	f244 10e5 	movw	r0, #16869	; 0x41e5
200034c2:	f244 11a9 	movw	r1, #16809	; 0x41a9
200034c6:	f244 1281 	movw	r2, #16769	; 0x4181
200034ca:	f244 1379 	movw	r3, #16761	; 0x4179
200034ce:	f2c2 0000 	movt	r0, #8192	; 0x2000
200034d2:	f2c2 0100 	movt	r1, #8192	; 0x2000
200034d6:	f2c2 0200 	movt	r2, #8192	; 0x2000
200034da:	f2c2 0300 	movt	r3, #8192	; 0x2000
200034de:	6260      	str	r0, [r4, #36]	; 0x24
200034e0:	62a1      	str	r1, [r4, #40]	; 0x28
200034e2:	62e2      	str	r2, [r4, #44]	; 0x2c
200034e4:	6323      	str	r3, [r4, #48]	; 0x30
200034e6:	6224      	str	r4, [r4, #32]
200034e8:	bd10      	pop	{r4, pc}
200034ea:	bf00      	nop

200034ec <__sfmoreglue>:
200034ec:	b570      	push	{r4, r5, r6, lr}
200034ee:	2568      	movs	r5, #104	; 0x68
200034f0:	460e      	mov	r6, r1
200034f2:	fb05 f501 	mul.w	r5, r5, r1
200034f6:	f105 010c 	add.w	r1, r5, #12
200034fa:	f7fe f98d 	bl	20001818 <_malloc_r>
200034fe:	4604      	mov	r4, r0
20003500:	b148      	cbz	r0, 20003516 <__sfmoreglue+0x2a>
20003502:	f100 030c 	add.w	r3, r0, #12
20003506:	2100      	movs	r1, #0
20003508:	6046      	str	r6, [r0, #4]
2000350a:	462a      	mov	r2, r5
2000350c:	4618      	mov	r0, r3
2000350e:	6021      	str	r1, [r4, #0]
20003510:	60a3      	str	r3, [r4, #8]
20003512:	f000 fb55 	bl	20003bc0 <memset>
20003516:	4620      	mov	r0, r4
20003518:	bd70      	pop	{r4, r5, r6, pc}
2000351a:	bf00      	nop

2000351c <__sfp>:
2000351c:	f24a 73ec 	movw	r3, #42988	; 0xa7ec
20003520:	f2c2 0300 	movt	r3, #8192	; 0x2000
20003524:	b570      	push	{r4, r5, r6, lr}
20003526:	681d      	ldr	r5, [r3, #0]
20003528:	4606      	mov	r6, r0
2000352a:	69ab      	ldr	r3, [r5, #24]
2000352c:	2b00      	cmp	r3, #0
2000352e:	d02a      	beq.n	20003586 <__sfp+0x6a>
20003530:	35d8      	adds	r5, #216	; 0xd8
20003532:	686b      	ldr	r3, [r5, #4]
20003534:	68ac      	ldr	r4, [r5, #8]
20003536:	3b01      	subs	r3, #1
20003538:	d503      	bpl.n	20003542 <__sfp+0x26>
2000353a:	e020      	b.n	2000357e <__sfp+0x62>
2000353c:	3468      	adds	r4, #104	; 0x68
2000353e:	3b01      	subs	r3, #1
20003540:	d41d      	bmi.n	2000357e <__sfp+0x62>
20003542:	f9b4 200c 	ldrsh.w	r2, [r4, #12]
20003546:	2a00      	cmp	r2, #0
20003548:	d1f8      	bne.n	2000353c <__sfp+0x20>
2000354a:	2500      	movs	r5, #0
2000354c:	f04f 33ff 	mov.w	r3, #4294967295
20003550:	6665      	str	r5, [r4, #100]	; 0x64
20003552:	f104 005c 	add.w	r0, r4, #92	; 0x5c
20003556:	81e3      	strh	r3, [r4, #14]
20003558:	4629      	mov	r1, r5
2000355a:	f04f 0301 	mov.w	r3, #1
2000355e:	6025      	str	r5, [r4, #0]
20003560:	81a3      	strh	r3, [r4, #12]
20003562:	2208      	movs	r2, #8
20003564:	60a5      	str	r5, [r4, #8]
20003566:	6065      	str	r5, [r4, #4]
20003568:	6125      	str	r5, [r4, #16]
2000356a:	6165      	str	r5, [r4, #20]
2000356c:	61a5      	str	r5, [r4, #24]
2000356e:	f000 fb27 	bl	20003bc0 <memset>
20003572:	64e5      	str	r5, [r4, #76]	; 0x4c
20003574:	6365      	str	r5, [r4, #52]	; 0x34
20003576:	63a5      	str	r5, [r4, #56]	; 0x38
20003578:	64a5      	str	r5, [r4, #72]	; 0x48
2000357a:	4620      	mov	r0, r4
2000357c:	bd70      	pop	{r4, r5, r6, pc}
2000357e:	6828      	ldr	r0, [r5, #0]
20003580:	b128      	cbz	r0, 2000358e <__sfp+0x72>
20003582:	4605      	mov	r5, r0
20003584:	e7d5      	b.n	20003532 <__sfp+0x16>
20003586:	4628      	mov	r0, r5
20003588:	f000 f80c 	bl	200035a4 <__sinit>
2000358c:	e7d0      	b.n	20003530 <__sfp+0x14>
2000358e:	4630      	mov	r0, r6
20003590:	2104      	movs	r1, #4
20003592:	f7ff ffab 	bl	200034ec <__sfmoreglue>
20003596:	6028      	str	r0, [r5, #0]
20003598:	2800      	cmp	r0, #0
2000359a:	d1f2      	bne.n	20003582 <__sfp+0x66>
2000359c:	230c      	movs	r3, #12
2000359e:	4604      	mov	r4, r0
200035a0:	6033      	str	r3, [r6, #0]
200035a2:	e7ea      	b.n	2000357a <__sfp+0x5e>

200035a4 <__sinit>:
200035a4:	b570      	push	{r4, r5, r6, lr}
200035a6:	6986      	ldr	r6, [r0, #24]
200035a8:	4604      	mov	r4, r0
200035aa:	b106      	cbz	r6, 200035ae <__sinit+0xa>
200035ac:	bd70      	pop	{r4, r5, r6, pc}
200035ae:	f243 4385 	movw	r3, #13445	; 0x3485
200035b2:	2501      	movs	r5, #1
200035b4:	f2c2 0300 	movt	r3, #8192	; 0x2000
200035b8:	f8c0 60d8 	str.w	r6, [r0, #216]	; 0xd8
200035bc:	6283      	str	r3, [r0, #40]	; 0x28
200035be:	f8c0 60dc 	str.w	r6, [r0, #220]	; 0xdc
200035c2:	f8c0 60e0 	str.w	r6, [r0, #224]	; 0xe0
200035c6:	6185      	str	r5, [r0, #24]
200035c8:	f7ff ffa8 	bl	2000351c <__sfp>
200035cc:	6060      	str	r0, [r4, #4]
200035ce:	4620      	mov	r0, r4
200035d0:	f7ff ffa4 	bl	2000351c <__sfp>
200035d4:	60a0      	str	r0, [r4, #8]
200035d6:	4620      	mov	r0, r4
200035d8:	f7ff ffa0 	bl	2000351c <__sfp>
200035dc:	4632      	mov	r2, r6
200035de:	2104      	movs	r1, #4
200035e0:	4623      	mov	r3, r4
200035e2:	60e0      	str	r0, [r4, #12]
200035e4:	6860      	ldr	r0, [r4, #4]
200035e6:	f7ff ff59 	bl	2000349c <std>
200035ea:	462a      	mov	r2, r5
200035ec:	68a0      	ldr	r0, [r4, #8]
200035ee:	2109      	movs	r1, #9
200035f0:	4623      	mov	r3, r4
200035f2:	f7ff ff53 	bl	2000349c <std>
200035f6:	4623      	mov	r3, r4
200035f8:	68e0      	ldr	r0, [r4, #12]
200035fa:	2112      	movs	r1, #18
200035fc:	2202      	movs	r2, #2
200035fe:	e8bd 4070 	ldmia.w	sp!, {r4, r5, r6, lr}
20003602:	e74b      	b.n	2000349c <std>

20003604 <_malloc_trim_r>:
20003604:	b5f8      	push	{r3, r4, r5, r6, r7, lr}
20003606:	f64a 44f0 	movw	r4, #44272	; 0xacf0
2000360a:	f2c2 0400 	movt	r4, #8192	; 0x2000
2000360e:	460f      	mov	r7, r1
20003610:	4605      	mov	r5, r0
20003612:	f7fe fbd3 	bl	20001dbc <__malloc_lock>
20003616:	68a3      	ldr	r3, [r4, #8]
20003618:	685e      	ldr	r6, [r3, #4]
2000361a:	f026 0603 	bic.w	r6, r6, #3
2000361e:	f506 637e 	add.w	r3, r6, #4064	; 0xfe0
20003622:	330f      	adds	r3, #15
20003624:	1bdf      	subs	r7, r3, r7
20003626:	0b3f      	lsrs	r7, r7, #12
20003628:	3f01      	subs	r7, #1
2000362a:	033f      	lsls	r7, r7, #12
2000362c:	f5b7 5f80 	cmp.w	r7, #4096	; 0x1000
20003630:	db07      	blt.n	20003642 <_malloc_trim_r+0x3e>
20003632:	2100      	movs	r1, #0
20003634:	4628      	mov	r0, r5
20003636:	f7fe fc4b 	bl	20001ed0 <_sbrk_r>
2000363a:	68a3      	ldr	r3, [r4, #8]
2000363c:	18f3      	adds	r3, r6, r3
2000363e:	4283      	cmp	r3, r0
20003640:	d004      	beq.n	2000364c <_malloc_trim_r+0x48>
20003642:	4628      	mov	r0, r5
20003644:	f7fe fbbc 	bl	20001dc0 <__malloc_unlock>
20003648:	2000      	movs	r0, #0
2000364a:	bdf8      	pop	{r3, r4, r5, r6, r7, pc}
2000364c:	4279      	negs	r1, r7
2000364e:	4628      	mov	r0, r5
20003650:	f7fe fc3e 	bl	20001ed0 <_sbrk_r>
20003654:	f1b0 3fff 	cmp.w	r0, #4294967295
20003658:	d010      	beq.n	2000367c <_malloc_trim_r+0x78>
2000365a:	68a2      	ldr	r2, [r4, #8]
2000365c:	f24b 1354 	movw	r3, #45396	; 0xb154
20003660:	f2c2 0300 	movt	r3, #8192	; 0x2000
20003664:	1bf6      	subs	r6, r6, r7
20003666:	f046 0601 	orr.w	r6, r6, #1
2000366a:	4628      	mov	r0, r5
2000366c:	6056      	str	r6, [r2, #4]
2000366e:	681a      	ldr	r2, [r3, #0]
20003670:	1bd7      	subs	r7, r2, r7
20003672:	601f      	str	r7, [r3, #0]
20003674:	f7fe fba4 	bl	20001dc0 <__malloc_unlock>
20003678:	2001      	movs	r0, #1
2000367a:	bdf8      	pop	{r3, r4, r5, r6, r7, pc}
2000367c:	2100      	movs	r1, #0
2000367e:	4628      	mov	r0, r5
20003680:	f7fe fc26 	bl	20001ed0 <_sbrk_r>
20003684:	68a3      	ldr	r3, [r4, #8]
20003686:	1ac2      	subs	r2, r0, r3
20003688:	2a0f      	cmp	r2, #15
2000368a:	ddda      	ble.n	20003642 <_malloc_trim_r+0x3e>
2000368c:	f24b 04f8 	movw	r4, #45304	; 0xb0f8
20003690:	f24b 1154 	movw	r1, #45396	; 0xb154
20003694:	f2c2 0400 	movt	r4, #8192	; 0x2000
20003698:	f2c2 0100 	movt	r1, #8192	; 0x2000
2000369c:	f042 0201 	orr.w	r2, r2, #1
200036a0:	6824      	ldr	r4, [r4, #0]
200036a2:	1b00      	subs	r0, r0, r4
200036a4:	6008      	str	r0, [r1, #0]
200036a6:	605a      	str	r2, [r3, #4]
200036a8:	e7cb      	b.n	20003642 <_malloc_trim_r+0x3e>
200036aa:	bf00      	nop

200036ac <_free_r>:
200036ac:	e92d 41f0 	stmdb	sp!, {r4, r5, r6, r7, r8, lr}
200036b0:	4605      	mov	r5, r0
200036b2:	460c      	mov	r4, r1
200036b4:	2900      	cmp	r1, #0
200036b6:	f000 8088 	beq.w	200037ca <_free_r+0x11e>
200036ba:	f7fe fb7f 	bl	20001dbc <__malloc_lock>
200036be:	f1a4 0208 	sub.w	r2, r4, #8
200036c2:	f64a 40f0 	movw	r0, #44272	; 0xacf0
200036c6:	6856      	ldr	r6, [r2, #4]
200036c8:	f2c2 0000 	movt	r0, #8192	; 0x2000
200036cc:	f026 0301 	bic.w	r3, r6, #1
200036d0:	f8d0 c008 	ldr.w	ip, [r0, #8]
200036d4:	18d1      	adds	r1, r2, r3
200036d6:	458c      	cmp	ip, r1
200036d8:	684f      	ldr	r7, [r1, #4]
200036da:	f027 0703 	bic.w	r7, r7, #3
200036de:	f000 8095 	beq.w	2000380c <_free_r+0x160>
200036e2:	f016 0601 	ands.w	r6, r6, #1
200036e6:	604f      	str	r7, [r1, #4]
200036e8:	d05f      	beq.n	200037aa <_free_r+0xfe>
200036ea:	2600      	movs	r6, #0
200036ec:	19cc      	adds	r4, r1, r7
200036ee:	6864      	ldr	r4, [r4, #4]
200036f0:	f014 0f01 	tst.w	r4, #1
200036f4:	d106      	bne.n	20003704 <_free_r+0x58>
200036f6:	19db      	adds	r3, r3, r7
200036f8:	2e00      	cmp	r6, #0
200036fa:	d07a      	beq.n	200037f2 <_free_r+0x146>
200036fc:	688c      	ldr	r4, [r1, #8]
200036fe:	68c9      	ldr	r1, [r1, #12]
20003700:	608c      	str	r4, [r1, #8]
20003702:	60e1      	str	r1, [r4, #12]
20003704:	f043 0101 	orr.w	r1, r3, #1
20003708:	50d3      	str	r3, [r2, r3]
2000370a:	6051      	str	r1, [r2, #4]
2000370c:	2e00      	cmp	r6, #0
2000370e:	d147      	bne.n	200037a0 <_free_r+0xf4>
20003710:	f5b3 7f00 	cmp.w	r3, #512	; 0x200
20003714:	d35b      	bcc.n	200037ce <_free_r+0x122>
20003716:	0a59      	lsrs	r1, r3, #9
20003718:	2904      	cmp	r1, #4
2000371a:	bf9e      	ittt	ls
2000371c:	ea4f 1c93 	movls.w	ip, r3, lsr #6
20003720:	f10c 0c38 	addls.w	ip, ip, #56	; 0x38
20003724:	ea4f 04cc 	movls.w	r4, ip, lsl #3
20003728:	d928      	bls.n	2000377c <_free_r+0xd0>
2000372a:	2914      	cmp	r1, #20
2000372c:	bf9c      	itt	ls
2000372e:	f101 0c5b 	addls.w	ip, r1, #91	; 0x5b
20003732:	ea4f 04cc 	movls.w	r4, ip, lsl #3
20003736:	d921      	bls.n	2000377c <_free_r+0xd0>
20003738:	2954      	cmp	r1, #84	; 0x54
2000373a:	bf9e      	ittt	ls
2000373c:	ea4f 3c13 	movls.w	ip, r3, lsr #12
20003740:	f10c 0c6e 	addls.w	ip, ip, #110	; 0x6e
20003744:	ea4f 04cc 	movls.w	r4, ip, lsl #3
20003748:	d918      	bls.n	2000377c <_free_r+0xd0>
2000374a:	f5b1 7faa 	cmp.w	r1, #340	; 0x154
2000374e:	bf9e      	ittt	ls
20003750:	ea4f 3cd3 	movls.w	ip, r3, lsr #15
20003754:	f10c 0c77 	addls.w	ip, ip, #119	; 0x77
20003758:	ea4f 04cc 	movls.w	r4, ip, lsl #3
2000375c:	d90e      	bls.n	2000377c <_free_r+0xd0>
2000375e:	f240 5c54 	movw	ip, #1364	; 0x554
20003762:	4561      	cmp	r1, ip
20003764:	bf95      	itete	ls
20003766:	ea4f 4c93 	movls.w	ip, r3, lsr #18
2000376a:	f44f 747c 	movhi.w	r4, #1008	; 0x3f0
2000376e:	f10c 0c7c 	addls.w	ip, ip, #124	; 0x7c
20003772:	f04f 0c7e 	movhi.w	ip, #126	; 0x7e
20003776:	bf98      	it	ls
20003778:	ea4f 04cc 	movls.w	r4, ip, lsl #3
2000377c:	1904      	adds	r4, r0, r4
2000377e:	68a1      	ldr	r1, [r4, #8]
20003780:	42a1      	cmp	r1, r4
20003782:	d103      	bne.n	2000378c <_free_r+0xe0>
20003784:	e064      	b.n	20003850 <_free_r+0x1a4>
20003786:	6889      	ldr	r1, [r1, #8]
20003788:	428c      	cmp	r4, r1
2000378a:	d004      	beq.n	20003796 <_free_r+0xea>
2000378c:	6848      	ldr	r0, [r1, #4]
2000378e:	f020 0003 	bic.w	r0, r0, #3
20003792:	4283      	cmp	r3, r0
20003794:	d3f7      	bcc.n	20003786 <_free_r+0xda>
20003796:	68cb      	ldr	r3, [r1, #12]
20003798:	60d3      	str	r3, [r2, #12]
2000379a:	6091      	str	r1, [r2, #8]
2000379c:	60ca      	str	r2, [r1, #12]
2000379e:	609a      	str	r2, [r3, #8]
200037a0:	4628      	mov	r0, r5
200037a2:	e8bd 41f0 	ldmia.w	sp!, {r4, r5, r6, r7, r8, lr}
200037a6:	f7fe bb0b 	b.w	20001dc0 <__malloc_unlock>
200037aa:	f854 4c08 	ldr.w	r4, [r4, #-8]
200037ae:	f100 0c08 	add.w	ip, r0, #8
200037b2:	1b12      	subs	r2, r2, r4
200037b4:	191b      	adds	r3, r3, r4
200037b6:	6894      	ldr	r4, [r2, #8]
200037b8:	4564      	cmp	r4, ip
200037ba:	d047      	beq.n	2000384c <_free_r+0x1a0>
200037bc:	f8d2 c00c 	ldr.w	ip, [r2, #12]
200037c0:	f8cc 4008 	str.w	r4, [ip, #8]
200037c4:	f8c4 c00c 	str.w	ip, [r4, #12]
200037c8:	e790      	b.n	200036ec <_free_r+0x40>
200037ca:	e8bd 81f0 	ldmia.w	sp!, {r4, r5, r6, r7, r8, pc}
200037ce:	08db      	lsrs	r3, r3, #3
200037d0:	f04f 0c01 	mov.w	ip, #1
200037d4:	6846      	ldr	r6, [r0, #4]
200037d6:	eb00 01c3 	add.w	r1, r0, r3, lsl #3
200037da:	109b      	asrs	r3, r3, #2
200037dc:	fa0c f303 	lsl.w	r3, ip, r3
200037e0:	60d1      	str	r1, [r2, #12]
200037e2:	688c      	ldr	r4, [r1, #8]
200037e4:	ea46 0303 	orr.w	r3, r6, r3
200037e8:	6043      	str	r3, [r0, #4]
200037ea:	6094      	str	r4, [r2, #8]
200037ec:	60e2      	str	r2, [r4, #12]
200037ee:	608a      	str	r2, [r1, #8]
200037f0:	e7d6      	b.n	200037a0 <_free_r+0xf4>
200037f2:	688c      	ldr	r4, [r1, #8]
200037f4:	4f1c      	ldr	r7, [pc, #112]	; (20003868 <_free_r+0x1bc>)
200037f6:	42bc      	cmp	r4, r7
200037f8:	d181      	bne.n	200036fe <_free_r+0x52>
200037fa:	50d3      	str	r3, [r2, r3]
200037fc:	f043 0301 	orr.w	r3, r3, #1
20003800:	60e2      	str	r2, [r4, #12]
20003802:	60a2      	str	r2, [r4, #8]
20003804:	6053      	str	r3, [r2, #4]
20003806:	6094      	str	r4, [r2, #8]
20003808:	60d4      	str	r4, [r2, #12]
2000380a:	e7c9      	b.n	200037a0 <_free_r+0xf4>
2000380c:	18fb      	adds	r3, r7, r3
2000380e:	f016 0f01 	tst.w	r6, #1
20003812:	d107      	bne.n	20003824 <_free_r+0x178>
20003814:	f854 1c08 	ldr.w	r1, [r4, #-8]
20003818:	1a52      	subs	r2, r2, r1
2000381a:	185b      	adds	r3, r3, r1
2000381c:	68d4      	ldr	r4, [r2, #12]
2000381e:	6891      	ldr	r1, [r2, #8]
20003820:	60a1      	str	r1, [r4, #8]
20003822:	60cc      	str	r4, [r1, #12]
20003824:	f24b 01fc 	movw	r1, #45308	; 0xb0fc
20003828:	6082      	str	r2, [r0, #8]
2000382a:	f2c2 0100 	movt	r1, #8192	; 0x2000
2000382e:	f043 0001 	orr.w	r0, r3, #1
20003832:	6050      	str	r0, [r2, #4]
20003834:	680a      	ldr	r2, [r1, #0]
20003836:	4293      	cmp	r3, r2
20003838:	d3b2      	bcc.n	200037a0 <_free_r+0xf4>
2000383a:	f24b 1350 	movw	r3, #45392	; 0xb150
2000383e:	4628      	mov	r0, r5
20003840:	f2c2 0300 	movt	r3, #8192	; 0x2000
20003844:	6819      	ldr	r1, [r3, #0]
20003846:	f7ff fedd 	bl	20003604 <_malloc_trim_r>
2000384a:	e7a9      	b.n	200037a0 <_free_r+0xf4>
2000384c:	2601      	movs	r6, #1
2000384e:	e74d      	b.n	200036ec <_free_r+0x40>
20003850:	2601      	movs	r6, #1
20003852:	6844      	ldr	r4, [r0, #4]
20003854:	ea4f 0cac 	mov.w	ip, ip, asr #2
20003858:	460b      	mov	r3, r1
2000385a:	fa06 fc0c 	lsl.w	ip, r6, ip
2000385e:	ea44 040c 	orr.w	r4, r4, ip
20003862:	6044      	str	r4, [r0, #4]
20003864:	e798      	b.n	20003798 <_free_r+0xec>
20003866:	bf00      	nop
20003868:	2000acf8 	.word	0x2000acf8

2000386c <_fwalk_reent>:
2000386c:	e92d 45f8 	stmdb	sp!, {r3, r4, r5, r6, r7, r8, sl, lr}
20003870:	4607      	mov	r7, r0
20003872:	468a      	mov	sl, r1
20003874:	f7ff fde2 	bl	2000343c <__sfp_lock_acquire>
20003878:	f117 06d8 	adds.w	r6, r7, #216	; 0xd8
2000387c:	bf08      	it	eq
2000387e:	46b0      	moveq	r8, r6
20003880:	d018      	beq.n	200038b4 <_fwalk_reent+0x48>
20003882:	f04f 0800 	mov.w	r8, #0
20003886:	6875      	ldr	r5, [r6, #4]
20003888:	68b4      	ldr	r4, [r6, #8]
2000388a:	3d01      	subs	r5, #1
2000388c:	d40f      	bmi.n	200038ae <_fwalk_reent+0x42>
2000388e:	f9b4 300c 	ldrsh.w	r3, [r4, #12]
20003892:	b14b      	cbz	r3, 200038a8 <_fwalk_reent+0x3c>
20003894:	f9b4 300e 	ldrsh.w	r3, [r4, #14]
20003898:	4621      	mov	r1, r4
2000389a:	4638      	mov	r0, r7
2000389c:	f1b3 3fff 	cmp.w	r3, #4294967295
200038a0:	d002      	beq.n	200038a8 <_fwalk_reent+0x3c>
200038a2:	47d0      	blx	sl
200038a4:	ea48 0800 	orr.w	r8, r8, r0
200038a8:	3468      	adds	r4, #104	; 0x68
200038aa:	3d01      	subs	r5, #1
200038ac:	d5ef      	bpl.n	2000388e <_fwalk_reent+0x22>
200038ae:	6836      	ldr	r6, [r6, #0]
200038b0:	2e00      	cmp	r6, #0
200038b2:	d1e8      	bne.n	20003886 <_fwalk_reent+0x1a>
200038b4:	f7ff fdc4 	bl	20003440 <__sfp_lock_release>
200038b8:	4640      	mov	r0, r8
200038ba:	e8bd 85f8 	ldmia.w	sp!, {r3, r4, r5, r6, r7, r8, sl, pc}
200038be:	bf00      	nop

200038c0 <_fwalk>:
200038c0:	e92d 41f0 	stmdb	sp!, {r4, r5, r6, r7, r8, lr}
200038c4:	4606      	mov	r6, r0
200038c6:	4688      	mov	r8, r1
200038c8:	f7ff fdb8 	bl	2000343c <__sfp_lock_acquire>
200038cc:	36d8      	adds	r6, #216	; 0xd8
200038ce:	bf08      	it	eq
200038d0:	4637      	moveq	r7, r6
200038d2:	d015      	beq.n	20003900 <_fwalk+0x40>
200038d4:	2700      	movs	r7, #0
200038d6:	6875      	ldr	r5, [r6, #4]
200038d8:	68b4      	ldr	r4, [r6, #8]
200038da:	3d01      	subs	r5, #1
200038dc:	d40d      	bmi.n	200038fa <_fwalk+0x3a>
200038de:	f9b4 300c 	ldrsh.w	r3, [r4, #12]
200038e2:	b13b      	cbz	r3, 200038f4 <_fwalk+0x34>
200038e4:	f9b4 300e 	ldrsh.w	r3, [r4, #14]
200038e8:	4620      	mov	r0, r4
200038ea:	f1b3 3fff 	cmp.w	r3, #4294967295
200038ee:	d001      	beq.n	200038f4 <_fwalk+0x34>
200038f0:	47c0      	blx	r8
200038f2:	4307      	orrs	r7, r0
200038f4:	3468      	adds	r4, #104	; 0x68
200038f6:	3d01      	subs	r5, #1
200038f8:	d5f1      	bpl.n	200038de <_fwalk+0x1e>
200038fa:	6836      	ldr	r6, [r6, #0]
200038fc:	2e00      	cmp	r6, #0
200038fe:	d1ea      	bne.n	200038d6 <_fwalk+0x16>
20003900:	f7ff fd9e 	bl	20003440 <__sfp_lock_release>
20003904:	4638      	mov	r0, r7
20003906:	e8bd 81f0 	ldmia.w	sp!, {r4, r5, r6, r7, r8, pc}
2000390a:	bf00      	nop

2000390c <iswspace>:
2000390c:	28ff      	cmp	r0, #255	; 0xff
2000390e:	d809      	bhi.n	20003924 <iswspace+0x18>
20003910:	f24b 1304 	movw	r3, #45316	; 0xb104
20003914:	f2c2 0300 	movt	r3, #8192	; 0x2000
20003918:	681b      	ldr	r3, [r3, #0]
2000391a:	18c0      	adds	r0, r0, r3
2000391c:	7840      	ldrb	r0, [r0, #1]
2000391e:	f000 0008 	and.w	r0, r0, #8
20003922:	4770      	bx	lr
20003924:	2000      	movs	r0, #0
20003926:	4770      	bx	lr

20003928 <__locale_charset>:
20003928:	f64a 1384 	movw	r3, #43396	; 0xa984
2000392c:	f2c2 0300 	movt	r3, #8192	; 0x2000
20003930:	6818      	ldr	r0, [r3, #0]
20003932:	4770      	bx	lr

20003934 <_localeconv_r>:
20003934:	4800      	ldr	r0, [pc, #0]	; (20003938 <_localeconv_r+0x4>)
20003936:	4770      	bx	lr
20003938:	2000a988 	.word	0x2000a988

2000393c <localeconv>:
2000393c:	4800      	ldr	r0, [pc, #0]	; (20003940 <localeconv+0x4>)
2000393e:	4770      	bx	lr
20003940:	2000a988 	.word	0x2000a988

20003944 <_setlocale_r>:
20003944:	b570      	push	{r4, r5, r6, lr}
20003946:	4605      	mov	r5, r0
20003948:	460e      	mov	r6, r1
2000394a:	4614      	mov	r4, r2
2000394c:	b172      	cbz	r2, 2000396c <_setlocale_r+0x28>
2000394e:	f24a 71f0 	movw	r1, #42992	; 0xa7f0
20003952:	4610      	mov	r0, r2
20003954:	f2c2 0100 	movt	r1, #8192	; 0x2000
20003958:	f000 fc56 	bl	20004208 <strcmp>
2000395c:	b958      	cbnz	r0, 20003976 <_setlocale_r+0x32>
2000395e:	f24a 70f0 	movw	r0, #42992	; 0xa7f0
20003962:	622c      	str	r4, [r5, #32]
20003964:	f2c2 0000 	movt	r0, #8192	; 0x2000
20003968:	61ee      	str	r6, [r5, #28]
2000396a:	bd70      	pop	{r4, r5, r6, pc}
2000396c:	f24a 70f0 	movw	r0, #42992	; 0xa7f0
20003970:	f2c2 0000 	movt	r0, #8192	; 0x2000
20003974:	bd70      	pop	{r4, r5, r6, pc}
20003976:	f64a 2130 	movw	r1, #43568	; 0xaa30
2000397a:	4620      	mov	r0, r4
2000397c:	f2c2 0100 	movt	r1, #8192	; 0x2000
20003980:	f000 fc42 	bl	20004208 <strcmp>
20003984:	2800      	cmp	r0, #0
20003986:	d0ea      	beq.n	2000395e <_setlocale_r+0x1a>
20003988:	2000      	movs	r0, #0
2000398a:	bd70      	pop	{r4, r5, r6, pc}

2000398c <setlocale>:
2000398c:	f64a 33fc 	movw	r3, #44028	; 0xabfc
20003990:	460a      	mov	r2, r1
20003992:	f2c2 0300 	movt	r3, #8192	; 0x2000
20003996:	4601      	mov	r1, r0
20003998:	6818      	ldr	r0, [r3, #0]
2000399a:	e7d3      	b.n	20003944 <_setlocale_r>

2000399c <_mbrtowc_r>:
2000399c:	b530      	push	{r4, r5, lr}
2000399e:	b083      	sub	sp, #12
200039a0:	4605      	mov	r5, r0
200039a2:	4694      	mov	ip, r2
200039a4:	9c06      	ldr	r4, [sp, #24]
200039a6:	b15a      	cbz	r2, 200039c0 <_mbrtowc_r+0x24>
200039a8:	9400      	str	r4, [sp, #0]
200039aa:	f000 f825 	bl	200039f8 <_mbtowc_r>
200039ae:	f1b0 3fff 	cmp.w	r0, #4294967295
200039b2:	d103      	bne.n	200039bc <_mbrtowc_r+0x20>
200039b4:	2300      	movs	r3, #0
200039b6:	6023      	str	r3, [r4, #0]
200039b8:	238a      	movs	r3, #138	; 0x8a
200039ba:	602b      	str	r3, [r5, #0]
200039bc:	b003      	add	sp, #12
200039be:	bd30      	pop	{r4, r5, pc}
200039c0:	f64a 2230 	movw	r2, #43568	; 0xaa30
200039c4:	4661      	mov	r1, ip
200039c6:	f2c2 0200 	movt	r2, #8192	; 0x2000
200039ca:	2301      	movs	r3, #1
200039cc:	9400      	str	r4, [sp, #0]
200039ce:	f000 f813 	bl	200039f8 <_mbtowc_r>
200039d2:	e7ec      	b.n	200039ae <_mbrtowc_r+0x12>

200039d4 <mbrtowc>:
200039d4:	b530      	push	{r4, r5, lr}
200039d6:	f64a 34fc 	movw	r4, #44028	; 0xabfc
200039da:	b083      	sub	sp, #12
200039dc:	f2c2 0400 	movt	r4, #8192	; 0x2000
200039e0:	4605      	mov	r5, r0
200039e2:	468e      	mov	lr, r1
200039e4:	4694      	mov	ip, r2
200039e6:	9300      	str	r3, [sp, #0]
200039e8:	6820      	ldr	r0, [r4, #0]
200039ea:	4629      	mov	r1, r5
200039ec:	4672      	mov	r2, lr
200039ee:	4663      	mov	r3, ip
200039f0:	f7ff ffd4 	bl	2000399c <_mbrtowc_r>
200039f4:	b003      	add	sp, #12
200039f6:	bd30      	pop	{r4, r5, pc}

200039f8 <_mbtowc_r>:
200039f8:	b082      	sub	sp, #8
200039fa:	4608      	mov	r0, r1
200039fc:	b1a1      	cbz	r1, 20003a28 <_mbtowc_r+0x30>
200039fe:	1e11      	subs	r1, r2, #0
20003a00:	bf18      	it	ne
20003a02:	2101      	movne	r1, #1
20003a04:	2b00      	cmp	r3, #0
20003a06:	bf14      	ite	ne
20003a08:	2300      	movne	r3, #0
20003a0a:	f001 0301 	andeq.w	r3, r1, #1
20003a0e:	b943      	cbnz	r3, 20003a22 <_mbtowc_r+0x2a>
20003a10:	b162      	cbz	r2, 20003a2c <_mbtowc_r+0x34>
20003a12:	7813      	ldrb	r3, [r2, #0]
20003a14:	6003      	str	r3, [r0, #0]
20003a16:	7810      	ldrb	r0, [r2, #0]
20003a18:	3800      	subs	r0, #0
20003a1a:	bf18      	it	ne
20003a1c:	2001      	movne	r0, #1
20003a1e:	b002      	add	sp, #8
20003a20:	4770      	bx	lr
20003a22:	f06f 0001 	mvn.w	r0, #1
20003a26:	e7fa      	b.n	20003a1e <_mbtowc_r+0x26>
20003a28:	a801      	add	r0, sp, #4
20003a2a:	e7e8      	b.n	200039fe <_mbtowc_r+0x6>
20003a2c:	4610      	mov	r0, r2
20003a2e:	e7f6      	b.n	20003a1e <_mbtowc_r+0x26>

20003a30 <memcpy>:
20003a30:	2a03      	cmp	r2, #3
20003a32:	e92d 07f0 	stmdb	sp!, {r4, r5, r6, r7, r8, r9, sl}
20003a36:	d80b      	bhi.n	20003a50 <memcpy+0x20>
20003a38:	b13a      	cbz	r2, 20003a4a <memcpy+0x1a>
20003a3a:	2300      	movs	r3, #0
20003a3c:	f811 c003 	ldrb.w	ip, [r1, r3]
20003a40:	f800 c003 	strb.w	ip, [r0, r3]
20003a44:	3301      	adds	r3, #1
20003a46:	4293      	cmp	r3, r2
20003a48:	d1f8      	bne.n	20003a3c <memcpy+0xc>
20003a4a:	e8bd 07f0 	ldmia.w	sp!, {r4, r5, r6, r7, r8, r9, sl}
20003a4e:	4770      	bx	lr
20003a50:	1882      	adds	r2, r0, r2
20003a52:	460c      	mov	r4, r1
20003a54:	4603      	mov	r3, r0
20003a56:	e003      	b.n	20003a60 <memcpy+0x30>
20003a58:	f814 1c01 	ldrb.w	r1, [r4, #-1]
20003a5c:	f803 1c01 	strb.w	r1, [r3, #-1]
20003a60:	f003 0603 	and.w	r6, r3, #3
20003a64:	4619      	mov	r1, r3
20003a66:	46a4      	mov	ip, r4
20003a68:	3301      	adds	r3, #1
20003a6a:	3401      	adds	r4, #1
20003a6c:	2e00      	cmp	r6, #0
20003a6e:	d1f3      	bne.n	20003a58 <memcpy+0x28>
20003a70:	f01c 0403 	ands.w	r4, ip, #3
20003a74:	4663      	mov	r3, ip
20003a76:	bf08      	it	eq
20003a78:	ebc1 0c02 	rsbeq	ip, r1, r2
20003a7c:	d068      	beq.n	20003b50 <memcpy+0x120>
20003a7e:	4265      	negs	r5, r4
20003a80:	f1c4 0a04 	rsb	sl, r4, #4
20003a84:	eb0c 0705 	add.w	r7, ip, r5
20003a88:	4633      	mov	r3, r6
20003a8a:	ea4f 0aca 	mov.w	sl, sl, lsl #3
20003a8e:	f85c 6005 	ldr.w	r6, [ip, r5]
20003a92:	ea4f 08c4 	mov.w	r8, r4, lsl #3
20003a96:	1a55      	subs	r5, r2, r1
20003a98:	e008      	b.n	20003aac <memcpy+0x7c>
20003a9a:	f857 4f04 	ldr.w	r4, [r7, #4]!
20003a9e:	4626      	mov	r6, r4
20003aa0:	fa04 f40a 	lsl.w	r4, r4, sl
20003aa4:	ea49 0404 	orr.w	r4, r9, r4
20003aa8:	50cc      	str	r4, [r1, r3]
20003aaa:	3304      	adds	r3, #4
20003aac:	185c      	adds	r4, r3, r1
20003aae:	2d03      	cmp	r5, #3
20003ab0:	fa26 f908 	lsr.w	r9, r6, r8
20003ab4:	f1a5 0504 	sub.w	r5, r5, #4
20003ab8:	eb0c 0603 	add.w	r6, ip, r3
20003abc:	dced      	bgt.n	20003a9a <memcpy+0x6a>
20003abe:	2300      	movs	r3, #0
20003ac0:	e002      	b.n	20003ac8 <memcpy+0x98>
20003ac2:	5cf1      	ldrb	r1, [r6, r3]
20003ac4:	54e1      	strb	r1, [r4, r3]
20003ac6:	3301      	adds	r3, #1
20003ac8:	1919      	adds	r1, r3, r4
20003aca:	4291      	cmp	r1, r2
20003acc:	d3f9      	bcc.n	20003ac2 <memcpy+0x92>
20003ace:	e7bc      	b.n	20003a4a <memcpy+0x1a>
20003ad0:	f853 4c40 	ldr.w	r4, [r3, #-64]
20003ad4:	f841 4c40 	str.w	r4, [r1, #-64]
20003ad8:	f853 4c3c 	ldr.w	r4, [r3, #-60]
20003adc:	f841 4c3c 	str.w	r4, [r1, #-60]
20003ae0:	f853 4c38 	ldr.w	r4, [r3, #-56]
20003ae4:	f841 4c38 	str.w	r4, [r1, #-56]
20003ae8:	f853 4c34 	ldr.w	r4, [r3, #-52]
20003aec:	f841 4c34 	str.w	r4, [r1, #-52]
20003af0:	f853 4c30 	ldr.w	r4, [r3, #-48]
20003af4:	f841 4c30 	str.w	r4, [r1, #-48]
20003af8:	f853 4c2c 	ldr.w	r4, [r3, #-44]
20003afc:	f841 4c2c 	str.w	r4, [r1, #-44]
20003b00:	f853 4c28 	ldr.w	r4, [r3, #-40]
20003b04:	f841 4c28 	str.w	r4, [r1, #-40]
20003b08:	f853 4c24 	ldr.w	r4, [r3, #-36]
20003b0c:	f841 4c24 	str.w	r4, [r1, #-36]
20003b10:	f853 4c20 	ldr.w	r4, [r3, #-32]
20003b14:	f841 4c20 	str.w	r4, [r1, #-32]
20003b18:	f853 4c1c 	ldr.w	r4, [r3, #-28]
20003b1c:	f841 4c1c 	str.w	r4, [r1, #-28]
20003b20:	f853 4c18 	ldr.w	r4, [r3, #-24]
20003b24:	f841 4c18 	str.w	r4, [r1, #-24]
20003b28:	f853 4c14 	ldr.w	r4, [r3, #-20]
20003b2c:	f841 4c14 	str.w	r4, [r1, #-20]
20003b30:	f853 4c10 	ldr.w	r4, [r3, #-16]
20003b34:	f841 4c10 	str.w	r4, [r1, #-16]
20003b38:	f853 4c0c 	ldr.w	r4, [r3, #-12]
20003b3c:	f841 4c0c 	str.w	r4, [r1, #-12]
20003b40:	f853 4c08 	ldr.w	r4, [r3, #-8]
20003b44:	f841 4c08 	str.w	r4, [r1, #-8]
20003b48:	f853 4c04 	ldr.w	r4, [r3, #-4]
20003b4c:	f841 4c04 	str.w	r4, [r1, #-4]
20003b50:	461c      	mov	r4, r3
20003b52:	460d      	mov	r5, r1
20003b54:	3340      	adds	r3, #64	; 0x40
20003b56:	3140      	adds	r1, #64	; 0x40
20003b58:	f1bc 0f3f 	cmp.w	ip, #63	; 0x3f
20003b5c:	f1ac 0c40 	sub.w	ip, ip, #64	; 0x40
20003b60:	dcb6      	bgt.n	20003ad0 <memcpy+0xa0>
20003b62:	4621      	mov	r1, r4
20003b64:	462b      	mov	r3, r5
20003b66:	1b54      	subs	r4, r2, r5
20003b68:	e00f      	b.n	20003b8a <memcpy+0x15a>
20003b6a:	f851 5c10 	ldr.w	r5, [r1, #-16]
20003b6e:	f843 5c10 	str.w	r5, [r3, #-16]
20003b72:	f851 5c0c 	ldr.w	r5, [r1, #-12]
20003b76:	f843 5c0c 	str.w	r5, [r3, #-12]
20003b7a:	f851 5c08 	ldr.w	r5, [r1, #-8]
20003b7e:	f843 5c08 	str.w	r5, [r3, #-8]
20003b82:	f851 5c04 	ldr.w	r5, [r1, #-4]
20003b86:	f843 5c04 	str.w	r5, [r3, #-4]
20003b8a:	2c0f      	cmp	r4, #15
20003b8c:	460d      	mov	r5, r1
20003b8e:	469c      	mov	ip, r3
20003b90:	f101 0110 	add.w	r1, r1, #16
20003b94:	f103 0310 	add.w	r3, r3, #16
20003b98:	f1a4 0410 	sub.w	r4, r4, #16
20003b9c:	dce5      	bgt.n	20003b6a <memcpy+0x13a>
20003b9e:	ebcc 0102 	rsb	r1, ip, r2
20003ba2:	2300      	movs	r3, #0
20003ba4:	e003      	b.n	20003bae <memcpy+0x17e>
20003ba6:	58ec      	ldr	r4, [r5, r3]
20003ba8:	f84c 4003 	str.w	r4, [ip, r3]
20003bac:	3304      	adds	r3, #4
20003bae:	195e      	adds	r6, r3, r5
20003bb0:	2903      	cmp	r1, #3
20003bb2:	eb03 040c 	add.w	r4, r3, ip
20003bb6:	f1a1 0104 	sub.w	r1, r1, #4
20003bba:	dcf4      	bgt.n	20003ba6 <memcpy+0x176>
20003bbc:	e77f      	b.n	20003abe <memcpy+0x8e>
20003bbe:	bf00      	nop

20003bc0 <memset>:
20003bc0:	2a03      	cmp	r2, #3
20003bc2:	b2c9      	uxtb	r1, r1
20003bc4:	b430      	push	{r4, r5}
20003bc6:	d807      	bhi.n	20003bd8 <memset+0x18>
20003bc8:	b122      	cbz	r2, 20003bd4 <memset+0x14>
20003bca:	2300      	movs	r3, #0
20003bcc:	54c1      	strb	r1, [r0, r3]
20003bce:	3301      	adds	r3, #1
20003bd0:	4293      	cmp	r3, r2
20003bd2:	d1fb      	bne.n	20003bcc <memset+0xc>
20003bd4:	bc30      	pop	{r4, r5}
20003bd6:	4770      	bx	lr
20003bd8:	eb00 0c02 	add.w	ip, r0, r2
20003bdc:	4603      	mov	r3, r0
20003bde:	e001      	b.n	20003be4 <memset+0x24>
20003be0:	f803 1c01 	strb.w	r1, [r3, #-1]
20003be4:	f003 0403 	and.w	r4, r3, #3
20003be8:	461a      	mov	r2, r3
20003bea:	3301      	adds	r3, #1
20003bec:	2c00      	cmp	r4, #0
20003bee:	d1f7      	bne.n	20003be0 <memset+0x20>
20003bf0:	f04f 3301 	mov.w	r3, #16843009	; 0x1010101
20003bf4:	ebc2 040c 	rsb	r4, r2, ip
20003bf8:	fb03 f301 	mul.w	r3, r3, r1
20003bfc:	e01f      	b.n	20003c3e <memset+0x7e>
20003bfe:	f842 3c40 	str.w	r3, [r2, #-64]
20003c02:	f842 3c3c 	str.w	r3, [r2, #-60]
20003c06:	f842 3c38 	str.w	r3, [r2, #-56]
20003c0a:	f842 3c34 	str.w	r3, [r2, #-52]
20003c0e:	f842 3c30 	str.w	r3, [r2, #-48]
20003c12:	f842 3c2c 	str.w	r3, [r2, #-44]
20003c16:	f842 3c28 	str.w	r3, [r2, #-40]
20003c1a:	f842 3c24 	str.w	r3, [r2, #-36]
20003c1e:	f842 3c20 	str.w	r3, [r2, #-32]
20003c22:	f842 3c1c 	str.w	r3, [r2, #-28]
20003c26:	f842 3c18 	str.w	r3, [r2, #-24]
20003c2a:	f842 3c14 	str.w	r3, [r2, #-20]
20003c2e:	f842 3c10 	str.w	r3, [r2, #-16]
20003c32:	f842 3c0c 	str.w	r3, [r2, #-12]
20003c36:	f842 3c08 	str.w	r3, [r2, #-8]
20003c3a:	f842 3c04 	str.w	r3, [r2, #-4]
20003c3e:	4615      	mov	r5, r2
20003c40:	3240      	adds	r2, #64	; 0x40
20003c42:	2c3f      	cmp	r4, #63	; 0x3f
20003c44:	f1a4 0440 	sub.w	r4, r4, #64	; 0x40
20003c48:	dcd9      	bgt.n	20003bfe <memset+0x3e>
20003c4a:	462a      	mov	r2, r5
20003c4c:	ebc5 040c 	rsb	r4, r5, ip
20003c50:	e007      	b.n	20003c62 <memset+0xa2>
20003c52:	f842 3c10 	str.w	r3, [r2, #-16]
20003c56:	f842 3c0c 	str.w	r3, [r2, #-12]
20003c5a:	f842 3c08 	str.w	r3, [r2, #-8]
20003c5e:	f842 3c04 	str.w	r3, [r2, #-4]
20003c62:	4615      	mov	r5, r2
20003c64:	3210      	adds	r2, #16
20003c66:	2c0f      	cmp	r4, #15
20003c68:	f1a4 0410 	sub.w	r4, r4, #16
20003c6c:	dcf1      	bgt.n	20003c52 <memset+0x92>
20003c6e:	462a      	mov	r2, r5
20003c70:	ebc5 050c 	rsb	r5, r5, ip
20003c74:	e001      	b.n	20003c7a <memset+0xba>
20003c76:	f842 3c04 	str.w	r3, [r2, #-4]
20003c7a:	4614      	mov	r4, r2
20003c7c:	3204      	adds	r2, #4
20003c7e:	2d03      	cmp	r5, #3
20003c80:	f1a5 0504 	sub.w	r5, r5, #4
20003c84:	dcf7      	bgt.n	20003c76 <memset+0xb6>
20003c86:	e001      	b.n	20003c8c <memset+0xcc>
20003c88:	f804 1b01 	strb.w	r1, [r4], #1
20003c8c:	4564      	cmp	r4, ip
20003c8e:	d3fb      	bcc.n	20003c88 <memset+0xc8>
20003c90:	e7a0      	b.n	20003bd4 <memset+0x14>
20003c92:	bf00      	nop

20003c94 <_realloc_r>:
20003c94:	e92d 4ff0 	stmdb	sp!, {r4, r5, r6, r7, r8, r9, sl, fp, lr}
20003c98:	4691      	mov	r9, r2
20003c9a:	b083      	sub	sp, #12
20003c9c:	4607      	mov	r7, r0
20003c9e:	460e      	mov	r6, r1
20003ca0:	2900      	cmp	r1, #0
20003ca2:	f000 813a 	beq.w	20003f1a <_realloc_r+0x286>
20003ca6:	f1a1 0808 	sub.w	r8, r1, #8
20003caa:	f109 040b 	add.w	r4, r9, #11
20003cae:	f7fe f885 	bl	20001dbc <__malloc_lock>
20003cb2:	2c16      	cmp	r4, #22
20003cb4:	f8d8 1004 	ldr.w	r1, [r8, #4]
20003cb8:	460b      	mov	r3, r1
20003cba:	f200 80a0 	bhi.w	20003dfe <_realloc_r+0x16a>
20003cbe:	2210      	movs	r2, #16
20003cc0:	2500      	movs	r5, #0
20003cc2:	4614      	mov	r4, r2
20003cc4:	454c      	cmp	r4, r9
20003cc6:	bf38      	it	cc
20003cc8:	f045 0501 	orrcc.w	r5, r5, #1
20003ccc:	2d00      	cmp	r5, #0
20003cce:	f040 812a 	bne.w	20003f26 <_realloc_r+0x292>
20003cd2:	f021 0a03 	bic.w	sl, r1, #3
20003cd6:	4592      	cmp	sl, r2
20003cd8:	bfa2      	ittt	ge
20003cda:	4640      	movge	r0, r8
20003cdc:	4655      	movge	r5, sl
20003cde:	f108 0808 	addge.w	r8, r8, #8
20003ce2:	da75      	bge.n	20003dd0 <_realloc_r+0x13c>
20003ce4:	f64a 43f0 	movw	r3, #44272	; 0xacf0
20003ce8:	eb08 000a 	add.w	r0, r8, sl
20003cec:	f2c2 0300 	movt	r3, #8192	; 0x2000
20003cf0:	f8d3 e008 	ldr.w	lr, [r3, #8]
20003cf4:	4586      	cmp	lr, r0
20003cf6:	f000 811a 	beq.w	20003f2e <_realloc_r+0x29a>
20003cfa:	f8d0 c004 	ldr.w	ip, [r0, #4]
20003cfe:	f02c 0b01 	bic.w	fp, ip, #1
20003d02:	4483      	add	fp, r0
20003d04:	f8db b004 	ldr.w	fp, [fp, #4]
20003d08:	f01b 0f01 	tst.w	fp, #1
20003d0c:	d07c      	beq.n	20003e08 <_realloc_r+0x174>
20003d0e:	46ac      	mov	ip, r5
20003d10:	4628      	mov	r0, r5
20003d12:	f011 0f01 	tst.w	r1, #1
20003d16:	f040 809b 	bne.w	20003e50 <_realloc_r+0x1bc>
20003d1a:	f856 1c08 	ldr.w	r1, [r6, #-8]
20003d1e:	ebc1 0b08 	rsb	fp, r1, r8
20003d22:	f8db 5004 	ldr.w	r5, [fp, #4]
20003d26:	f025 0503 	bic.w	r5, r5, #3
20003d2a:	2800      	cmp	r0, #0
20003d2c:	f000 80dd 	beq.w	20003eea <_realloc_r+0x256>
20003d30:	4570      	cmp	r0, lr
20003d32:	f000 811f 	beq.w	20003f74 <_realloc_r+0x2e0>
20003d36:	eb05 030a 	add.w	r3, r5, sl
20003d3a:	eb0c 0503 	add.w	r5, ip, r3
20003d3e:	4295      	cmp	r5, r2
20003d40:	bfb8      	it	lt
20003d42:	461d      	movlt	r5, r3
20003d44:	f2c0 80d2 	blt.w	20003eec <_realloc_r+0x258>
20003d48:	6881      	ldr	r1, [r0, #8]
20003d4a:	465b      	mov	r3, fp
20003d4c:	68c0      	ldr	r0, [r0, #12]
20003d4e:	f1aa 0204 	sub.w	r2, sl, #4
20003d52:	2a24      	cmp	r2, #36	; 0x24
20003d54:	6081      	str	r1, [r0, #8]
20003d56:	60c8      	str	r0, [r1, #12]
20003d58:	f853 1f08 	ldr.w	r1, [r3, #8]!
20003d5c:	f8db 000c 	ldr.w	r0, [fp, #12]
20003d60:	6081      	str	r1, [r0, #8]
20003d62:	60c8      	str	r0, [r1, #12]
20003d64:	f200 80d0 	bhi.w	20003f08 <_realloc_r+0x274>
20003d68:	2a13      	cmp	r2, #19
20003d6a:	469c      	mov	ip, r3
20003d6c:	d921      	bls.n	20003db2 <_realloc_r+0x11e>
20003d6e:	4631      	mov	r1, r6
20003d70:	f10b 0c10 	add.w	ip, fp, #16
20003d74:	f851 0b04 	ldr.w	r0, [r1], #4
20003d78:	f8cb 0008 	str.w	r0, [fp, #8]
20003d7c:	6870      	ldr	r0, [r6, #4]
20003d7e:	1d0e      	adds	r6, r1, #4
20003d80:	2a1b      	cmp	r2, #27
20003d82:	f8cb 000c 	str.w	r0, [fp, #12]
20003d86:	d914      	bls.n	20003db2 <_realloc_r+0x11e>
20003d88:	6848      	ldr	r0, [r1, #4]
20003d8a:	1d31      	adds	r1, r6, #4
20003d8c:	f10b 0c18 	add.w	ip, fp, #24
20003d90:	f8cb 0010 	str.w	r0, [fp, #16]
20003d94:	6870      	ldr	r0, [r6, #4]
20003d96:	1d0e      	adds	r6, r1, #4
20003d98:	2a24      	cmp	r2, #36	; 0x24
20003d9a:	f8cb 0014 	str.w	r0, [fp, #20]
20003d9e:	d108      	bne.n	20003db2 <_realloc_r+0x11e>
20003da0:	684a      	ldr	r2, [r1, #4]
20003da2:	f10b 0c20 	add.w	ip, fp, #32
20003da6:	f8cb 2018 	str.w	r2, [fp, #24]
20003daa:	6872      	ldr	r2, [r6, #4]
20003dac:	3608      	adds	r6, #8
20003dae:	f8cb 201c 	str.w	r2, [fp, #28]
20003db2:	4631      	mov	r1, r6
20003db4:	4698      	mov	r8, r3
20003db6:	4662      	mov	r2, ip
20003db8:	4658      	mov	r0, fp
20003dba:	f851 3b04 	ldr.w	r3, [r1], #4
20003dbe:	f842 3b04 	str.w	r3, [r2], #4
20003dc2:	6873      	ldr	r3, [r6, #4]
20003dc4:	f8cc 3004 	str.w	r3, [ip, #4]
20003dc8:	684b      	ldr	r3, [r1, #4]
20003dca:	6053      	str	r3, [r2, #4]
20003dcc:	f8db 3004 	ldr.w	r3, [fp, #4]
20003dd0:	ebc4 0c05 	rsb	ip, r4, r5
20003dd4:	f1bc 0f0f 	cmp.w	ip, #15
20003dd8:	d826      	bhi.n	20003e28 <_realloc_r+0x194>
20003dda:	1942      	adds	r2, r0, r5
20003ddc:	f003 0301 	and.w	r3, r3, #1
20003de0:	ea43 0505 	orr.w	r5, r3, r5
20003de4:	6045      	str	r5, [r0, #4]
20003de6:	6853      	ldr	r3, [r2, #4]
20003de8:	f043 0301 	orr.w	r3, r3, #1
20003dec:	6053      	str	r3, [r2, #4]
20003dee:	4638      	mov	r0, r7
20003df0:	4645      	mov	r5, r8
20003df2:	f7fd ffe5 	bl	20001dc0 <__malloc_unlock>
20003df6:	4628      	mov	r0, r5
20003df8:	b003      	add	sp, #12
20003dfa:	e8bd 8ff0 	ldmia.w	sp!, {r4, r5, r6, r7, r8, r9, sl, fp, pc}
20003dfe:	f024 0407 	bic.w	r4, r4, #7
20003e02:	4622      	mov	r2, r4
20003e04:	0fe5      	lsrs	r5, r4, #31
20003e06:	e75d      	b.n	20003cc4 <_realloc_r+0x30>
20003e08:	f02c 0c03 	bic.w	ip, ip, #3
20003e0c:	eb0c 050a 	add.w	r5, ip, sl
20003e10:	4295      	cmp	r5, r2
20003e12:	f6ff af7e 	blt.w	20003d12 <_realloc_r+0x7e>
20003e16:	6882      	ldr	r2, [r0, #8]
20003e18:	460b      	mov	r3, r1
20003e1a:	68c1      	ldr	r1, [r0, #12]
20003e1c:	4640      	mov	r0, r8
20003e1e:	f108 0808 	add.w	r8, r8, #8
20003e22:	608a      	str	r2, [r1, #8]
20003e24:	60d1      	str	r1, [r2, #12]
20003e26:	e7d3      	b.n	20003dd0 <_realloc_r+0x13c>
20003e28:	1901      	adds	r1, r0, r4
20003e2a:	f003 0301 	and.w	r3, r3, #1
20003e2e:	eb01 020c 	add.w	r2, r1, ip
20003e32:	ea43 0404 	orr.w	r4, r3, r4
20003e36:	f04c 0301 	orr.w	r3, ip, #1
20003e3a:	6044      	str	r4, [r0, #4]
20003e3c:	604b      	str	r3, [r1, #4]
20003e3e:	4638      	mov	r0, r7
20003e40:	6853      	ldr	r3, [r2, #4]
20003e42:	3108      	adds	r1, #8
20003e44:	f043 0301 	orr.w	r3, r3, #1
20003e48:	6053      	str	r3, [r2, #4]
20003e4a:	f7ff fc2f 	bl	200036ac <_free_r>
20003e4e:	e7ce      	b.n	20003dee <_realloc_r+0x15a>
20003e50:	4649      	mov	r1, r9
20003e52:	4638      	mov	r0, r7
20003e54:	f7fd fce0 	bl	20001818 <_malloc_r>
20003e58:	4605      	mov	r5, r0
20003e5a:	2800      	cmp	r0, #0
20003e5c:	d041      	beq.n	20003ee2 <_realloc_r+0x24e>
20003e5e:	f8d8 3004 	ldr.w	r3, [r8, #4]
20003e62:	f1a0 0208 	sub.w	r2, r0, #8
20003e66:	f023 0101 	bic.w	r1, r3, #1
20003e6a:	4441      	add	r1, r8
20003e6c:	428a      	cmp	r2, r1
20003e6e:	f000 80d7 	beq.w	20004020 <_realloc_r+0x38c>
20003e72:	f1aa 0204 	sub.w	r2, sl, #4
20003e76:	4631      	mov	r1, r6
20003e78:	2a24      	cmp	r2, #36	; 0x24
20003e7a:	d878      	bhi.n	20003f6e <_realloc_r+0x2da>
20003e7c:	2a13      	cmp	r2, #19
20003e7e:	4603      	mov	r3, r0
20003e80:	d921      	bls.n	20003ec6 <_realloc_r+0x232>
20003e82:	4634      	mov	r4, r6
20003e84:	f854 3b04 	ldr.w	r3, [r4], #4
20003e88:	1d21      	adds	r1, r4, #4
20003e8a:	f840 3b04 	str.w	r3, [r0], #4
20003e8e:	1d03      	adds	r3, r0, #4
20003e90:	f8d6 c004 	ldr.w	ip, [r6, #4]
20003e94:	2a1b      	cmp	r2, #27
20003e96:	f8c5 c004 	str.w	ip, [r5, #4]
20003e9a:	d914      	bls.n	20003ec6 <_realloc_r+0x232>
20003e9c:	f8d4 e004 	ldr.w	lr, [r4, #4]
20003ea0:	1d1c      	adds	r4, r3, #4
20003ea2:	f101 0c04 	add.w	ip, r1, #4
20003ea6:	f8c0 e004 	str.w	lr, [r0, #4]
20003eaa:	6848      	ldr	r0, [r1, #4]
20003eac:	f10c 0104 	add.w	r1, ip, #4
20003eb0:	6058      	str	r0, [r3, #4]
20003eb2:	1d23      	adds	r3, r4, #4
20003eb4:	2a24      	cmp	r2, #36	; 0x24
20003eb6:	d106      	bne.n	20003ec6 <_realloc_r+0x232>
20003eb8:	f8dc 2004 	ldr.w	r2, [ip, #4]
20003ebc:	6062      	str	r2, [r4, #4]
20003ebe:	684a      	ldr	r2, [r1, #4]
20003ec0:	3108      	adds	r1, #8
20003ec2:	605a      	str	r2, [r3, #4]
20003ec4:	3308      	adds	r3, #8
20003ec6:	4608      	mov	r0, r1
20003ec8:	461a      	mov	r2, r3
20003eca:	f850 4b04 	ldr.w	r4, [r0], #4
20003ece:	f842 4b04 	str.w	r4, [r2], #4
20003ed2:	6849      	ldr	r1, [r1, #4]
20003ed4:	6059      	str	r1, [r3, #4]
20003ed6:	6843      	ldr	r3, [r0, #4]
20003ed8:	6053      	str	r3, [r2, #4]
20003eda:	4631      	mov	r1, r6
20003edc:	4638      	mov	r0, r7
20003ede:	f7ff fbe5 	bl	200036ac <_free_r>
20003ee2:	4638      	mov	r0, r7
20003ee4:	f7fd ff6c 	bl	20001dc0 <__malloc_unlock>
20003ee8:	e785      	b.n	20003df6 <_realloc_r+0x162>
20003eea:	4455      	add	r5, sl
20003eec:	4295      	cmp	r5, r2
20003eee:	dbaf      	blt.n	20003e50 <_realloc_r+0x1bc>
20003ef0:	465b      	mov	r3, fp
20003ef2:	f8db 000c 	ldr.w	r0, [fp, #12]
20003ef6:	f1aa 0204 	sub.w	r2, sl, #4
20003efa:	f853 1f08 	ldr.w	r1, [r3, #8]!
20003efe:	2a24      	cmp	r2, #36	; 0x24
20003f00:	6081      	str	r1, [r0, #8]
20003f02:	60c8      	str	r0, [r1, #12]
20003f04:	f67f af30 	bls.w	20003d68 <_realloc_r+0xd4>
20003f08:	4618      	mov	r0, r3
20003f0a:	4631      	mov	r1, r6
20003f0c:	4698      	mov	r8, r3
20003f0e:	f004 fce3 	bl	200088d8 <memmove>
20003f12:	4658      	mov	r0, fp
20003f14:	f8db 3004 	ldr.w	r3, [fp, #4]
20003f18:	e75a      	b.n	20003dd0 <_realloc_r+0x13c>
20003f1a:	4611      	mov	r1, r2
20003f1c:	b003      	add	sp, #12
20003f1e:	e8bd 4ff0 	ldmia.w	sp!, {r4, r5, r6, r7, r8, r9, sl, fp, lr}
20003f22:	f7fd bc79 	b.w	20001818 <_malloc_r>
20003f26:	230c      	movs	r3, #12
20003f28:	2500      	movs	r5, #0
20003f2a:	603b      	str	r3, [r7, #0]
20003f2c:	e763      	b.n	20003df6 <_realloc_r+0x162>
20003f2e:	f8de 5004 	ldr.w	r5, [lr, #4]
20003f32:	f104 0b10 	add.w	fp, r4, #16
20003f36:	f025 0c03 	bic.w	ip, r5, #3
20003f3a:	eb0c 000a 	add.w	r0, ip, sl
20003f3e:	4558      	cmp	r0, fp
20003f40:	bfb8      	it	lt
20003f42:	4670      	movlt	r0, lr
20003f44:	f6ff aee5 	blt.w	20003d12 <_realloc_r+0x7e>
20003f48:	eb08 0204 	add.w	r2, r8, r4
20003f4c:	1b01      	subs	r1, r0, r4
20003f4e:	f041 0101 	orr.w	r1, r1, #1
20003f52:	609a      	str	r2, [r3, #8]
20003f54:	6051      	str	r1, [r2, #4]
20003f56:	4638      	mov	r0, r7
20003f58:	f8d8 1004 	ldr.w	r1, [r8, #4]
20003f5c:	4635      	mov	r5, r6
20003f5e:	f001 0301 	and.w	r3, r1, #1
20003f62:	431c      	orrs	r4, r3
20003f64:	f8c8 4004 	str.w	r4, [r8, #4]
20003f68:	f7fd ff2a 	bl	20001dc0 <__malloc_unlock>
20003f6c:	e743      	b.n	20003df6 <_realloc_r+0x162>
20003f6e:	f004 fcb3 	bl	200088d8 <memmove>
20003f72:	e7b2      	b.n	20003eda <_realloc_r+0x246>
20003f74:	4455      	add	r5, sl
20003f76:	f104 0110 	add.w	r1, r4, #16
20003f7a:	44ac      	add	ip, r5
20003f7c:	458c      	cmp	ip, r1
20003f7e:	dbb5      	blt.n	20003eec <_realloc_r+0x258>
20003f80:	465d      	mov	r5, fp
20003f82:	f8db 000c 	ldr.w	r0, [fp, #12]
20003f86:	f1aa 0204 	sub.w	r2, sl, #4
20003f8a:	f855 1f08 	ldr.w	r1, [r5, #8]!
20003f8e:	2a24      	cmp	r2, #36	; 0x24
20003f90:	6081      	str	r1, [r0, #8]
20003f92:	60c8      	str	r0, [r1, #12]
20003f94:	d84c      	bhi.n	20004030 <_realloc_r+0x39c>
20003f96:	2a13      	cmp	r2, #19
20003f98:	4628      	mov	r0, r5
20003f9a:	d924      	bls.n	20003fe6 <_realloc_r+0x352>
20003f9c:	4631      	mov	r1, r6
20003f9e:	f10b 0010 	add.w	r0, fp, #16
20003fa2:	f851 eb04 	ldr.w	lr, [r1], #4
20003fa6:	f8cb e008 	str.w	lr, [fp, #8]
20003faa:	f8d6 e004 	ldr.w	lr, [r6, #4]
20003fae:	1d0e      	adds	r6, r1, #4
20003fb0:	2a1b      	cmp	r2, #27
20003fb2:	f8cb e00c 	str.w	lr, [fp, #12]
20003fb6:	d916      	bls.n	20003fe6 <_realloc_r+0x352>
20003fb8:	f8d1 e004 	ldr.w	lr, [r1, #4]
20003fbc:	1d31      	adds	r1, r6, #4
20003fbe:	f10b 0018 	add.w	r0, fp, #24
20003fc2:	f8cb e010 	str.w	lr, [fp, #16]
20003fc6:	f8d6 e004 	ldr.w	lr, [r6, #4]
20003fca:	1d0e      	adds	r6, r1, #4
20003fcc:	2a24      	cmp	r2, #36	; 0x24
20003fce:	f8cb e014 	str.w	lr, [fp, #20]
20003fd2:	d108      	bne.n	20003fe6 <_realloc_r+0x352>
20003fd4:	684a      	ldr	r2, [r1, #4]
20003fd6:	f10b 0020 	add.w	r0, fp, #32
20003fda:	f8cb 2018 	str.w	r2, [fp, #24]
20003fde:	6872      	ldr	r2, [r6, #4]
20003fe0:	3608      	adds	r6, #8
20003fe2:	f8cb 201c 	str.w	r2, [fp, #28]
20003fe6:	4631      	mov	r1, r6
20003fe8:	4602      	mov	r2, r0
20003fea:	f851 eb04 	ldr.w	lr, [r1], #4
20003fee:	f842 eb04 	str.w	lr, [r2], #4
20003ff2:	6876      	ldr	r6, [r6, #4]
20003ff4:	6046      	str	r6, [r0, #4]
20003ff6:	6849      	ldr	r1, [r1, #4]
20003ff8:	6051      	str	r1, [r2, #4]
20003ffa:	eb0b 0204 	add.w	r2, fp, r4
20003ffe:	ebc4 010c 	rsb	r1, r4, ip
20004002:	f041 0101 	orr.w	r1, r1, #1
20004006:	609a      	str	r2, [r3, #8]
20004008:	6051      	str	r1, [r2, #4]
2000400a:	4638      	mov	r0, r7
2000400c:	f8db 1004 	ldr.w	r1, [fp, #4]
20004010:	f001 0301 	and.w	r3, r1, #1
20004014:	431c      	orrs	r4, r3
20004016:	f8cb 4004 	str.w	r4, [fp, #4]
2000401a:	f7fd fed1 	bl	20001dc0 <__malloc_unlock>
2000401e:	e6ea      	b.n	20003df6 <_realloc_r+0x162>
20004020:	6855      	ldr	r5, [r2, #4]
20004022:	4640      	mov	r0, r8
20004024:	f108 0808 	add.w	r8, r8, #8
20004028:	f025 0503 	bic.w	r5, r5, #3
2000402c:	4455      	add	r5, sl
2000402e:	e6cf      	b.n	20003dd0 <_realloc_r+0x13c>
20004030:	4631      	mov	r1, r6
20004032:	4628      	mov	r0, r5
20004034:	9300      	str	r3, [sp, #0]
20004036:	f8cd c004 	str.w	ip, [sp, #4]
2000403a:	f004 fc4d 	bl	200088d8 <memmove>
2000403e:	f8dd c004 	ldr.w	ip, [sp, #4]
20004042:	9b00      	ldr	r3, [sp, #0]
20004044:	e7d9      	b.n	20003ffa <_realloc_r+0x366>
20004046:	bf00      	nop

20004048 <__isnand>:
20004048:	4602      	mov	r2, r0
2000404a:	4240      	negs	r0, r0
2000404c:	4310      	orrs	r0, r2
2000404e:	f021 4100 	bic.w	r1, r1, #2147483648	; 0x80000000
20004052:	ea41 70d0 	orr.w	r0, r1, r0, lsr #31
20004056:	f1c0 40fe 	rsb	r0, r0, #2130706432	; 0x7f000000
2000405a:	f500 0070 	add.w	r0, r0, #15728640	; 0xf00000
2000405e:	0fc0      	lsrs	r0, r0, #31
20004060:	4770      	bx	lr
20004062:	bf00      	nop

20004064 <__sccl>:
20004064:	4602      	mov	r2, r0
20004066:	4608      	mov	r0, r1
20004068:	b470      	push	{r4, r5, r6}
2000406a:	f810 4b01 	ldrb.w	r4, [r0], #1
2000406e:	2c5e      	cmp	r4, #94	; 0x5e
20004070:	d02e      	beq.n	200040d0 <__sccl+0x6c>
20004072:	2100      	movs	r1, #0
20004074:	2300      	movs	r3, #0
20004076:	54d1      	strb	r1, [r2, r3]
20004078:	3301      	adds	r3, #1
2000407a:	f5b3 7f80 	cmp.w	r3, #256	; 0x100
2000407e:	d1fa      	bne.n	20004076 <__sccl+0x12>
20004080:	b18c      	cbz	r4, 200040a6 <__sccl+0x42>
20004082:	f081 0c01 	eor.w	ip, r1, #1
20004086:	4601      	mov	r1, r0
20004088:	f802 c004 	strb.w	ip, [r2, r4]
2000408c:	4608      	mov	r0, r1
2000408e:	f810 3b01 	ldrb.w	r3, [r0], #1
20004092:	2b2d      	cmp	r3, #45	; 0x2d
20004094:	d009      	beq.n	200040aa <__sccl+0x46>
20004096:	2b5d      	cmp	r3, #93	; 0x5d
20004098:	d001      	beq.n	2000409e <__sccl+0x3a>
2000409a:	b913      	cbnz	r3, 200040a2 <__sccl+0x3e>
2000409c:	4608      	mov	r0, r1
2000409e:	bc70      	pop	{r4, r5, r6}
200040a0:	4770      	bx	lr
200040a2:	461c      	mov	r4, r3
200040a4:	e7ef      	b.n	20004086 <__sccl+0x22>
200040a6:	3801      	subs	r0, #1
200040a8:	e7f9      	b.n	2000409e <__sccl+0x3a>
200040aa:	784d      	ldrb	r5, [r1, #1]
200040ac:	2d5d      	cmp	r5, #93	; 0x5d
200040ae:	bf14      	ite	ne
200040b0:	2600      	movne	r6, #0
200040b2:	2601      	moveq	r6, #1
200040b4:	42a5      	cmp	r5, r4
200040b6:	bfb8      	it	lt
200040b8:	f046 0601 	orrlt.w	r6, r6, #1
200040bc:	2e00      	cmp	r6, #0
200040be:	d1f0      	bne.n	200040a2 <__sccl+0x3e>
200040c0:	1913      	adds	r3, r2, r4
200040c2:	3401      	adds	r4, #1
200040c4:	f803 cf01 	strb.w	ip, [r3, #1]!
200040c8:	42a5      	cmp	r5, r4
200040ca:	dcfa      	bgt.n	200040c2 <__sccl+0x5e>
200040cc:	3102      	adds	r1, #2
200040ce:	e7dd      	b.n	2000408c <__sccl+0x28>
200040d0:	784c      	ldrb	r4, [r1, #1]
200040d2:	3001      	adds	r0, #1
200040d4:	2101      	movs	r1, #1
200040d6:	e7cd      	b.n	20004074 <__sccl+0x10>

200040d8 <nanf>:
200040d8:	f240 0000 	movw	r0, #0
200040dc:	f6c7 70c0 	movt	r0, #32704	; 0x7fc0
200040e0:	4770      	bx	lr
200040e2:	bf00      	nop

200040e4 <sprintf>:
200040e4:	b40e      	push	{r1, r2, r3}
200040e6:	f64a 33fc 	movw	r3, #44028	; 0xabfc
200040ea:	b530      	push	{r4, r5, lr}
200040ec:	b09c      	sub	sp, #112	; 0x70
200040ee:	ac1f      	add	r4, sp, #124	; 0x7c
200040f0:	f2c2 0300 	movt	r3, #8192	; 0x2000
200040f4:	4605      	mov	r5, r0
200040f6:	a901      	add	r1, sp, #4
200040f8:	f854 2b04 	ldr.w	r2, [r4], #4
200040fc:	f04f 3cff 	mov.w	ip, #4294967295
20004100:	6818      	ldr	r0, [r3, #0]
20004102:	f44f 7302 	mov.w	r3, #520	; 0x208
20004106:	f8ad 3010 	strh.w	r3, [sp, #16]
2000410a:	4623      	mov	r3, r4
2000410c:	9505      	str	r5, [sp, #20]
2000410e:	9501      	str	r5, [sp, #4]
20004110:	f06f 4500 	mvn.w	r5, #2147483648	; 0x80000000
20004114:	f8ad c012 	strh.w	ip, [sp, #18]
20004118:	9506      	str	r5, [sp, #24]
2000411a:	9503      	str	r5, [sp, #12]
2000411c:	941b      	str	r4, [sp, #108]	; 0x6c
2000411e:	f001 fd3d 	bl	20005b9c <_svfprintf_r>
20004122:	9b01      	ldr	r3, [sp, #4]
20004124:	2200      	movs	r2, #0
20004126:	701a      	strb	r2, [r3, #0]
20004128:	b01c      	add	sp, #112	; 0x70
2000412a:	e8bd 4030 	ldmia.w	sp!, {r4, r5, lr}
2000412e:	b003      	add	sp, #12
20004130:	4770      	bx	lr
20004132:	bf00      	nop

20004134 <_sprintf_r>:
20004134:	b40c      	push	{r2, r3}
20004136:	460b      	mov	r3, r1
20004138:	b510      	push	{r4, lr}
2000413a:	b09c      	sub	sp, #112	; 0x70
2000413c:	ac1e      	add	r4, sp, #120	; 0x78
2000413e:	a901      	add	r1, sp, #4
20004140:	9305      	str	r3, [sp, #20]
20004142:	f44f 7c02 	mov.w	ip, #520	; 0x208
20004146:	f854 2b04 	ldr.w	r2, [r4], #4
2000414a:	9301      	str	r3, [sp, #4]
2000414c:	f04f 33ff 	mov.w	r3, #4294967295
20004150:	f8ad 3012 	strh.w	r3, [sp, #18]
20004154:	4623      	mov	r3, r4
20004156:	941b      	str	r4, [sp, #108]	; 0x6c
20004158:	f06f 4400 	mvn.w	r4, #2147483648	; 0x80000000
2000415c:	f8ad c010 	strh.w	ip, [sp, #16]
20004160:	9406      	str	r4, [sp, #24]
20004162:	9403      	str	r4, [sp, #12]
20004164:	f001 fd1a 	bl	20005b9c <_svfprintf_r>
20004168:	9b01      	ldr	r3, [sp, #4]
2000416a:	2200      	movs	r2, #0
2000416c:	701a      	strb	r2, [r3, #0]
2000416e:	b01c      	add	sp, #112	; 0x70
20004170:	e8bd 4010 	ldmia.w	sp!, {r4, lr}
20004174:	b002      	add	sp, #8
20004176:	4770      	bx	lr

20004178 <__sclose>:
20004178:	f9b1 100e 	ldrsh.w	r1, [r1, #14]
2000417c:	f002 bf54 	b.w	20007028 <_close_r>

20004180 <__sseek>:
20004180:	b510      	push	{r4, lr}
20004182:	460c      	mov	r4, r1
20004184:	f9b1 100e 	ldrsh.w	r1, [r1, #14]
20004188:	f004 fb56 	bl	20008838 <_lseek_r>
2000418c:	89a3      	ldrh	r3, [r4, #12]
2000418e:	f1b0 3fff 	cmp.w	r0, #4294967295
20004192:	bf15      	itete	ne
20004194:	6560      	strne	r0, [r4, #84]	; 0x54
20004196:	f423 5380 	biceq.w	r3, r3, #4096	; 0x1000
2000419a:	f443 5380 	orrne.w	r3, r3, #4096	; 0x1000
2000419e:	81a3      	strheq	r3, [r4, #12]
200041a0:	bf18      	it	ne
200041a2:	81a3      	strhne	r3, [r4, #12]
200041a4:	bd10      	pop	{r4, pc}
200041a6:	bf00      	nop

200041a8 <__swrite>:
200041a8:	e92d 41f0 	stmdb	sp!, {r4, r5, r6, r7, r8, lr}
200041ac:	461d      	mov	r5, r3
200041ae:	898b      	ldrh	r3, [r1, #12]
200041b0:	460c      	mov	r4, r1
200041b2:	4616      	mov	r6, r2
200041b4:	4607      	mov	r7, r0
200041b6:	f413 7f80 	tst.w	r3, #256	; 0x100
200041ba:	d006      	beq.n	200041ca <__swrite+0x22>
200041bc:	2302      	movs	r3, #2
200041be:	f9b1 100e 	ldrsh.w	r1, [r1, #14]
200041c2:	2200      	movs	r2, #0
200041c4:	f004 fb38 	bl	20008838 <_lseek_r>
200041c8:	89a3      	ldrh	r3, [r4, #12]
200041ca:	f423 5380 	bic.w	r3, r3, #4096	; 0x1000
200041ce:	4638      	mov	r0, r7
200041d0:	81a3      	strh	r3, [r4, #12]
200041d2:	4632      	mov	r2, r6
200041d4:	f9b4 100e 	ldrsh.w	r1, [r4, #14]
200041d8:	462b      	mov	r3, r5
200041da:	e8bd 41f0 	ldmia.w	sp!, {r4, r5, r6, r7, r8, lr}
200041de:	f7fc bd93 	b.w	20000d08 <_write_r>
200041e2:	bf00      	nop

200041e4 <__sread>:
200041e4:	b510      	push	{r4, lr}
200041e6:	460c      	mov	r4, r1
200041e8:	f9b1 100e 	ldrsh.w	r1, [r1, #14]
200041ec:	f005 f87c 	bl	200092e8 <_read_r>
200041f0:	2800      	cmp	r0, #0
200041f2:	db03      	blt.n	200041fc <__sread+0x18>
200041f4:	6d63      	ldr	r3, [r4, #84]	; 0x54
200041f6:	181b      	adds	r3, r3, r0
200041f8:	6563      	str	r3, [r4, #84]	; 0x54
200041fa:	bd10      	pop	{r4, pc}
200041fc:	89a3      	ldrh	r3, [r4, #12]
200041fe:	f423 5380 	bic.w	r3, r3, #4096	; 0x1000
20004202:	81a3      	strh	r3, [r4, #12]
20004204:	bd10      	pop	{r4, pc}
20004206:	bf00      	nop

20004208 <strcmp>:
20004208:	ea80 0201 	eor.w	r2, r0, r1
2000420c:	f012 0f03 	tst.w	r2, #3
20004210:	d13a      	bne.n	20004288 <strcmp_unaligned>
20004212:	f010 0203 	ands.w	r2, r0, #3
20004216:	f020 0003 	bic.w	r0, r0, #3
2000421a:	f021 0103 	bic.w	r1, r1, #3
2000421e:	f850 cb04 	ldr.w	ip, [r0], #4
20004222:	bf08      	it	eq
20004224:	f851 3b04 	ldreq.w	r3, [r1], #4
20004228:	d00d      	beq.n	20004246 <strcmp+0x3e>
2000422a:	f082 0203 	eor.w	r2, r2, #3
2000422e:	ea4f 02c2 	mov.w	r2, r2, lsl #3
20004232:	f06f 437f 	mvn.w	r3, #4278190080	; 0xff000000
20004236:	fa23 f202 	lsr.w	r2, r3, r2
2000423a:	f851 3b04 	ldr.w	r3, [r1], #4
2000423e:	ea4c 0c02 	orr.w	ip, ip, r2
20004242:	ea43 0302 	orr.w	r3, r3, r2
20004246:	bf00      	nop
20004248:	f1ac 3201 	sub.w	r2, ip, #16843009	; 0x1010101
2000424c:	459c      	cmp	ip, r3
2000424e:	bf01      	itttt	eq
20004250:	ea22 020c 	biceq.w	r2, r2, ip
20004254:	f012 3f80 	tsteq.w	r2, #2155905152	; 0x80808080
20004258:	f850 cb04 	ldreq.w	ip, [r0], #4
2000425c:	f851 3b04 	ldreq.w	r3, [r1], #4
20004260:	d0f2      	beq.n	20004248 <strcmp+0x40>
20004262:	ea4f 600c 	mov.w	r0, ip, lsl #24
20004266:	ea4f 2c1c 	mov.w	ip, ip, lsr #8
2000426a:	2801      	cmp	r0, #1
2000426c:	bf28      	it	cs
2000426e:	ebb0 6f03 	cmpcs.w	r0, r3, lsl #24
20004272:	bf08      	it	eq
20004274:	0a1b      	lsreq	r3, r3, #8
20004276:	d0f4      	beq.n	20004262 <strcmp+0x5a>
20004278:	f003 03ff 	and.w	r3, r3, #255	; 0xff
2000427c:	ea4f 6010 	mov.w	r0, r0, lsr #24
20004280:	eba0 0003 	sub.w	r0, r0, r3
20004284:	4770      	bx	lr
20004286:	bf00      	nop

20004288 <strcmp_unaligned>:
20004288:	f010 0f03 	tst.w	r0, #3
2000428c:	d00a      	beq.n	200042a4 <strcmp_unaligned+0x1c>
2000428e:	f810 2b01 	ldrb.w	r2, [r0], #1
20004292:	f811 3b01 	ldrb.w	r3, [r1], #1
20004296:	2a01      	cmp	r2, #1
20004298:	bf28      	it	cs
2000429a:	429a      	cmpcs	r2, r3
2000429c:	d0f4      	beq.n	20004288 <strcmp_unaligned>
2000429e:	eba2 0003 	sub.w	r0, r2, r3
200042a2:	4770      	bx	lr
200042a4:	f84d 5d04 	str.w	r5, [sp, #-4]!
200042a8:	f84d 4d04 	str.w	r4, [sp, #-4]!
200042ac:	f04f 0201 	mov.w	r2, #1
200042b0:	ea42 2202 	orr.w	r2, r2, r2, lsl #8
200042b4:	ea42 4202 	orr.w	r2, r2, r2, lsl #16
200042b8:	f001 0c03 	and.w	ip, r1, #3
200042bc:	f021 0103 	bic.w	r1, r1, #3
200042c0:	f850 4b04 	ldr.w	r4, [r0], #4
200042c4:	f851 5b04 	ldr.w	r5, [r1], #4
200042c8:	f1bc 0f02 	cmp.w	ip, #2
200042cc:	d026      	beq.n	2000431c <strcmp_unaligned+0x94>
200042ce:	d84b      	bhi.n	20004368 <strcmp_unaligned+0xe0>
200042d0:	f024 4c7f 	bic.w	ip, r4, #4278190080	; 0xff000000
200042d4:	ebbc 2f15 	cmp.w	ip, r5, lsr #8
200042d8:	eba4 0302 	sub.w	r3, r4, r2
200042dc:	ea23 0304 	bic.w	r3, r3, r4
200042e0:	d10d      	bne.n	200042fe <strcmp_unaligned+0x76>
200042e2:	ea13 13c2 	ands.w	r3, r3, r2, lsl #7
200042e6:	bf08      	it	eq
200042e8:	f851 5b04 	ldreq.w	r5, [r1], #4
200042ec:	d10a      	bne.n	20004304 <strcmp_unaligned+0x7c>
200042ee:	ea8c 0c04 	eor.w	ip, ip, r4
200042f2:	ebbc 6f05 	cmp.w	ip, r5, lsl #24
200042f6:	d10c      	bne.n	20004312 <strcmp_unaligned+0x8a>
200042f8:	f850 4b04 	ldr.w	r4, [r0], #4
200042fc:	e7e8      	b.n	200042d0 <strcmp_unaligned+0x48>
200042fe:	ea4f 2515 	mov.w	r5, r5, lsr #8
20004302:	e05c      	b.n	200043be <strcmp_unaligned+0x136>
20004304:	f033 437f 	bics.w	r3, r3, #4278190080	; 0xff000000
20004308:	d152      	bne.n	200043b0 <strcmp_unaligned+0x128>
2000430a:	780d      	ldrb	r5, [r1, #0]
2000430c:	ea4f 6c14 	mov.w	ip, r4, lsr #24
20004310:	e055      	b.n	200043be <strcmp_unaligned+0x136>
20004312:	ea4f 6c14 	mov.w	ip, r4, lsr #24
20004316:	f005 05ff 	and.w	r5, r5, #255	; 0xff
2000431a:	e050      	b.n	200043be <strcmp_unaligned+0x136>
2000431c:	ea4f 4c04 	mov.w	ip, r4, lsl #16
20004320:	eba4 0302 	sub.w	r3, r4, r2
20004324:	ea4f 4c1c 	mov.w	ip, ip, lsr #16
20004328:	ea23 0304 	bic.w	r3, r3, r4
2000432c:	ebbc 4f15 	cmp.w	ip, r5, lsr #16
20004330:	d117      	bne.n	20004362 <strcmp_unaligned+0xda>
20004332:	ea13 13c2 	ands.w	r3, r3, r2, lsl #7
20004336:	bf08      	it	eq
20004338:	f851 5b04 	ldreq.w	r5, [r1], #4
2000433c:	d107      	bne.n	2000434e <strcmp_unaligned+0xc6>
2000433e:	ea8c 0c04 	eor.w	ip, ip, r4
20004342:	ebbc 4f05 	cmp.w	ip, r5, lsl #16
20004346:	d108      	bne.n	2000435a <strcmp_unaligned+0xd2>
20004348:	f850 4b04 	ldr.w	r4, [r0], #4
2000434c:	e7e6      	b.n	2000431c <strcmp_unaligned+0x94>
2000434e:	041b      	lsls	r3, r3, #16
20004350:	d12e      	bne.n	200043b0 <strcmp_unaligned+0x128>
20004352:	880d      	ldrh	r5, [r1, #0]
20004354:	ea4f 4c14 	mov.w	ip, r4, lsr #16
20004358:	e031      	b.n	200043be <strcmp_unaligned+0x136>
2000435a:	ea4f 4505 	mov.w	r5, r5, lsl #16
2000435e:	ea4f 4c14 	mov.w	ip, r4, lsr #16
20004362:	ea4f 4515 	mov.w	r5, r5, lsr #16
20004366:	e02a      	b.n	200043be <strcmp_unaligned+0x136>
20004368:	f004 0cff 	and.w	ip, r4, #255	; 0xff
2000436c:	ebbc 6f15 	cmp.w	ip, r5, lsr #24
20004370:	eba4 0302 	sub.w	r3, r4, r2
20004374:	ea23 0304 	bic.w	r3, r3, r4
20004378:	d10d      	bne.n	20004396 <strcmp_unaligned+0x10e>
2000437a:	ea13 13c2 	ands.w	r3, r3, r2, lsl #7
2000437e:	bf08      	it	eq
20004380:	f851 5b04 	ldreq.w	r5, [r1], #4
20004384:	d10a      	bne.n	2000439c <strcmp_unaligned+0x114>
20004386:	ea8c 0c04 	eor.w	ip, ip, r4
2000438a:	ebbc 2f05 	cmp.w	ip, r5, lsl #8
2000438e:	d10a      	bne.n	200043a6 <strcmp_unaligned+0x11e>
20004390:	f850 4b04 	ldr.w	r4, [r0], #4
20004394:	e7e8      	b.n	20004368 <strcmp_unaligned+0xe0>
20004396:	ea4f 6515 	mov.w	r5, r5, lsr #24
2000439a:	e010      	b.n	200043be <strcmp_unaligned+0x136>
2000439c:	f014 0fff 	tst.w	r4, #255	; 0xff
200043a0:	d006      	beq.n	200043b0 <strcmp_unaligned+0x128>
200043a2:	f851 5b04 	ldr.w	r5, [r1], #4
200043a6:	ea4f 2c14 	mov.w	ip, r4, lsr #8
200043aa:	f025 457f 	bic.w	r5, r5, #4278190080	; 0xff000000
200043ae:	e006      	b.n	200043be <strcmp_unaligned+0x136>
200043b0:	f04f 0000 	mov.w	r0, #0
200043b4:	f85d 4b04 	ldr.w	r4, [sp], #4
200043b8:	f85d 5b04 	ldr.w	r5, [sp], #4
200043bc:	4770      	bx	lr
200043be:	f00c 02ff 	and.w	r2, ip, #255	; 0xff
200043c2:	f005 00ff 	and.w	r0, r5, #255	; 0xff
200043c6:	2801      	cmp	r0, #1
200043c8:	bf28      	it	cs
200043ca:	4290      	cmpcs	r0, r2
200043cc:	bf04      	itt	eq
200043ce:	ea4f 2c1c 	moveq.w	ip, ip, lsr #8
200043d2:	0a2d      	lsreq	r5, r5, #8
200043d4:	d0f3      	beq.n	200043be <strcmp_unaligned+0x136>
200043d6:	eba2 0000 	sub.w	r0, r2, r0
200043da:	f85d 4b04 	ldr.w	r4, [sp], #4
200043de:	f85d 5b04 	ldr.w	r5, [sp], #4
200043e2:	4770      	bx	lr
200043e4:	0000      	lsls	r0, r0, #0
	...

200043e8 <_strtod_r>:
200043e8:	e92d 4ff0 	stmdb	sp!, {r4, r5, r6, r7, r8, r9, sl, fp, lr}
200043ec:	b0a3      	sub	sp, #140	; 0x8c
200043ee:	4604      	mov	r4, r0
200043f0:	2600      	movs	r6, #0
200043f2:	920a      	str	r2, [sp, #40]	; 0x28
200043f4:	460a      	mov	r2, r1
200043f6:	2700      	movs	r7, #0
200043f8:	911f      	str	r1, [sp, #124]	; 0x7c
200043fa:	e9cd 6718 	strd	r6, r7, [sp, #96]	; 0x60
200043fe:	7810      	ldrb	r0, [r2, #0]
20004400:	282d      	cmp	r0, #45	; 0x2d
20004402:	f200 8123 	bhi.w	2000464c <_strtod_r+0x264>
20004406:	e8df f010 	tbh	[pc, r0, lsl #1]
2000440a:	00b2      	.short	0x00b2
2000440c:	01210121 	.word	0x01210121
20004410:	01210121 	.word	0x01210121
20004414:	01210121 	.word	0x01210121
20004418:	01210121 	.word	0x01210121
2000441c:	011e011e 	.word	0x011e011e
20004420:	011e011e 	.word	0x011e011e
20004424:	0121011e 	.word	0x0121011e
20004428:	01210121 	.word	0x01210121
2000442c:	01210121 	.word	0x01210121
20004430:	01210121 	.word	0x01210121
20004434:	01210121 	.word	0x01210121
20004438:	01210121 	.word	0x01210121
2000443c:	01210121 	.word	0x01210121
20004440:	01210121 	.word	0x01210121
20004444:	01210121 	.word	0x01210121
20004448:	011e0121 	.word	0x011e0121
2000444c:	01210121 	.word	0x01210121
20004450:	01210121 	.word	0x01210121
20004454:	01210121 	.word	0x01210121
20004458:	01210121 	.word	0x01210121
2000445c:	01210121 	.word	0x01210121
20004460:	0121011b 	.word	0x0121011b
20004464:	00c3      	.short	0x00c3
20004466:	2700      	movs	r7, #0
20004468:	463e      	mov	r6, r7
2000446a:	463d      	mov	r5, r7
2000446c:	f04f 0c00 	mov.w	ip, #0
20004470:	9206      	str	r2, [sp, #24]
20004472:	46e3      	mov	fp, ip
20004474:	9510      	str	r5, [sp, #64]	; 0x40
20004476:	f8cd c010 	str.w	ip, [sp, #16]
2000447a:	2865      	cmp	r0, #101	; 0x65
2000447c:	bf14      	ite	ne
2000447e:	2200      	movne	r2, #0
20004480:	2201      	moveq	r2, #1
20004482:	2845      	cmp	r0, #69	; 0x45
20004484:	bf08      	it	eq
20004486:	f042 0201 	orreq.w	r2, r2, #1
2000448a:	2a00      	cmp	r2, #0
2000448c:	f000 80f9 	beq.w	20004682 <_strtod_r+0x29a>
20004490:	ea45 020c 	orr.w	r2, r5, ip
20004494:	ea52 0208 	orrs.w	r2, r2, r8
20004498:	d069      	beq.n	2000456e <_strtod_r+0x186>
2000449a:	991f      	ldr	r1, [sp, #124]	; 0x7c
2000449c:	f101 0a01 	add.w	sl, r1, #1
200044a0:	f8cd a07c 	str.w	sl, [sp, #124]	; 0x7c
200044a4:	7848      	ldrb	r0, [r1, #1]
200044a6:	282b      	cmp	r0, #43	; 0x2b
200044a8:	f000 8521 	beq.w	20004eee <_strtod_r+0xb06>
200044ac:	282d      	cmp	r0, #45	; 0x2d
200044ae:	f000 83b8 	beq.w	20004c22 <_strtod_r+0x83a>
200044b2:	2200      	movs	r2, #0
200044b4:	9208      	str	r2, [sp, #32]
200044b6:	f1a0 0230 	sub.w	r2, r0, #48	; 0x30
200044ba:	2a09      	cmp	r2, #9
200044bc:	bf84      	itt	hi
200044be:	911f      	strhi	r1, [sp, #124]	; 0x7c
200044c0:	f04f 0a00 	movhi.w	sl, #0
200044c4:	d848      	bhi.n	20004558 <_strtod_r+0x170>
200044c6:	2830      	cmp	r0, #48	; 0x30
200044c8:	d107      	bne.n	200044da <_strtod_r+0xf2>
200044ca:	9a1f      	ldr	r2, [sp, #124]	; 0x7c
200044cc:	9b10      	ldr	r3, [sp, #64]	; 0x40
200044ce:	3201      	adds	r2, #1
200044d0:	921f      	str	r2, [sp, #124]	; 0x7c
200044d2:	7810      	ldrb	r0, [r2, #0]
200044d4:	2830      	cmp	r0, #48	; 0x30
200044d6:	d0fa      	beq.n	200044ce <_strtod_r+0xe6>
200044d8:	9310      	str	r3, [sp, #64]	; 0x40
200044da:	f1a0 0231 	sub.w	r2, r0, #49	; 0x31
200044de:	2a08      	cmp	r2, #8
200044e0:	f200 80cf 	bhi.w	20004682 <_strtod_r+0x29a>
200044e4:	9a1f      	ldr	r2, [sp, #124]	; 0x7c
200044e6:	f1a0 0a30 	sub.w	sl, r0, #48	; 0x30
200044ea:	1c53      	adds	r3, r2, #1
200044ec:	930b      	str	r3, [sp, #44]	; 0x2c
200044ee:	9209      	str	r2, [sp, #36]	; 0x24
200044f0:	931f      	str	r3, [sp, #124]	; 0x7c
200044f2:	7850      	ldrb	r0, [r2, #1]
200044f4:	282f      	cmp	r0, #47	; 0x2f
200044f6:	dd1a      	ble.n	2000452e <_strtod_r+0x146>
200044f8:	2839      	cmp	r0, #57	; 0x39
200044fa:	dc18      	bgt.n	2000452e <_strtod_r+0x146>
200044fc:	1c93      	adds	r3, r2, #2
200044fe:	9a10      	ldr	r2, [sp, #64]	; 0x40
20004500:	46a9      	mov	r9, r5
20004502:	920b      	str	r2, [sp, #44]	; 0x2c
20004504:	461a      	mov	r2, r3
20004506:	e002      	b.n	2000450e <_strtod_r+0x126>
20004508:	2839      	cmp	r0, #57	; 0x39
2000450a:	f300 8625 	bgt.w	20005158 <_strtod_r+0xd70>
2000450e:	921f      	str	r2, [sp, #124]	; 0x7c
20004510:	f1a0 0330 	sub.w	r3, r0, #48	; 0x30
20004514:	7810      	ldrb	r0, [r2, #0]
20004516:	eb0a 0a8a 	add.w	sl, sl, sl, lsl #2
2000451a:	4615      	mov	r5, r2
2000451c:	3201      	adds	r2, #1
2000451e:	282f      	cmp	r0, #47	; 0x2f
20004520:	eb03 0a4a 	add.w	sl, r3, sl, lsl #1
20004524:	dcf0      	bgt.n	20004508 <_strtod_r+0x120>
20004526:	9a0b      	ldr	r2, [sp, #44]	; 0x2c
20004528:	950b      	str	r5, [sp, #44]	; 0x2c
2000452a:	464d      	mov	r5, r9
2000452c:	9210      	str	r2, [sp, #64]	; 0x40
2000452e:	9a09      	ldr	r2, [sp, #36]	; 0x24
20004530:	f644 691f 	movw	r9, #19999	; 0x4e1f
20004534:	9b0b      	ldr	r3, [sp, #44]	; 0x2c
20004536:	1a9b      	subs	r3, r3, r2
20004538:	45ca      	cmp	sl, r9
2000453a:	bfd4      	ite	le
2000453c:	2200      	movle	r2, #0
2000453e:	2201      	movgt	r2, #1
20004540:	2b08      	cmp	r3, #8
20004542:	bfc8      	it	gt
20004544:	f042 0201 	orrgt.w	r2, r2, #1
20004548:	9309      	str	r3, [sp, #36]	; 0x24
2000454a:	9b08      	ldr	r3, [sp, #32]
2000454c:	2a00      	cmp	r2, #0
2000454e:	bf18      	it	ne
20004550:	46ca      	movne	sl, r9
20004552:	b10b      	cbz	r3, 20004558 <_strtod_r+0x170>
20004554:	f1ca 0a00 	rsb	sl, sl, #0
20004558:	2d00      	cmp	r5, #0
2000455a:	f040 8097 	bne.w	2000468c <_strtod_r+0x2a4>
2000455e:	ea5c 0c08 	orrs.w	ip, ip, r8
20004562:	f040 8119 	bne.w	20004798 <_strtod_r+0x3b0>
20004566:	9f04      	ldr	r7, [sp, #16]
20004568:	2f00      	cmp	r7, #0
2000456a:	f000 829f 	beq.w	20004aac <_strtod_r+0x6c4>
2000456e:	2300      	movs	r3, #0
20004570:	911f      	str	r1, [sp, #124]	; 0x7c
20004572:	461a      	mov	r2, r3
20004574:	930f      	str	r3, [sp, #60]	; 0x3c
20004576:	9f0a      	ldr	r7, [sp, #40]	; 0x28
20004578:	b10f      	cbz	r7, 2000457e <_strtod_r+0x196>
2000457a:	991f      	ldr	r1, [sp, #124]	; 0x7c
2000457c:	6039      	str	r1, [r7, #0]
2000457e:	980f      	ldr	r0, [sp, #60]	; 0x3c
20004580:	b108      	cbz	r0, 20004586 <_strtod_r+0x19e>
20004582:	f102 4200 	add.w	r2, r2, #2147483648	; 0x80000000
20004586:	4618      	mov	r0, r3
20004588:	4611      	mov	r1, r2
2000458a:	b023      	add	sp, #140	; 0x8c
2000458c:	e8bd 8ff0 	ldmia.w	sp!, {r4, r5, r6, r7, r8, r9, sl, fp, pc}
20004590:	2001      	movs	r0, #1
20004592:	900f      	str	r0, [sp, #60]	; 0x3c
20004594:	3201      	adds	r2, #1
20004596:	921f      	str	r2, [sp, #124]	; 0x7c
20004598:	7810      	ldrb	r0, [r2, #0]
2000459a:	2800      	cmp	r0, #0
2000459c:	d0e7      	beq.n	2000456e <_strtod_r+0x186>
2000459e:	2830      	cmp	r0, #48	; 0x30
200045a0:	bf18      	it	ne
200045a2:	f04f 0800 	movne.w	r8, #0
200045a6:	d058      	beq.n	2000465a <_strtod_r+0x272>
200045a8:	282f      	cmp	r0, #47	; 0x2f
200045aa:	f340 855f 	ble.w	2000506c <_strtod_r+0xc84>
200045ae:	2839      	cmp	r0, #57	; 0x39
200045b0:	f73f af59 	bgt.w	20004466 <_strtod_r+0x7e>
200045b4:	2700      	movs	r7, #0
200045b6:	463e      	mov	r6, r7
200045b8:	463d      	mov	r5, r7
200045ba:	e002      	b.n	200045c2 <_strtod_r+0x1da>
200045bc:	2839      	cmp	r0, #57	; 0x39
200045be:	f73f af55 	bgt.w	2000446c <_strtod_r+0x84>
200045c2:	eb06 0386 	add.w	r3, r6, r6, lsl #2
200045c6:	2d08      	cmp	r5, #8
200045c8:	eb00 0343 	add.w	r3, r0, r3, lsl #1
200045cc:	bfd8      	it	le
200045ce:	f1a3 0630 	suble.w	r6, r3, #48	; 0x30
200045d2:	dd07      	ble.n	200045e4 <_strtod_r+0x1fc>
200045d4:	eb07 0387 	add.w	r3, r7, r7, lsl #2
200045d8:	2d0f      	cmp	r5, #15
200045da:	eb00 0043 	add.w	r0, r0, r3, lsl #1
200045de:	bfd8      	it	le
200045e0:	f1a0 0730 	suble.w	r7, r0, #48	; 0x30
200045e4:	3501      	adds	r5, #1
200045e6:	18ab      	adds	r3, r5, r2
200045e8:	931f      	str	r3, [sp, #124]	; 0x7c
200045ea:	5d50      	ldrb	r0, [r2, r5]
200045ec:	282f      	cmp	r0, #47	; 0x2f
200045ee:	dce5      	bgt.n	200045bc <_strtod_r+0x1d4>
200045f0:	469c      	mov	ip, r3
200045f2:	9510      	str	r5, [sp, #64]	; 0x40
200045f4:	282e      	cmp	r0, #46	; 0x2e
200045f6:	f040 80d2 	bne.w	2000479e <_strtod_r+0x3b6>
200045fa:	9b10      	ldr	r3, [sp, #64]	; 0x40
200045fc:	f10c 0001 	add.w	r0, ip, #1
20004600:	901f      	str	r0, [sp, #124]	; 0x7c
20004602:	f89c 0001 	ldrb.w	r0, [ip, #1]
20004606:	2b00      	cmp	r3, #0
20004608:	f000 822b 	beq.w	20004a62 <_strtod_r+0x67a>
2000460c:	f04f 0c00 	mov.w	ip, #0
20004610:	461d      	mov	r5, r3
20004612:	46e3      	mov	fp, ip
20004614:	9206      	str	r2, [sp, #24]
20004616:	f1a0 0a30 	sub.w	sl, r0, #48	; 0x30
2000461a:	f1ba 0f09 	cmp.w	sl, #9
2000461e:	f200 8242 	bhi.w	20004aa6 <_strtod_r+0x6be>
20004622:	981f      	ldr	r0, [sp, #124]	; 0x7c
20004624:	f10c 0c01 	add.w	ip, ip, #1
20004628:	9504      	str	r5, [sp, #16]
2000462a:	9008      	str	r0, [sp, #32]
2000462c:	f1ba 0f00 	cmp.w	sl, #0
20004630:	f040 8522 	bne.w	20005078 <_strtod_r+0xc90>
20004634:	9d04      	ldr	r5, [sp, #16]
20004636:	9808      	ldr	r0, [sp, #32]
20004638:	1c42      	adds	r2, r0, #1
2000463a:	921f      	str	r2, [sp, #124]	; 0x7c
2000463c:	7840      	ldrb	r0, [r0, #1]
2000463e:	e7ea      	b.n	20004616 <_strtod_r+0x22e>
20004640:	2700      	movs	r7, #0
20004642:	970f      	str	r7, [sp, #60]	; 0x3c
20004644:	e7a6      	b.n	20004594 <_strtod_r+0x1ac>
20004646:	3201      	adds	r2, #1
20004648:	921f      	str	r2, [sp, #124]	; 0x7c
2000464a:	e6d8      	b.n	200043fe <_strtod_r+0x16>
2000464c:	2300      	movs	r3, #0
2000464e:	2830      	cmp	r0, #48	; 0x30
20004650:	930f      	str	r3, [sp, #60]	; 0x3c
20004652:	bf18      	it	ne
20004654:	f04f 0800 	movne.w	r8, #0
20004658:	d1a6      	bne.n	200045a8 <_strtod_r+0x1c0>
2000465a:	7853      	ldrb	r3, [r2, #1]
2000465c:	1c55      	adds	r5, r2, #1
2000465e:	2b58      	cmp	r3, #88	; 0x58
20004660:	f000 83c3 	beq.w	20004dea <_strtod_r+0xa02>
20004664:	2b78      	cmp	r3, #120	; 0x78
20004666:	f000 83c0 	beq.w	20004dea <_strtod_r+0xa02>
2000466a:	462a      	mov	r2, r5
2000466c:	951f      	str	r5, [sp, #124]	; 0x7c
2000466e:	3501      	adds	r5, #1
20004670:	7810      	ldrb	r0, [r2, #0]
20004672:	2830      	cmp	r0, #48	; 0x30
20004674:	d0f9      	beq.n	2000466a <_strtod_r+0x282>
20004676:	2800      	cmp	r0, #0
20004678:	f000 808e 	beq.w	20004798 <_strtod_r+0x3b0>
2000467c:	f04f 0801 	mov.w	r8, #1
20004680:	e792      	b.n	200045a8 <_strtod_r+0x1c0>
20004682:	f04f 0a00 	mov.w	sl, #0
20004686:	2d00      	cmp	r5, #0
20004688:	f43f af69 	beq.w	2000455e <_strtod_r+0x176>
2000468c:	4630      	mov	r0, r6
2000468e:	ebcb 0a0a 	rsb	sl, fp, sl
20004692:	f8cd a020 	str.w	sl, [sp, #32]
20004696:	f005 f8ff 	bl	20009898 <__aeabi_ui2d>
2000469a:	f8dd 9040 	ldr.w	r9, [sp, #64]	; 0x40
2000469e:	2d10      	cmp	r5, #16
200046a0:	bfb4      	ite	lt
200046a2:	46a8      	movlt	r8, r5
200046a4:	f04f 0810 	movge.w	r8, #16
200046a8:	f1b9 0f00 	cmp.w	r9, #0
200046ac:	bf08      	it	eq
200046ae:	46a9      	moveq	r9, r5
200046b0:	f1b8 0f09 	cmp.w	r8, #9
200046b4:	e9cd 0118 	strd	r0, r1, [sp, #96]	; 0x60
200046b8:	dd16      	ble.n	200046e8 <_strtod_r+0x300>
200046ba:	f64a 2390 	movw	r3, #43664	; 0xaa90
200046be:	f2c2 0300 	movt	r3, #8192	; 0x2000
200046c2:	eb03 03c8 	add.w	r3, r3, r8, lsl #3
200046c6:	e953 2312 	ldrd	r2, r3, [r3, #-72]	; 0x48
200046ca:	f005 f95b 	bl	20009984 <__aeabi_dmul>
200046ce:	4682      	mov	sl, r0
200046d0:	4638      	mov	r0, r7
200046d2:	468b      	mov	fp, r1
200046d4:	f005 f8e0 	bl	20009898 <__aeabi_ui2d>
200046d8:	4602      	mov	r2, r0
200046da:	460b      	mov	r3, r1
200046dc:	4650      	mov	r0, sl
200046de:	4659      	mov	r1, fp
200046e0:	f004 ff9e 	bl	20009620 <__adddf3>
200046e4:	e9cd 0118 	strd	r0, r1, [sp, #96]	; 0x60
200046e8:	2d0f      	cmp	r5, #15
200046ea:	dc60      	bgt.n	200047ae <_strtod_r+0x3c6>
200046ec:	9f08      	ldr	r7, [sp, #32]
200046ee:	2f00      	cmp	r7, #0
200046f0:	d04f      	beq.n	20004792 <_strtod_r+0x3aa>
200046f2:	f340 8537 	ble.w	20005164 <_strtod_r+0xd7c>
200046f6:	9808      	ldr	r0, [sp, #32]
200046f8:	2816      	cmp	r0, #22
200046fa:	f300 84fa 	bgt.w	200050f2 <_strtod_r+0xd0a>
200046fe:	9a08      	ldr	r2, [sp, #32]
20004700:	f64a 2390 	movw	r3, #43664	; 0xaa90
20004704:	f2c2 0300 	movt	r3, #8192	; 0x2000
20004708:	e9dd 0118 	ldrd	r0, r1, [sp, #96]	; 0x60
2000470c:	eb03 03c2 	add.w	r3, r3, r2, lsl #3
20004710:	e9d3 2300 	ldrd	r2, r3, [r3]
20004714:	f005 f936 	bl	20009984 <__aeabi_dmul>
20004718:	4603      	mov	r3, r0
2000471a:	460a      	mov	r2, r1
2000471c:	e72b      	b.n	20004576 <_strtod_r+0x18e>
2000471e:	4649      	mov	r1, r9
20004720:	9806      	ldr	r0, [sp, #24]
20004722:	f005 fbc9 	bl	20009eb8 <__aeabi_d2iz>
20004726:	f005 f8c7 	bl	200098b8 <__aeabi_i2d>
2000472a:	4602      	mov	r2, r0
2000472c:	460b      	mov	r3, r1
2000472e:	9806      	ldr	r0, [sp, #24]
20004730:	4649      	mov	r1, r9
20004732:	f004 ff73 	bl	2000961c <__aeabi_dsub>
20004736:	9a09      	ldr	r2, [sp, #36]	; 0x24
20004738:	e9cd 0104 	strd	r0, r1, [sp, #16]
2000473c:	2a00      	cmp	r2, #0
2000473e:	f040 833c 	bne.w	20004dba <_strtod_r+0x9d2>
20004742:	9b18      	ldr	r3, [sp, #96]	; 0x60
20004744:	2b00      	cmp	r3, #0
20004746:	f040 8338 	bne.w	20004dba <_strtod_r+0x9d2>
2000474a:	f02b 437f 	bic.w	r3, fp, #4278190080	; 0xff000000
2000474e:	f423 0370 	bic.w	r3, r3, #15728640	; 0xf00000
20004752:	2b00      	cmp	r3, #0
20004754:	f040 8331 	bne.w	20004dba <_strtod_r+0x9d2>
20004758:	f20f 735c 	addw	r3, pc, #1884	; 0x75c
2000475c:	e9d3 2300 	ldrd	r2, r3, [r3]
20004760:	f005 fb82 	bl	20009e68 <__aeabi_dcmplt>
20004764:	2800      	cmp	r0, #0
20004766:	f000 8167 	beq.w	20004a38 <_strtod_r+0x650>
2000476a:	4620      	mov	r0, r4
2000476c:	991e      	ldr	r1, [sp, #120]	; 0x78
2000476e:	f004 fa9b 	bl	20008ca8 <_Bfree>
20004772:	4620      	mov	r0, r4
20004774:	4639      	mov	r1, r7
20004776:	f004 fa97 	bl	20008ca8 <_Bfree>
2000477a:	4620      	mov	r0, r4
2000477c:	4631      	mov	r1, r6
2000477e:	f004 fa93 	bl	20008ca8 <_Bfree>
20004782:	4620      	mov	r0, r4
20004784:	990b      	ldr	r1, [sp, #44]	; 0x2c
20004786:	f004 fa8f 	bl	20008ca8 <_Bfree>
2000478a:	4620      	mov	r0, r4
2000478c:	4641      	mov	r1, r8
2000478e:	f004 fa8b 	bl	20008ca8 <_Bfree>
20004792:	9b18      	ldr	r3, [sp, #96]	; 0x60
20004794:	9a19      	ldr	r2, [sp, #100]	; 0x64
20004796:	e6ee      	b.n	20004576 <_strtod_r+0x18e>
20004798:	2300      	movs	r3, #0
2000479a:	461a      	mov	r2, r3
2000479c:	e6eb      	b.n	20004576 <_strtod_r+0x18e>
2000479e:	f04f 0c00 	mov.w	ip, #0
200047a2:	9206      	str	r2, [sp, #24]
200047a4:	9d10      	ldr	r5, [sp, #64]	; 0x40
200047a6:	46e3      	mov	fp, ip
200047a8:	f8cd c010 	str.w	ip, [sp, #16]
200047ac:	e665      	b.n	2000447a <_strtod_r+0x92>
200047ae:	9f08      	ldr	r7, [sp, #32]
200047b0:	ebc8 0a05 	rsb	sl, r8, r5
200047b4:	44ba      	add	sl, r7
200047b6:	f1ba 0f00 	cmp.w	sl, #0
200047ba:	f340 844f 	ble.w	2000505c <_strtod_r+0xc74>
200047be:	f01a 020f 	ands.w	r2, sl, #15
200047c2:	d00d      	beq.n	200047e0 <_strtod_r+0x3f8>
200047c4:	f64a 2390 	movw	r3, #43664	; 0xaa90
200047c8:	e9dd 0118 	ldrd	r0, r1, [sp, #96]	; 0x60
200047cc:	f2c2 0300 	movt	r3, #8192	; 0x2000
200047d0:	eb03 03c2 	add.w	r3, r3, r2, lsl #3
200047d4:	e9d3 2300 	ldrd	r2, r3, [r3]
200047d8:	f005 f8d4 	bl	20009984 <__aeabi_dmul>
200047dc:	e9cd 0118 	strd	r0, r1, [sp, #96]	; 0x60
200047e0:	f03a 0a0f 	bics.w	sl, sl, #15
200047e4:	f040 81b6 	bne.w	20004b54 <_strtod_r+0x76c>
200047e8:	e9dd 2318 	ldrd	r2, r3, [sp, #96]	; 0x60
200047ec:	e9cd 2304 	strd	r2, r3, [sp, #16]
200047f0:	462b      	mov	r3, r5
200047f2:	9906      	ldr	r1, [sp, #24]
200047f4:	464a      	mov	r2, r9
200047f6:	4620      	mov	r0, r4
200047f8:	9600      	str	r6, [sp, #0]
200047fa:	f004 fd27 	bl	2000924c <__s2b>
200047fe:	9f08      	ldr	r7, [sp, #32]
20004800:	427f      	negs	r7, r7
20004802:	9711      	str	r7, [sp, #68]	; 0x44
20004804:	f100 030c 	add.w	r3, r0, #12
20004808:	900b      	str	r0, [sp, #44]	; 0x2c
2000480a:	9310      	str	r3, [sp, #64]	; 0x40
2000480c:	980b      	ldr	r0, [sp, #44]	; 0x2c
2000480e:	6841      	ldr	r1, [r0, #4]
20004810:	4620      	mov	r0, r4
20004812:	f004 fa65 	bl	20008ce0 <_Balloc>
20004816:	990b      	ldr	r1, [sp, #44]	; 0x2c
20004818:	690a      	ldr	r2, [r1, #16]
2000481a:	9910      	ldr	r1, [sp, #64]	; 0x40
2000481c:	3202      	adds	r2, #2
2000481e:	0092      	lsls	r2, r2, #2
20004820:	4607      	mov	r7, r0
20004822:	300c      	adds	r0, #12
20004824:	f7ff f904 	bl	20003a30 <memcpy>
20004828:	e9dd 2304 	ldrd	r2, r3, [sp, #16]
2000482c:	4620      	mov	r0, r4
2000482e:	a921      	add	r1, sp, #132	; 0x84
20004830:	9100      	str	r1, [sp, #0]
20004832:	a920      	add	r1, sp, #128	; 0x80
20004834:	9101      	str	r1, [sp, #4]
20004836:	f004 fa89 	bl	20008d4c <__d2b>
2000483a:	2101      	movs	r1, #1
2000483c:	901e      	str	r0, [sp, #120]	; 0x78
2000483e:	4620      	mov	r0, r4
20004840:	f004 fc60 	bl	20009104 <__i2b>
20004844:	9a08      	ldr	r2, [sp, #32]
20004846:	2a00      	cmp	r2, #0
20004848:	4606      	mov	r6, r0
2000484a:	f2c0 822c 	blt.w	20004ca6 <_strtod_r+0x8be>
2000484e:	f8dd 9020 	ldr.w	r9, [sp, #32]
20004852:	2200      	movs	r2, #0
20004854:	4693      	mov	fp, r2
20004856:	464b      	mov	r3, r9
20004858:	9d21      	ldr	r5, [sp, #132]	; 0x84
2000485a:	f46f 707f 	mvn.w	r0, #1020	; 0x3fc
2000485e:	9920      	ldr	r1, [sp, #128]	; 0x80
20004860:	2d00      	cmp	r5, #0
20004862:	bfac      	ite	ge
20004864:	eb02 0b05 	addge.w	fp, r2, r5
20004868:	1b5b      	sublt	r3, r3, r5
2000486a:	ebca 0505 	rsb	r5, sl, r5
2000486e:	eb05 0c01 	add.w	ip, r5, r1
20004872:	4584      	cmp	ip, r0
20004874:	bfb6      	itet	lt
20004876:	f505 6186 	addlt.w	r1, r5, #1072	; 0x430
2000487a:	f1c1 0136 	rsbge	r1, r1, #54	; 0x36
2000487e:	3103      	addlt	r1, #3
20004880:	eb03 050a 	add.w	r5, r3, sl
20004884:	eb01 080b 	add.w	r8, r1, fp
20004888:	186d      	adds	r5, r5, r1
2000488a:	45a8      	cmp	r8, r5
2000488c:	bfb4      	ite	lt
2000488e:	4643      	movlt	r3, r8
20004890:	462b      	movge	r3, r5
20004892:	455b      	cmp	r3, fp
20004894:	bfa8      	it	ge
20004896:	465b      	movge	r3, fp
20004898:	2b00      	cmp	r3, #0
2000489a:	bfc2      	ittt	gt
2000489c:	ebc3 0b0b 	rsbgt	fp, r3, fp
200048a0:	ebc3 0808 	rsbgt	r8, r3, r8
200048a4:	1aed      	subgt	r5, r5, r3
200048a6:	b18a      	cbz	r2, 200048cc <_strtod_r+0x4e4>
200048a8:	4631      	mov	r1, r6
200048aa:	4620      	mov	r0, r4
200048ac:	f004 fc78 	bl	200091a0 <__pow5mult>
200048b0:	9a1e      	ldr	r2, [sp, #120]	; 0x78
200048b2:	4606      	mov	r6, r0
200048b4:	4620      	mov	r0, r4
200048b6:	4631      	mov	r1, r6
200048b8:	f004 fb8a 	bl	20008fd0 <__multiply>
200048bc:	991e      	ldr	r1, [sp, #120]	; 0x78
200048be:	4603      	mov	r3, r0
200048c0:	4620      	mov	r0, r4
200048c2:	9303      	str	r3, [sp, #12]
200048c4:	f004 f9f0 	bl	20008ca8 <_Bfree>
200048c8:	9b03      	ldr	r3, [sp, #12]
200048ca:	931e      	str	r3, [sp, #120]	; 0x78
200048cc:	f1b8 0f00 	cmp.w	r8, #0
200048d0:	dd05      	ble.n	200048de <_strtod_r+0x4f6>
200048d2:	4642      	mov	r2, r8
200048d4:	4620      	mov	r0, r4
200048d6:	991e      	ldr	r1, [sp, #120]	; 0x78
200048d8:	f004 fb1c 	bl	20008f14 <__lshift>
200048dc:	901e      	str	r0, [sp, #120]	; 0x78
200048de:	f1b9 0f00 	cmp.w	r9, #0
200048e2:	d005      	beq.n	200048f0 <_strtod_r+0x508>
200048e4:	4639      	mov	r1, r7
200048e6:	464a      	mov	r2, r9
200048e8:	4620      	mov	r0, r4
200048ea:	f004 fc59 	bl	200091a0 <__pow5mult>
200048ee:	4607      	mov	r7, r0
200048f0:	2d00      	cmp	r5, #0
200048f2:	dd05      	ble.n	20004900 <_strtod_r+0x518>
200048f4:	4639      	mov	r1, r7
200048f6:	462a      	mov	r2, r5
200048f8:	4620      	mov	r0, r4
200048fa:	f004 fb0b 	bl	20008f14 <__lshift>
200048fe:	4607      	mov	r7, r0
20004900:	f1bb 0f00 	cmp.w	fp, #0
20004904:	dd05      	ble.n	20004912 <_strtod_r+0x52a>
20004906:	4631      	mov	r1, r6
20004908:	465a      	mov	r2, fp
2000490a:	4620      	mov	r0, r4
2000490c:	f004 fb02 	bl	20008f14 <__lshift>
20004910:	4606      	mov	r6, r0
20004912:	991e      	ldr	r1, [sp, #120]	; 0x78
20004914:	463a      	mov	r2, r7
20004916:	4620      	mov	r0, r4
20004918:	f004 fa80 	bl	20008e1c <__mdiff>
2000491c:	2200      	movs	r2, #0
2000491e:	4631      	mov	r1, r6
20004920:	68c3      	ldr	r3, [r0, #12]
20004922:	4680      	mov	r8, r0
20004924:	60c2      	str	r2, [r0, #12]
20004926:	9309      	str	r3, [sp, #36]	; 0x24
20004928:	f004 f884 	bl	20008a34 <__mcmp>
2000492c:	2800      	cmp	r0, #0
2000492e:	f2c0 82e1 	blt.w	20004ef4 <_strtod_r+0xb0c>
20004932:	f000 832e 	beq.w	20004f92 <_strtod_r+0xbaa>
20004936:	4640      	mov	r0, r8
20004938:	4631      	mov	r1, r6
2000493a:	f004 f915 	bl	20008b68 <__ratio>
2000493e:	2200      	movs	r2, #0
20004940:	f04f 4380 	mov.w	r3, #1073741824	; 0x40000000
20004944:	e9cd 0106 	strd	r0, r1, [sp, #24]
20004948:	f005 fa98 	bl	20009e7c <__aeabi_dcmple>
2000494c:	2800      	cmp	r0, #0
2000494e:	f000 8194 	beq.w	20004c7a <_strtod_r+0x892>
20004952:	9a09      	ldr	r2, [sp, #36]	; 0x24
20004954:	2a00      	cmp	r2, #0
20004956:	f000 81ac 	beq.w	20004cb2 <_strtod_r+0x8ca>
2000495a:	f240 0900 	movw	r9, #0
2000495e:	f8dd c064 	ldr.w	ip, [sp, #100]	; 0x64
20004962:	f6c3 79f0 	movt	r9, #16368	; 0x3ff0
20004966:	f240 0300 	movw	r3, #0
2000496a:	2200      	movs	r2, #0
2000496c:	f6c3 73f0 	movt	r3, #16368	; 0x3ff0
20004970:	e9cd 231a 	strd	r2, r3, [sp, #104]	; 0x68
20004974:	2200      	movs	r2, #0
20004976:	9206      	str	r2, [sp, #24]
20004978:	f240 0500 	movw	r5, #0
2000497c:	f240 0300 	movw	r3, #0
20004980:	f6c7 75f0 	movt	r5, #32752	; 0x7ff0
20004984:	f6c7 73e0 	movt	r3, #32736	; 0x7fe0
20004988:	ea0c 0505 	and.w	r5, ip, r5
2000498c:	f240 0b00 	movw	fp, #0
20004990:	429d      	cmp	r5, r3
20004992:	f6c7 7bf0 	movt	fp, #32752	; 0x7ff0
20004996:	f000 81c5 	beq.w	20004d24 <_strtod_r+0x93c>
2000499a:	f1ba 0300 	subs.w	r3, sl, #0
2000499e:	bf18      	it	ne
200049a0:	2301      	movne	r3, #1
200049a2:	f1b5 6fd4 	cmp.w	r5, #111149056	; 0x6a00000
200049a6:	bf8c      	ite	hi
200049a8:	2300      	movhi	r3, #0
200049aa:	f003 0301 	andls.w	r3, r3, #1
200049ae:	b30b      	cbz	r3, 200049f4 <_strtod_r+0x60c>
200049b0:	9806      	ldr	r0, [sp, #24]
200049b2:	4649      	mov	r1, r9
200049b4:	f20f 5308 	addw	r3, pc, #1288	; 0x508
200049b8:	e9d3 2300 	ldrd	r2, r3, [r3]
200049bc:	f005 fa5e 	bl	20009e7c <__aeabi_dcmple>
200049c0:	b198      	cbz	r0, 200049ea <_strtod_r+0x602>
200049c2:	4649      	mov	r1, r9
200049c4:	9806      	ldr	r0, [sp, #24]
200049c6:	f005 fa9f 	bl	20009f08 <__aeabi_d2uiz>
200049ca:	2800      	cmp	r0, #0
200049cc:	bf08      	it	eq
200049ce:	2001      	moveq	r0, #1
200049d0:	f004 ff62 	bl	20009898 <__aeabi_ui2d>
200049d4:	9b09      	ldr	r3, [sp, #36]	; 0x24
200049d6:	9006      	str	r0, [sp, #24]
200049d8:	4689      	mov	r9, r1
200049da:	2b00      	cmp	r3, #0
200049dc:	f000 8202 	beq.w	20004de4 <_strtod_r+0x9fc>
200049e0:	460b      	mov	r3, r1
200049e2:	9806      	ldr	r0, [sp, #24]
200049e4:	4619      	mov	r1, r3
200049e6:	e9cd 011a 	strd	r0, r1, [sp, #104]	; 0x68
200049ea:	9b1b      	ldr	r3, [sp, #108]	; 0x6c
200049ec:	f103 63d6 	add.w	r3, r3, #112197632	; 0x6b00000
200049f0:	1b5b      	subs	r3, r3, r5
200049f2:	931b      	str	r3, [sp, #108]	; 0x6c
200049f4:	e9dd 011a 	ldrd	r0, r1, [sp, #104]	; 0x68
200049f8:	e9cd 010c 	strd	r0, r1, [sp, #48]	; 0x30
200049fc:	e9dd 0104 	ldrd	r0, r1, [sp, #16]
20004a00:	f004 f838 	bl	20008a74 <__ulp>
20004a04:	4602      	mov	r2, r0
20004a06:	460b      	mov	r3, r1
20004a08:	e9dd 010c 	ldrd	r0, r1, [sp, #48]	; 0x30
20004a0c:	f004 ffba 	bl	20009984 <__aeabi_dmul>
20004a10:	e9dd 2304 	ldrd	r2, r3, [sp, #16]
20004a14:	f004 fe04 	bl	20009620 <__adddf3>
20004a18:	e9cd 0118 	strd	r0, r1, [sp, #96]	; 0x60
20004a1c:	f8dd b064 	ldr.w	fp, [sp, #100]	; 0x64
20004a20:	f1ba 0f00 	cmp.w	sl, #0
20004a24:	d108      	bne.n	20004a38 <_strtod_r+0x650>
20004a26:	f240 0300 	movw	r3, #0
20004a2a:	f6c7 73f0 	movt	r3, #32752	; 0x7ff0
20004a2e:	ea0b 0303 	and.w	r3, fp, r3
20004a32:	429d      	cmp	r5, r3
20004a34:	f43f ae73 	beq.w	2000471e <_strtod_r+0x336>
20004a38:	4620      	mov	r0, r4
20004a3a:	991e      	ldr	r1, [sp, #120]	; 0x78
20004a3c:	f004 f934 	bl	20008ca8 <_Bfree>
20004a40:	4620      	mov	r0, r4
20004a42:	4639      	mov	r1, r7
20004a44:	f004 f930 	bl	20008ca8 <_Bfree>
20004a48:	4620      	mov	r0, r4
20004a4a:	4631      	mov	r1, r6
20004a4c:	f004 f92c 	bl	20008ca8 <_Bfree>
20004a50:	4620      	mov	r0, r4
20004a52:	4641      	mov	r1, r8
20004a54:	f004 f928 	bl	20008ca8 <_Bfree>
20004a58:	e9dd 0118 	ldrd	r0, r1, [sp, #96]	; 0x60
20004a5c:	e9cd 0104 	strd	r0, r1, [sp, #16]
20004a60:	e6d4      	b.n	2000480c <_strtod_r+0x424>
20004a62:	2830      	cmp	r0, #48	; 0x30
20004a64:	bf18      	it	ne
20004a66:	f8dd c040 	ldrne.w	ip, [sp, #64]	; 0x40
20004a6a:	d10c      	bne.n	20004a86 <_strtod_r+0x69e>
20004a6c:	f10c 0502 	add.w	r5, ip, #2
20004a70:	f8dd c040 	ldr.w	ip, [sp, #64]	; 0x40
20004a74:	4663      	mov	r3, ip
20004a76:	951f      	str	r5, [sp, #124]	; 0x7c
20004a78:	f10c 0c01 	add.w	ip, ip, #1
20004a7c:	f815 0b01 	ldrb.w	r0, [r5], #1
20004a80:	2830      	cmp	r0, #48	; 0x30
20004a82:	d0f8      	beq.n	20004a76 <_strtod_r+0x68e>
20004a84:	9310      	str	r3, [sp, #64]	; 0x40
20004a86:	f1a0 0531 	sub.w	r5, r0, #49	; 0x31
20004a8a:	2d08      	cmp	r5, #8
20004a8c:	f200 80c3 	bhi.w	20004c16 <_strtod_r+0x82e>
20004a90:	9a1f      	ldr	r2, [sp, #124]	; 0x7c
20004a92:	46e3      	mov	fp, ip
20004a94:	2300      	movs	r3, #0
20004a96:	f1a0 0a30 	sub.w	sl, r0, #48	; 0x30
20004a9a:	9304      	str	r3, [sp, #16]
20004a9c:	f04f 0c01 	mov.w	ip, #1
20004aa0:	9206      	str	r2, [sp, #24]
20004aa2:	9208      	str	r2, [sp, #32]
20004aa4:	e5c2      	b.n	2000462c <_strtod_r+0x244>
20004aa6:	2301      	movs	r3, #1
20004aa8:	9304      	str	r3, [sp, #16]
20004aaa:	e4e6      	b.n	2000447a <_strtod_r+0x92>
20004aac:	3849      	subs	r0, #73	; 0x49
20004aae:	2825      	cmp	r0, #37	; 0x25
20004ab0:	f63f ad5d 	bhi.w	2000456e <_strtod_r+0x186>
20004ab4:	a201      	add	r2, pc, #4	; (adr r2, 20004abc <_strtod_r+0x6d4>)
20004ab6:	f852 f020 	ldr.w	pc, [r2, r0, lsl #2]
20004aba:	bf00      	nop
20004abc:	20004c57 	.word	0x20004c57
20004ac0:	2000456f 	.word	0x2000456f
20004ac4:	2000456f 	.word	0x2000456f
20004ac8:	2000456f 	.word	0x2000456f
20004acc:	2000456f 	.word	0x2000456f
20004ad0:	20004c33 	.word	0x20004c33
20004ad4:	2000456f 	.word	0x2000456f
20004ad8:	2000456f 	.word	0x2000456f
20004adc:	2000456f 	.word	0x2000456f
20004ae0:	2000456f 	.word	0x2000456f
20004ae4:	2000456f 	.word	0x2000456f
20004ae8:	2000456f 	.word	0x2000456f
20004aec:	2000456f 	.word	0x2000456f
20004af0:	2000456f 	.word	0x2000456f
20004af4:	2000456f 	.word	0x2000456f
20004af8:	2000456f 	.word	0x2000456f
20004afc:	2000456f 	.word	0x2000456f
20004b00:	2000456f 	.word	0x2000456f
20004b04:	2000456f 	.word	0x2000456f
20004b08:	2000456f 	.word	0x2000456f
20004b0c:	2000456f 	.word	0x2000456f
20004b10:	2000456f 	.word	0x2000456f
20004b14:	2000456f 	.word	0x2000456f
20004b18:	2000456f 	.word	0x2000456f
20004b1c:	2000456f 	.word	0x2000456f
20004b20:	2000456f 	.word	0x2000456f
20004b24:	2000456f 	.word	0x2000456f
20004b28:	2000456f 	.word	0x2000456f
20004b2c:	2000456f 	.word	0x2000456f
20004b30:	2000456f 	.word	0x2000456f
20004b34:	2000456f 	.word	0x2000456f
20004b38:	2000456f 	.word	0x2000456f
20004b3c:	20004c57 	.word	0x20004c57
20004b40:	2000456f 	.word	0x2000456f
20004b44:	2000456f 	.word	0x2000456f
20004b48:	2000456f 	.word	0x2000456f
20004b4c:	2000456f 	.word	0x2000456f
20004b50:	20004c33 	.word	0x20004c33
20004b54:	f5ba 7f9a 	cmp.w	sl, #308	; 0x134
20004b58:	f300 8277 	bgt.w	2000504a <_strtod_r+0xc62>
20004b5c:	ea4f 172a 	mov.w	r7, sl, asr #4
20004b60:	f64a 3b68 	movw	fp, #43880	; 0xab68
20004b64:	2f01      	cmp	r7, #1
20004b66:	bfdc      	itt	le
20004b68:	f04f 0a00 	movle.w	sl, #0
20004b6c:	f2c2 0b00 	movtle	fp, #8192	; 0x2000
20004b70:	dd1f      	ble.n	20004bb2 <_strtod_r+0x7ca>
20004b72:	4621      	mov	r1, r4
20004b74:	f2c2 0b00 	movt	fp, #8192	; 0x2000
20004b78:	e9dd 2318 	ldrd	r2, r3, [sp, #96]	; 0x60
20004b7c:	46a8      	mov	r8, r5
20004b7e:	f04f 0a00 	mov.w	sl, #0
20004b82:	465c      	mov	r4, fp
20004b84:	460d      	mov	r5, r1
20004b86:	f017 0f01 	tst.w	r7, #1
20004b8a:	4610      	mov	r0, r2
20004b8c:	4619      	mov	r1, r3
20004b8e:	f10a 0a01 	add.w	sl, sl, #1
20004b92:	ea4f 0767 	mov.w	r7, r7, asr #1
20004b96:	d005      	beq.n	20004ba4 <_strtod_r+0x7bc>
20004b98:	e9d4 2300 	ldrd	r2, r3, [r4]
20004b9c:	f004 fef2 	bl	20009984 <__aeabi_dmul>
20004ba0:	4602      	mov	r2, r0
20004ba2:	460b      	mov	r3, r1
20004ba4:	3408      	adds	r4, #8
20004ba6:	2f01      	cmp	r7, #1
20004ba8:	dced      	bgt.n	20004b86 <_strtod_r+0x79e>
20004baa:	462c      	mov	r4, r5
20004bac:	4645      	mov	r5, r8
20004bae:	e9cd 2318 	strd	r2, r3, [sp, #96]	; 0x60
20004bb2:	9a19      	ldr	r2, [sp, #100]	; 0x64
20004bb4:	eb0b 03ca 	add.w	r3, fp, sl, lsl #3
20004bb8:	f1a2 7254 	sub.w	r2, r2, #55574528	; 0x3500000
20004bbc:	9219      	str	r2, [sp, #100]	; 0x64
20004bbe:	e9dd 0118 	ldrd	r0, r1, [sp, #96]	; 0x60
20004bc2:	e9d3 2300 	ldrd	r2, r3, [r3]
20004bc6:	f004 fedd 	bl	20009984 <__aeabi_dmul>
20004bca:	f240 0300 	movw	r3, #0
20004bce:	f6c7 73f0 	movt	r3, #32752	; 0x7ff0
20004bd2:	f240 0200 	movw	r2, #0
20004bd6:	f6c7 42a0 	movt	r2, #31904	; 0x7ca0
20004bda:	e9cd 0118 	strd	r0, r1, [sp, #96]	; 0x60
20004bde:	9919      	ldr	r1, [sp, #100]	; 0x64
20004be0:	ea01 0303 	and.w	r3, r1, r3
20004be4:	4293      	cmp	r3, r2
20004be6:	f200 8230 	bhi.w	2000504a <_strtod_r+0xc62>
20004bea:	f240 0200 	movw	r2, #0
20004bee:	f6c7 4290 	movt	r2, #31888	; 0x7c90
20004bf2:	4293      	cmp	r3, r2
20004bf4:	f240 82fd 	bls.w	200051f2 <_strtod_r+0xe0a>
20004bf8:	f64f 73ff 	movw	r3, #65535	; 0xffff
20004bfc:	f04f 32ff 	mov.w	r2, #4294967295
20004c00:	f6c7 73ef 	movt	r3, #32751	; 0x7fef
20004c04:	9218      	str	r2, [sp, #96]	; 0x60
20004c06:	9319      	str	r3, [sp, #100]	; 0x64
20004c08:	f04f 0a00 	mov.w	sl, #0
20004c0c:	e9dd 0118 	ldrd	r0, r1, [sp, #96]	; 0x60
20004c10:	e9cd 0104 	strd	r0, r1, [sp, #16]
20004c14:	e5ec      	b.n	200047f0 <_strtod_r+0x408>
20004c16:	2500      	movs	r5, #0
20004c18:	9206      	str	r2, [sp, #24]
20004c1a:	46ab      	mov	fp, r5
20004c1c:	2201      	movs	r2, #1
20004c1e:	9204      	str	r2, [sp, #16]
20004c20:	e42b      	b.n	2000447a <_strtod_r+0x92>
20004c22:	2301      	movs	r3, #1
20004c24:	9308      	str	r3, [sp, #32]
20004c26:	f10a 0201 	add.w	r2, sl, #1
20004c2a:	921f      	str	r2, [sp, #124]	; 0x7c
20004c2c:	f89a 0001 	ldrb.w	r0, [sl, #1]
20004c30:	e441      	b.n	200044b6 <_strtod_r+0xce>
20004c32:	9a1f      	ldr	r2, [sp, #124]	; 0x7c
20004c34:	489e      	ldr	r0, [pc, #632]	; (20004eb0 <_strtod_r+0xac8>)
20004c36:	f810 4c01 	ldrb.w	r4, [r0, #-1]
20004c3a:	3001      	adds	r0, #1
20004c3c:	2c00      	cmp	r4, #0
20004c3e:	f000 82e3 	beq.w	20005208 <_strtod_r+0xe20>
20004c42:	7853      	ldrb	r3, [r2, #1]
20004c44:	3201      	adds	r2, #1
20004c46:	2b40      	cmp	r3, #64	; 0x40
20004c48:	dd02      	ble.n	20004c50 <_strtod_r+0x868>
20004c4a:	2b5a      	cmp	r3, #90	; 0x5a
20004c4c:	bfd8      	it	le
20004c4e:	3320      	addle	r3, #32
20004c50:	42a3      	cmp	r3, r4
20004c52:	d0f0      	beq.n	20004c36 <_strtod_r+0x84e>
20004c54:	e48b      	b.n	2000456e <_strtod_r+0x186>
20004c56:	9a1f      	ldr	r2, [sp, #124]	; 0x7c
20004c58:	4896      	ldr	r0, [pc, #600]	; (20004eb4 <_strtod_r+0xacc>)
20004c5a:	f810 4c01 	ldrb.w	r4, [r0, #-1]
20004c5e:	3001      	adds	r0, #1
20004c60:	2c00      	cmp	r4, #0
20004c62:	f000 82e9 	beq.w	20005238 <_strtod_r+0xe50>
20004c66:	7853      	ldrb	r3, [r2, #1]
20004c68:	3201      	adds	r2, #1
20004c6a:	2b40      	cmp	r3, #64	; 0x40
20004c6c:	dd02      	ble.n	20004c74 <_strtod_r+0x88c>
20004c6e:	2b5a      	cmp	r3, #90	; 0x5a
20004c70:	bfd8      	it	le
20004c72:	3320      	addle	r3, #32
20004c74:	42a3      	cmp	r3, r4
20004c76:	d0f0      	beq.n	20004c5a <_strtod_r+0x872>
20004c78:	e479      	b.n	2000456e <_strtod_r+0x186>
20004c7a:	f240 0300 	movw	r3, #0
20004c7e:	e9dd 0106 	ldrd	r0, r1, [sp, #24]
20004c82:	2200      	movs	r2, #0
20004c84:	f6c3 73e0 	movt	r3, #16352	; 0x3fe0
20004c88:	f004 fe7c 	bl	20009984 <__aeabi_dmul>
20004c8c:	9a09      	ldr	r2, [sp, #36]	; 0x24
20004c8e:	9006      	str	r0, [sp, #24]
20004c90:	4689      	mov	r9, r1
20004c92:	b90a      	cbnz	r2, 20004c98 <_strtod_r+0x8b0>
20004c94:	f101 4100 	add.w	r1, r1, #2147483648	; 0x80000000
20004c98:	9a06      	ldr	r2, [sp, #24]
20004c9a:	460b      	mov	r3, r1
20004c9c:	f8dd c064 	ldr.w	ip, [sp, #100]	; 0x64
20004ca0:	e9cd 231a 	strd	r2, r3, [sp, #104]	; 0x68
20004ca4:	e668      	b.n	20004978 <_strtod_r+0x590>
20004ca6:	9a11      	ldr	r2, [sp, #68]	; 0x44
20004ca8:	f04f 0900 	mov.w	r9, #0
20004cac:	464b      	mov	r3, r9
20004cae:	4693      	mov	fp, r2
20004cb0:	e5d2      	b.n	20004858 <_strtod_r+0x470>
20004cb2:	9b18      	ldr	r3, [sp, #96]	; 0x60
20004cb4:	2b00      	cmp	r3, #0
20004cb6:	d174      	bne.n	20004da2 <_strtod_r+0x9ba>
20004cb8:	f8dd c064 	ldr.w	ip, [sp, #100]	; 0x64
20004cbc:	f02c 437f 	bic.w	r3, ip, #4278190080	; 0xff000000
20004cc0:	4662      	mov	r2, ip
20004cc2:	f423 0370 	bic.w	r3, r3, #15728640	; 0xf00000
20004cc6:	b9f3      	cbnz	r3, 20004d06 <_strtod_r+0x91e>
20004cc8:	f240 0300 	movw	r3, #0
20004ccc:	e9dd 0106 	ldrd	r0, r1, [sp, #24]
20004cd0:	2200      	movs	r2, #0
20004cd2:	f6c3 73f0 	movt	r3, #16368	; 0x3ff0
20004cd6:	f8cd c00c 	str.w	ip, [sp, #12]
20004cda:	f005 f8c5 	bl	20009e68 <__aeabi_dcmplt>
20004cde:	f8dd c00c 	ldr.w	ip, [sp, #12]
20004ce2:	2800      	cmp	r0, #0
20004ce4:	f000 80f0 	beq.w	20004ec8 <_strtod_r+0xae0>
20004ce8:	f240 0300 	movw	r3, #0
20004cec:	f240 0900 	movw	r9, #0
20004cf0:	f6cb 73e0 	movt	r3, #49120	; 0xbfe0
20004cf4:	f6c3 79e0 	movt	r9, #16352	; 0x3fe0
20004cf8:	2200      	movs	r2, #0
20004cfa:	9206      	str	r2, [sp, #24]
20004cfc:	4610      	mov	r0, r2
20004cfe:	4619      	mov	r1, r3
20004d00:	e9cd 011a 	strd	r0, r1, [sp, #104]	; 0x68
20004d04:	e638      	b.n	20004978 <_strtod_r+0x590>
20004d06:	f240 0900 	movw	r9, #0
20004d0a:	f240 0100 	movw	r1, #0
20004d0e:	f6cb 71f0 	movt	r1, #49136	; 0xbff0
20004d12:	2000      	movs	r0, #0
20004d14:	4694      	mov	ip, r2
20004d16:	e9cd 011a 	strd	r0, r1, [sp, #104]	; 0x68
20004d1a:	f6c3 79f0 	movt	r9, #16368	; 0x3ff0
20004d1e:	2100      	movs	r1, #0
20004d20:	9106      	str	r1, [sp, #24]
20004d22:	e629      	b.n	20004978 <_strtod_r+0x590>
20004d24:	f1ac 7354 	sub.w	r3, ip, #55574528	; 0x3500000
20004d28:	9319      	str	r3, [sp, #100]	; 0x64
20004d2a:	e9dd 231a 	ldrd	r2, r3, [sp, #104]	; 0x68
20004d2e:	e9dd 0118 	ldrd	r0, r1, [sp, #96]	; 0x60
20004d32:	e9cd 2312 	strd	r2, r3, [sp, #72]	; 0x48
20004d36:	e9dd 2304 	ldrd	r2, r3, [sp, #16]
20004d3a:	e9cd 010c 	strd	r0, r1, [sp, #48]	; 0x30
20004d3e:	e9cd 2316 	strd	r2, r3, [sp, #88]	; 0x58
20004d42:	f003 fe97 	bl	20008a74 <__ulp>
20004d46:	4602      	mov	r2, r0
20004d48:	460b      	mov	r3, r1
20004d4a:	e9dd 0112 	ldrd	r0, r1, [sp, #72]	; 0x48
20004d4e:	f004 fe19 	bl	20009984 <__aeabi_dmul>
20004d52:	4602      	mov	r2, r0
20004d54:	460b      	mov	r3, r1
20004d56:	e9dd 010c 	ldrd	r0, r1, [sp, #48]	; 0x30
20004d5a:	f004 fc61 	bl	20009620 <__adddf3>
20004d5e:	f64f 7cff 	movw	ip, #65535	; 0xffff
20004d62:	f6c7 4c9f 	movt	ip, #31903	; 0x7c9f
20004d66:	e9cd 0118 	strd	r0, r1, [sp, #96]	; 0x60
20004d6a:	9a19      	ldr	r2, [sp, #100]	; 0x64
20004d6c:	ea02 030b 	and.w	r3, r2, fp
20004d70:	4563      	cmp	r3, ip
20004d72:	bf9c      	itt	ls
20004d74:	f102 7b54 	addls.w	fp, r2, #55574528	; 0x3500000
20004d78:	f8cd b064 	strls.w	fp, [sp, #100]	; 0x64
20004d7c:	f67f ae50 	bls.w	20004a20 <_strtod_r+0x638>
20004d80:	f64f 73ff 	movw	r3, #65535	; 0xffff
20004d84:	9a17      	ldr	r2, [sp, #92]	; 0x5c
20004d86:	f6c7 73ef 	movt	r3, #32751	; 0x7fef
20004d8a:	429a      	cmp	r2, r3
20004d8c:	f000 8150 	beq.w	20005030 <_strtod_r+0xc48>
20004d90:	f64f 73ff 	movw	r3, #65535	; 0xffff
20004d94:	f04f 32ff 	mov.w	r2, #4294967295
20004d98:	f6c7 73ef 	movt	r3, #32751	; 0x7fef
20004d9c:	9218      	str	r2, [sp, #96]	; 0x60
20004d9e:	9319      	str	r3, [sp, #100]	; 0x64
20004da0:	e64a      	b.n	20004a38 <_strtod_r+0x650>
20004da2:	2b01      	cmp	r3, #1
20004da4:	9a19      	ldr	r2, [sp, #100]	; 0x64
20004da6:	d1ae      	bne.n	20004d06 <_strtod_r+0x91e>
20004da8:	2a00      	cmp	r2, #0
20004daa:	d1ac      	bne.n	20004d06 <_strtod_r+0x91e>
20004dac:	2300      	movs	r3, #0
20004dae:	2200      	movs	r2, #0
20004db0:	e9cd 2318 	strd	r2, r3, [sp, #96]	; 0x60
20004db4:	2322      	movs	r3, #34	; 0x22
20004db6:	6023      	str	r3, [r4, #0]
20004db8:	e4d7      	b.n	2000476a <_strtod_r+0x382>
20004dba:	e9dd 0104 	ldrd	r0, r1, [sp, #16]
20004dbe:	a338      	add	r3, pc, #224	; (adr r3, 20004ea0 <_strtod_r+0xab8>)
20004dc0:	e9d3 2300 	ldrd	r2, r3, [r3]
20004dc4:	f005 f850 	bl	20009e68 <__aeabi_dcmplt>
20004dc8:	2800      	cmp	r0, #0
20004dca:	f47f acce 	bne.w	2000476a <_strtod_r+0x382>
20004dce:	e9dd 0104 	ldrd	r0, r1, [sp, #16]
20004dd2:	a335      	add	r3, pc, #212	; (adr r3, 20004ea8 <_strtod_r+0xac0>)
20004dd4:	e9d3 2300 	ldrd	r2, r3, [r3]
20004dd8:	f005 f864 	bl	20009ea4 <__aeabi_dcmpgt>
20004ddc:	2800      	cmp	r0, #0
20004dde:	f43f ae2b 	beq.w	20004a38 <_strtod_r+0x650>
20004de2:	e4c2      	b.n	2000476a <_strtod_r+0x382>
20004de4:	f101 4300 	add.w	r3, r1, #2147483648	; 0x80000000
20004de8:	e5fb      	b.n	200049e2 <_strtod_r+0x5fa>
20004dea:	9f0f      	ldr	r7, [sp, #60]	; 0x3c
20004dec:	f24b 1618 	movw	r6, #45336	; 0xb118
20004df0:	f2c2 0600 	movt	r6, #8192	; 0x2000
20004df4:	4620      	mov	r0, r4
20004df6:	a91f      	add	r1, sp, #124	; 0x7c
20004df8:	4632      	mov	r2, r6
20004dfa:	ab1d      	add	r3, sp, #116	; 0x74
20004dfc:	9701      	str	r7, [sp, #4]
20004dfe:	af1e      	add	r7, sp, #120	; 0x78
20004e00:	9700      	str	r7, [sp, #0]
20004e02:	f003 f9dd 	bl	200081c0 <__gethex>
20004e06:	f010 0807 	ands.w	r8, r0, #7
20004e0a:	4607      	mov	r7, r0
20004e0c:	f43f acc4 	beq.w	20004798 <_strtod_r+0x3b0>
20004e10:	f1b8 0f06 	cmp.w	r8, #6
20004e14:	f000 8168 	beq.w	200050e8 <_strtod_r+0xd00>
20004e18:	9a1e      	ldr	r2, [sp, #120]	; 0x78
20004e1a:	b13a      	cbz	r2, 20004e2c <_strtod_r+0xa44>
20004e1c:	6831      	ldr	r1, [r6, #0]
20004e1e:	a814      	add	r0, sp, #80	; 0x50
20004e20:	f003 feee 	bl	20008c00 <__copybits>
20004e24:	4620      	mov	r0, r4
20004e26:	991e      	ldr	r1, [sp, #120]	; 0x78
20004e28:	f003 ff3e 	bl	20008ca8 <_Bfree>
20004e2c:	9b1d      	ldr	r3, [sp, #116]	; 0x74
20004e2e:	f1b8 0f06 	cmp.w	r8, #6
20004e32:	d80b      	bhi.n	20004e4c <_strtod_r+0xa64>
20004e34:	e8df f008 	tbb	[pc, r8]
20004e38:	141c212d 	.word	0x141c212d
20004e3c:	2104      	.short	0x2104
20004e3e:	2d          	.byte	0x2d
20004e3f:	00          	.byte	0x00
20004e40:	f06f 4300 	mvn.w	r3, #2147483648	; 0x80000000
20004e44:	9319      	str	r3, [sp, #100]	; 0x64
20004e46:	f04f 33ff 	mov.w	r3, #4294967295
20004e4a:	9318      	str	r3, [sp, #96]	; 0x60
20004e4c:	f017 0f08 	tst.w	r7, #8
20004e50:	f43f ac9f 	beq.w	20004792 <_strtod_r+0x3aa>
20004e54:	9a19      	ldr	r2, [sp, #100]	; 0x64
20004e56:	9b18      	ldr	r3, [sp, #96]	; 0x60
20004e58:	f042 4200 	orr.w	r2, r2, #2147483648	; 0x80000000
20004e5c:	f7ff bb8b 	b.w	20004576 <_strtod_r+0x18e>
20004e60:	f240 0300 	movw	r3, #0
20004e64:	2200      	movs	r2, #0
20004e66:	f6c7 73f0 	movt	r3, #32752	; 0x7ff0
20004e6a:	9218      	str	r2, [sp, #96]	; 0x60
20004e6c:	9319      	str	r3, [sp, #100]	; 0x64
20004e6e:	e7ed      	b.n	20004e4c <_strtod_r+0xa64>
20004e70:	9b14      	ldr	r3, [sp, #80]	; 0x50
20004e72:	9318      	str	r3, [sp, #96]	; 0x60
20004e74:	9b15      	ldr	r3, [sp, #84]	; 0x54
20004e76:	9319      	str	r3, [sp, #100]	; 0x64
20004e78:	e7e8      	b.n	20004e4c <_strtod_r+0xa64>
20004e7a:	f503 6386 	add.w	r3, r3, #1072	; 0x430
20004e7e:	9a15      	ldr	r2, [sp, #84]	; 0x54
20004e80:	9914      	ldr	r1, [sp, #80]	; 0x50
20004e82:	3303      	adds	r3, #3
20004e84:	f422 1280 	bic.w	r2, r2, #1048576	; 0x100000
20004e88:	ea42 5303 	orr.w	r3, r2, r3, lsl #20
20004e8c:	9319      	str	r3, [sp, #100]	; 0x64
20004e8e:	9118      	str	r1, [sp, #96]	; 0x60
20004e90:	e7dc      	b.n	20004e4c <_strtod_r+0xa64>
20004e92:	2300      	movs	r3, #0
20004e94:	9318      	str	r3, [sp, #96]	; 0x60
20004e96:	9319      	str	r3, [sp, #100]	; 0x64
20004e98:	e7d8      	b.n	20004e4c <_strtod_r+0xa64>
20004e9a:	bf00      	nop
20004e9c:	f3af 8000 	nop.w
20004ea0:	94a03595 	.word	0x94a03595
20004ea4:	3fdfffff 	.word	0x3fdfffff
20004ea8:	35afe535 	.word	0x35afe535
20004eac:	3fe00000 	.word	0x3fe00000
20004eb0:	2000a9fd 	.word	0x2000a9fd
20004eb4:	2000a9f1 	.word	0x2000a9f1
20004eb8:	94a03595 	.word	0x94a03595
20004ebc:	3fcfffff 	.word	0x3fcfffff
20004ec0:	ffc00000 	.word	0xffc00000
20004ec4:	41dfffff 	.word	0x41dfffff
20004ec8:	f240 0300 	movw	r3, #0
20004ecc:	e9dd 0106 	ldrd	r0, r1, [sp, #24]
20004ed0:	2200      	movs	r2, #0
20004ed2:	f6c3 73e0 	movt	r3, #16352	; 0x3fe0
20004ed6:	f8cd c00c 	str.w	ip, [sp, #12]
20004eda:	f004 fd53 	bl	20009984 <__aeabi_dmul>
20004ede:	f8dd c00c 	ldr.w	ip, [sp, #12]
20004ee2:	9006      	str	r0, [sp, #24]
20004ee4:	4689      	mov	r9, r1
20004ee6:	4602      	mov	r2, r0
20004ee8:	f101 4300 	add.w	r3, r1, #2147483648	; 0x80000000
20004eec:	e706      	b.n	20004cfc <_strtod_r+0x914>
20004eee:	2300      	movs	r3, #0
20004ef0:	9308      	str	r3, [sp, #32]
20004ef2:	e698      	b.n	20004c26 <_strtod_r+0x83e>
20004ef4:	9b09      	ldr	r3, [sp, #36]	; 0x24
20004ef6:	2b00      	cmp	r3, #0
20004ef8:	d17c      	bne.n	20004ff4 <_strtod_r+0xc0c>
20004efa:	9b18      	ldr	r3, [sp, #96]	; 0x60
20004efc:	2b00      	cmp	r3, #0
20004efe:	d179      	bne.n	20004ff4 <_strtod_r+0xc0c>
20004f00:	9a19      	ldr	r2, [sp, #100]	; 0x64
20004f02:	f022 437f 	bic.w	r3, r2, #4278190080	; 0xff000000
20004f06:	f423 0370 	bic.w	r3, r3, #15728640	; 0xf00000
20004f0a:	2b00      	cmp	r3, #0
20004f0c:	d172      	bne.n	20004ff4 <_strtod_r+0xc0c>
20004f0e:	f240 0500 	movw	r5, #0
20004f12:	f6c7 75f0 	movt	r5, #32752	; 0x7ff0
20004f16:	ea02 0505 	and.w	r5, r2, r5
20004f1a:	f1b5 6fd6 	cmp.w	r5, #112197632	; 0x6b00000
20004f1e:	d969      	bls.n	20004ff4 <_strtod_r+0xc0c>
20004f20:	f8d8 3014 	ldr.w	r3, [r8, #20]
20004f24:	b91b      	cbnz	r3, 20004f2e <_strtod_r+0xb46>
20004f26:	f8d8 3010 	ldr.w	r3, [r8, #16]
20004f2a:	2b01      	cmp	r3, #1
20004f2c:	dd62      	ble.n	20004ff4 <_strtod_r+0xc0c>
20004f2e:	4641      	mov	r1, r8
20004f30:	2201      	movs	r2, #1
20004f32:	4620      	mov	r0, r4
20004f34:	f003 ffee 	bl	20008f14 <__lshift>
20004f38:	4631      	mov	r1, r6
20004f3a:	4680      	mov	r8, r0
20004f3c:	f003 fd7a 	bl	20008a34 <__mcmp>
20004f40:	2800      	cmp	r0, #0
20004f42:	dd57      	ble.n	20004ff4 <_strtod_r+0xc0c>
20004f44:	f1ba 0f00 	cmp.w	sl, #0
20004f48:	f000 816b 	beq.w	20005222 <_strtod_r+0xe3a>
20004f4c:	f1b5 6fd6 	cmp.w	r5, #112197632	; 0x6b00000
20004f50:	f200 8167 	bhi.w	20005222 <_strtod_r+0xe3a>
20004f54:	f1b5 7f5c 	cmp.w	r5, #57671680	; 0x3700000
20004f58:	f67f af28 	bls.w	20004dac <_strtod_r+0x9c4>
20004f5c:	f240 0300 	movw	r3, #0
20004f60:	2200      	movs	r2, #0
20004f62:	f6c3 1350 	movt	r3, #14672	; 0x3950
20004f66:	9216      	str	r2, [sp, #88]	; 0x58
20004f68:	9317      	str	r3, [sp, #92]	; 0x5c
20004f6a:	e9dd 0116 	ldrd	r0, r1, [sp, #88]	; 0x58
20004f6e:	e9dd 2304 	ldrd	r2, r3, [sp, #16]
20004f72:	f004 fd07 	bl	20009984 <__aeabi_dmul>
20004f76:	e9cd 0118 	strd	r0, r1, [sp, #96]	; 0x60
20004f7a:	9b19      	ldr	r3, [sp, #100]	; 0x64
20004f7c:	2b00      	cmp	r3, #0
20004f7e:	f47f abf4 	bne.w	2000476a <_strtod_r+0x382>
20004f82:	9b18      	ldr	r3, [sp, #96]	; 0x60
20004f84:	2b00      	cmp	r3, #0
20004f86:	f47f abf0 	bne.w	2000476a <_strtod_r+0x382>
20004f8a:	2322      	movs	r3, #34	; 0x22
20004f8c:	6023      	str	r3, [r4, #0]
20004f8e:	f7ff bbec 	b.w	2000476a <_strtod_r+0x382>
20004f92:	9809      	ldr	r0, [sp, #36]	; 0x24
20004f94:	2800      	cmp	r0, #0
20004f96:	f000 80cc 	beq.w	20005132 <_strtod_r+0xd4a>
20004f9a:	9a19      	ldr	r2, [sp, #100]	; 0x64
20004f9c:	f64f 73ff 	movw	r3, #65535	; 0xffff
20004fa0:	f2c0 030f 	movt	r3, #15
20004fa4:	f022 417f 	bic.w	r1, r2, #4278190080	; 0xff000000
20004fa8:	f421 0170 	bic.w	r1, r1, #15728640	; 0xf00000
20004fac:	4299      	cmp	r1, r3
20004fae:	d12a      	bne.n	20005006 <_strtod_r+0xc1e>
20004fb0:	9b18      	ldr	r3, [sp, #96]	; 0x60
20004fb2:	f1ba 0f00 	cmp.w	sl, #0
20004fb6:	f000 81ab 	beq.w	20005310 <_strtod_r+0xf28>
20004fba:	f240 0100 	movw	r1, #0
20004fbe:	f6c7 71f0 	movt	r1, #32752	; 0x7ff0
20004fc2:	ea02 0101 	and.w	r1, r2, r1
20004fc6:	f1b1 6fd4 	cmp.w	r1, #111149056	; 0x6a00000
20004fca:	f200 81a1 	bhi.w	20005310 <_strtod_r+0xf28>
20004fce:	0d09      	lsrs	r1, r1, #20
20004fd0:	f1c1 006b 	rsb	r0, r1, #107	; 0x6b
20004fd4:	f04f 31ff 	mov.w	r1, #4294967295
20004fd8:	4081      	lsls	r1, r0
20004fda:	428b      	cmp	r3, r1
20004fdc:	d114      	bne.n	20005008 <_strtod_r+0xc20>
20004fde:	f240 0300 	movw	r3, #0
20004fe2:	2100      	movs	r1, #0
20004fe4:	f6c7 73f0 	movt	r3, #32752	; 0x7ff0
20004fe8:	9118      	str	r1, [sp, #96]	; 0x60
20004fea:	ea02 0303 	and.w	r3, r2, r3
20004fee:	f503 1380 	add.w	r3, r3, #1048576	; 0x100000
20004ff2:	9319      	str	r3, [sp, #100]	; 0x64
20004ff4:	f1ba 0f00 	cmp.w	sl, #0
20004ff8:	f43f abb7 	beq.w	2000476a <_strtod_r+0x382>
20004ffc:	e9dd 2318 	ldrd	r2, r3, [sp, #96]	; 0x60
20005000:	e9cd 2304 	strd	r2, r3, [sp, #16]
20005004:	e7aa      	b.n	20004f5c <_strtod_r+0xb74>
20005006:	9b18      	ldr	r3, [sp, #96]	; 0x60
20005008:	f013 0f01 	tst.w	r3, #1
2000500c:	d0f2      	beq.n	20004ff4 <_strtod_r+0xc0c>
2000500e:	9909      	ldr	r1, [sp, #36]	; 0x24
20005010:	2900      	cmp	r1, #0
20005012:	f000 80da 	beq.w	200051ca <_strtod_r+0xde2>
20005016:	e9dd 0104 	ldrd	r0, r1, [sp, #16]
2000501a:	f003 fd2b 	bl	20008a74 <__ulp>
2000501e:	4602      	mov	r2, r0
20005020:	460b      	mov	r3, r1
20005022:	e9dd 0104 	ldrd	r0, r1, [sp, #16]
20005026:	f004 fafb 	bl	20009620 <__adddf3>
2000502a:	e9cd 0118 	strd	r0, r1, [sp, #96]	; 0x60
2000502e:	e7e1      	b.n	20004ff4 <_strtod_r+0xc0c>
20005030:	9b16      	ldr	r3, [sp, #88]	; 0x58
20005032:	f1b3 3fff 	cmp.w	r3, #4294967295
20005036:	f47f aeab 	bne.w	20004d90 <_strtod_r+0x9a8>
2000503a:	2322      	movs	r3, #34	; 0x22
2000503c:	f8cd b064 	str.w	fp, [sp, #100]	; 0x64
20005040:	6023      	str	r3, [r4, #0]
20005042:	3b22      	subs	r3, #34	; 0x22
20005044:	9318      	str	r3, [sp, #96]	; 0x60
20005046:	f7ff bb90 	b.w	2000476a <_strtod_r+0x382>
2000504a:	f240 0200 	movw	r2, #0
2000504e:	2322      	movs	r3, #34	; 0x22
20005050:	f6c7 72f0 	movt	r2, #32752	; 0x7ff0
20005054:	6023      	str	r3, [r4, #0]
20005056:	2300      	movs	r3, #0
20005058:	f7ff ba8d 	b.w	20004576 <_strtod_r+0x18e>
2000505c:	f040 8099 	bne.w	20005192 <_strtod_r+0xdaa>
20005060:	e9dd 0118 	ldrd	r0, r1, [sp, #96]	; 0x60
20005064:	e9cd 0104 	strd	r0, r1, [sp, #16]
20005068:	f7ff bbc2 	b.w	200047f0 <_strtod_r+0x408>
2000506c:	2700      	movs	r7, #0
2000506e:	4694      	mov	ip, r2
20005070:	463e      	mov	r6, r7
20005072:	9710      	str	r7, [sp, #64]	; 0x40
20005074:	f7ff babe 	b.w	200045f4 <_strtod_r+0x20c>
20005078:	f1bc 0f01 	cmp.w	ip, #1
2000507c:	44e3      	add	fp, ip
2000507e:	d01d      	beq.n	200050bc <_strtod_r+0xcd4>
20005080:	9804      	ldr	r0, [sp, #16]
20005082:	9d10      	ldr	r5, [sp, #64]	; 0x40
20005084:	eb00 090c 	add.w	r9, r0, ip
20005088:	4602      	mov	r2, r0
2000508a:	f109 39ff 	add.w	r9, r9, #4294967295
2000508e:	e002      	b.n	20005096 <_strtod_r+0xcae>
20005090:	0046      	lsls	r6, r0, #1
20005092:	454a      	cmp	r2, r9
20005094:	d00b      	beq.n	200050ae <_strtod_r+0xcc6>
20005096:	3201      	adds	r2, #1
20005098:	eb06 0086 	add.w	r0, r6, r6, lsl #2
2000509c:	1e53      	subs	r3, r2, #1
2000509e:	2b08      	cmp	r3, #8
200050a0:	ddf6      	ble.n	20005090 <_strtod_r+0xca8>
200050a2:	eb07 0387 	add.w	r3, r7, r7, lsl #2
200050a6:	2a10      	cmp	r2, #16
200050a8:	bfd8      	it	le
200050aa:	005f      	lslle	r7, r3, #1
200050ac:	e7f1      	b.n	20005092 <_strtod_r+0xcaa>
200050ae:	9a04      	ldr	r2, [sp, #16]
200050b0:	9510      	str	r5, [sp, #64]	; 0x40
200050b2:	4494      	add	ip, r2
200050b4:	f10c 3cff 	add.w	ip, ip, #4294967295
200050b8:	f8cd c010 	str.w	ip, [sp, #16]
200050bc:	9b04      	ldr	r3, [sp, #16]
200050be:	1c5d      	adds	r5, r3, #1
200050c0:	2b08      	cmp	r3, #8
200050c2:	bfde      	ittt	le
200050c4:	eb06 0686 	addle.w	r6, r6, r6, lsl #2
200050c8:	f04f 0c00 	movle.w	ip, #0
200050cc:	eb0a 0646 	addle.w	r6, sl, r6, lsl #1
200050d0:	f77f aab1 	ble.w	20004636 <_strtod_r+0x24e>
200050d4:	2d10      	cmp	r5, #16
200050d6:	f04f 0c00 	mov.w	ip, #0
200050da:	f73f aaac 	bgt.w	20004636 <_strtod_r+0x24e>
200050de:	220a      	movs	r2, #10
200050e0:	fb02 a707 	mla	r7, r2, r7, sl
200050e4:	f7ff baa7 	b.w	20004636 <_strtod_r+0x24e>
200050e8:	2300      	movs	r3, #0
200050ea:	951f      	str	r5, [sp, #124]	; 0x7c
200050ec:	461a      	mov	r2, r3
200050ee:	f7ff ba42 	b.w	20004576 <_strtod_r+0x18e>
200050f2:	f1c5 070f 	rsb	r7, r5, #15
200050f6:	9808      	ldr	r0, [sp, #32]
200050f8:	f107 0316 	add.w	r3, r7, #22
200050fc:	4298      	cmp	r0, r3
200050fe:	f73f ab56 	bgt.w	200047ae <_strtod_r+0x3c6>
20005102:	f64a 2490 	movw	r4, #43664	; 0xaa90
20005106:	e9dd 0118 	ldrd	r0, r1, [sp, #96]	; 0x60
2000510a:	f2c2 0400 	movt	r4, #8192	; 0x2000
2000510e:	eb04 03c7 	add.w	r3, r4, r7, lsl #3
20005112:	e9d3 2300 	ldrd	r2, r3, [r3]
20005116:	f004 fc35 	bl	20009984 <__aeabi_dmul>
2000511a:	9a08      	ldr	r2, [sp, #32]
2000511c:	1bd7      	subs	r7, r2, r7
2000511e:	eb04 04c7 	add.w	r4, r4, r7, lsl #3
20005122:	e9d4 2300 	ldrd	r2, r3, [r4]
20005126:	f004 fc2d 	bl	20009984 <__aeabi_dmul>
2000512a:	4603      	mov	r3, r0
2000512c:	460a      	mov	r2, r1
2000512e:	f7ff ba22 	b.w	20004576 <_strtod_r+0x18e>
20005132:	9a19      	ldr	r2, [sp, #100]	; 0x64
20005134:	f022 437f 	bic.w	r3, r2, #4278190080	; 0xff000000
20005138:	f423 0370 	bic.w	r3, r3, #15728640	; 0xf00000
2000513c:	2b00      	cmp	r3, #0
2000513e:	f47f af62 	bne.w	20005006 <_strtod_r+0xc1e>
20005142:	9b18      	ldr	r3, [sp, #96]	; 0x60
20005144:	2b00      	cmp	r3, #0
20005146:	f47f af5f 	bne.w	20005008 <_strtod_r+0xc20>
2000514a:	f240 0500 	movw	r5, #0
2000514e:	f6c7 75f0 	movt	r5, #32752	; 0x7ff0
20005152:	ea02 0505 	and.w	r5, r2, r5
20005156:	e6f5      	b.n	20004f44 <_strtod_r+0xb5c>
20005158:	9b0b      	ldr	r3, [sp, #44]	; 0x2c
2000515a:	950b      	str	r5, [sp, #44]	; 0x2c
2000515c:	464d      	mov	r5, r9
2000515e:	9310      	str	r3, [sp, #64]	; 0x40
20005160:	f7ff b9e5 	b.w	2000452e <_strtod_r+0x146>
20005164:	9b08      	ldr	r3, [sp, #32]
20005166:	f113 0f16 	cmn.w	r3, #22
2000516a:	f6ff ab20 	blt.w	200047ae <_strtod_r+0x3c6>
2000516e:	ebc3 7243 	rsb	r2, r3, r3, lsl #29
20005172:	f64a 2390 	movw	r3, #43664	; 0xaa90
20005176:	f2c2 0300 	movt	r3, #8192	; 0x2000
2000517a:	e9dd 0118 	ldrd	r0, r1, [sp, #96]	; 0x60
2000517e:	eb03 03c2 	add.w	r3, r3, r2, lsl #3
20005182:	e9d3 2300 	ldrd	r2, r3, [r3]
20005186:	f004 fd27 	bl	20009bd8 <__aeabi_ddiv>
2000518a:	4603      	mov	r3, r0
2000518c:	460a      	mov	r2, r1
2000518e:	f7ff b9f2 	b.w	20004576 <_strtod_r+0x18e>
20005192:	f1ca 0700 	rsb	r7, sl, #0
20005196:	f017 020f 	ands.w	r2, r7, #15
2000519a:	d00d      	beq.n	200051b8 <_strtod_r+0xdd0>
2000519c:	f64a 2390 	movw	r3, #43664	; 0xaa90
200051a0:	e9dd 0118 	ldrd	r0, r1, [sp, #96]	; 0x60
200051a4:	f2c2 0300 	movt	r3, #8192	; 0x2000
200051a8:	eb03 03c2 	add.w	r3, r3, r2, lsl #3
200051ac:	e9d3 2300 	ldrd	r2, r3, [r3]
200051b0:	f004 fd12 	bl	20009bd8 <__aeabi_ddiv>
200051b4:	e9cd 0118 	strd	r0, r1, [sp, #96]	; 0x60
200051b8:	113f      	asrs	r7, r7, #4
200051ba:	d157      	bne.n	2000526c <_strtod_r+0xe84>
200051bc:	e9dd 2318 	ldrd	r2, r3, [sp, #96]	; 0x60
200051c0:	46ba      	mov	sl, r7
200051c2:	e9cd 2304 	strd	r2, r3, [sp, #16]
200051c6:	f7ff bb13 	b.w	200047f0 <_strtod_r+0x408>
200051ca:	e9dd 0104 	ldrd	r0, r1, [sp, #16]
200051ce:	f003 fc51 	bl	20008a74 <__ulp>
200051d2:	4602      	mov	r2, r0
200051d4:	460b      	mov	r3, r1
200051d6:	e9dd 0104 	ldrd	r0, r1, [sp, #16]
200051da:	f004 fa1f 	bl	2000961c <__aeabi_dsub>
200051de:	2200      	movs	r2, #0
200051e0:	2300      	movs	r3, #0
200051e2:	e9cd 0118 	strd	r0, r1, [sp, #96]	; 0x60
200051e6:	f004 fe35 	bl	20009e54 <__aeabi_dcmpeq>
200051ea:	2800      	cmp	r0, #0
200051ec:	f43f af02 	beq.w	20004ff4 <_strtod_r+0xc0c>
200051f0:	e5dc      	b.n	20004dac <_strtod_r+0x9c4>
200051f2:	f101 7154 	add.w	r1, r1, #55574528	; 0x3500000
200051f6:	9119      	str	r1, [sp, #100]	; 0x64
200051f8:	e9dd 2318 	ldrd	r2, r3, [sp, #96]	; 0x60
200051fc:	f04f 0a00 	mov.w	sl, #0
20005200:	e9cd 2304 	strd	r2, r3, [sp, #16]
20005204:	f7ff baf4 	b.w	200047f0 <_strtod_r+0x408>
20005208:	1c53      	adds	r3, r2, #1
2000520a:	931f      	str	r3, [sp, #124]	; 0x7c
2000520c:	7853      	ldrb	r3, [r2, #1]
2000520e:	2b28      	cmp	r3, #40	; 0x28
20005210:	f000 8084 	beq.w	2000531c <_strtod_r+0xf34>
20005214:	f240 0200 	movw	r2, #0
20005218:	2300      	movs	r3, #0
2000521a:	f6cf 72f8 	movt	r2, #65528	; 0xfff8
2000521e:	f7ff b9aa 	b.w	20004576 <_strtod_r+0x18e>
20005222:	f5a5 1380 	sub.w	r3, r5, #1048576	; 0x100000
20005226:	f04f 32ff 	mov.w	r2, #4294967295
2000522a:	9218      	str	r2, [sp, #96]	; 0x60
2000522c:	ea6f 5313 	mvn.w	r3, r3, lsr #20
20005230:	ea6f 5303 	mvn.w	r3, r3, lsl #20
20005234:	9319      	str	r3, [sp, #100]	; 0x64
20005236:	e6dd      	b.n	20004ff4 <_strtod_r+0xc0c>
20005238:	4845      	ldr	r0, [pc, #276]	; (20005350 <_strtod_r+0xf68>)
2000523a:	4611      	mov	r1, r2
2000523c:	921f      	str	r2, [sp, #124]	; 0x7c
2000523e:	f810 4c01 	ldrb.w	r4, [r0, #-1]
20005242:	3001      	adds	r0, #1
20005244:	2c00      	cmp	r4, #0
20005246:	d066      	beq.n	20005316 <_strtod_r+0xf2e>
20005248:	784b      	ldrb	r3, [r1, #1]
2000524a:	3101      	adds	r1, #1
2000524c:	2b40      	cmp	r3, #64	; 0x40
2000524e:	dd02      	ble.n	20005256 <_strtod_r+0xe6e>
20005250:	2b5a      	cmp	r3, #90	; 0x5a
20005252:	bfd8      	it	le
20005254:	3320      	addle	r3, #32
20005256:	42a3      	cmp	r3, r4
20005258:	d0f1      	beq.n	2000523e <_strtod_r+0xe56>
2000525a:	3201      	adds	r2, #1
2000525c:	921f      	str	r2, [sp, #124]	; 0x7c
2000525e:	f240 0200 	movw	r2, #0
20005262:	2300      	movs	r3, #0
20005264:	f6c7 72f0 	movt	r2, #32752	; 0x7ff0
20005268:	f7ff b985 	b.w	20004576 <_strtod_r+0x18e>
2000526c:	2f1f      	cmp	r7, #31
2000526e:	dc49      	bgt.n	20005304 <_strtod_r+0xf1c>
20005270:	f017 0a10 	ands.w	sl, r7, #16
20005274:	bf18      	it	ne
20005276:	f04f 0a6a 	movne.w	sl, #106	; 0x6a
2000527a:	2f00      	cmp	r7, #0
2000527c:	dd16      	ble.n	200052ac <_strtod_r+0xec4>
2000527e:	f64a 18c8 	movw	r8, #43464	; 0xa9c8
20005282:	e9dd 2318 	ldrd	r2, r3, [sp, #96]	; 0x60
20005286:	f2c2 0800 	movt	r8, #8192	; 0x2000
2000528a:	f017 0f01 	tst.w	r7, #1
2000528e:	4610      	mov	r0, r2
20005290:	4619      	mov	r1, r3
20005292:	d005      	beq.n	200052a0 <_strtod_r+0xeb8>
20005294:	e9d8 2300 	ldrd	r2, r3, [r8]
20005298:	f004 fb74 	bl	20009984 <__aeabi_dmul>
2000529c:	4602      	mov	r2, r0
2000529e:	460b      	mov	r3, r1
200052a0:	107f      	asrs	r7, r7, #1
200052a2:	f108 0808 	add.w	r8, r8, #8
200052a6:	d1f0      	bne.n	2000528a <_strtod_r+0xea2>
200052a8:	e9cd 2318 	strd	r2, r3, [sp, #96]	; 0x60
200052ac:	f1ba 0f00 	cmp.w	sl, #0
200052b0:	d01d      	beq.n	200052ee <_strtod_r+0xf06>
200052b2:	9a19      	ldr	r2, [sp, #100]	; 0x64
200052b4:	f240 0300 	movw	r3, #0
200052b8:	f6c7 73f0 	movt	r3, #32752	; 0x7ff0
200052bc:	ea02 0303 	and.w	r3, r2, r3
200052c0:	0d1b      	lsrs	r3, r3, #20
200052c2:	f1c3 036b 	rsb	r3, r3, #107	; 0x6b
200052c6:	2b00      	cmp	r3, #0
200052c8:	dd11      	ble.n	200052ee <_strtod_r+0xf06>
200052ca:	2b1f      	cmp	r3, #31
200052cc:	dd36      	ble.n	2000533c <_strtod_r+0xf54>
200052ce:	2100      	movs	r1, #0
200052d0:	2b34      	cmp	r3, #52	; 0x34
200052d2:	bfc8      	it	gt
200052d4:	f04f 735c 	movgt.w	r3, #57671680	; 0x3700000
200052d8:	9118      	str	r1, [sp, #96]	; 0x60
200052da:	bfc8      	it	gt
200052dc:	9319      	strgt	r3, [sp, #100]	; 0x64
200052de:	dc06      	bgt.n	200052ee <_strtod_r+0xf06>
200052e0:	f04f 31ff 	mov.w	r1, #4294967295
200052e4:	3b20      	subs	r3, #32
200052e6:	fa11 f303 	lsls.w	r3, r1, r3
200052ea:	401a      	ands	r2, r3
200052ec:	9219      	str	r2, [sp, #100]	; 0x64
200052ee:	e9dd 0118 	ldrd	r0, r1, [sp, #96]	; 0x60
200052f2:	2200      	movs	r2, #0
200052f4:	2300      	movs	r3, #0
200052f6:	e9cd 0104 	strd	r0, r1, [sp, #16]
200052fa:	f004 fdab 	bl	20009e54 <__aeabi_dcmpeq>
200052fe:	2800      	cmp	r0, #0
20005300:	f43f aa76 	beq.w	200047f0 <_strtod_r+0x408>
20005304:	2300      	movs	r3, #0
20005306:	2222      	movs	r2, #34	; 0x22
20005308:	6022      	str	r2, [r4, #0]
2000530a:	461a      	mov	r2, r3
2000530c:	f7ff b933 	b.w	20004576 <_strtod_r+0x18e>
20005310:	f04f 31ff 	mov.w	r1, #4294967295
20005314:	e661      	b.n	20004fda <_strtod_r+0xbf2>
20005316:	3101      	adds	r1, #1
20005318:	911f      	str	r1, [sp, #124]	; 0x7c
2000531a:	e7a0      	b.n	2000525e <_strtod_r+0xe76>
2000531c:	a81f      	add	r0, sp, #124	; 0x7c
2000531e:	490d      	ldr	r1, [pc, #52]	; (20005354 <_strtod_r+0xf6c>)
20005320:	aa14      	add	r2, sp, #80	; 0x50
20005322:	f003 f9ab 	bl	2000867c <__hexnan>
20005326:	2805      	cmp	r0, #5
20005328:	f47f af74 	bne.w	20005214 <_strtod_r+0xe2c>
2000532c:	9a15      	ldr	r2, [sp, #84]	; 0x54
2000532e:	9b14      	ldr	r3, [sp, #80]	; 0x50
20005330:	f042 42fe 	orr.w	r2, r2, #2130706432	; 0x7f000000
20005334:	f442 0270 	orr.w	r2, r2, #15728640	; 0xf00000
20005338:	f7ff b91d 	b.w	20004576 <_strtod_r+0x18e>
2000533c:	f04f 32ff 	mov.w	r2, #4294967295
20005340:	fa12 f303 	lsls.w	r3, r2, r3
20005344:	9a18      	ldr	r2, [sp, #96]	; 0x60
20005346:	ea02 0303 	and.w	r3, r2, r3
2000534a:	9318      	str	r3, [sp, #96]	; 0x60
2000534c:	e7cf      	b.n	200052ee <_strtod_r+0xf06>
2000534e:	bf00      	nop
20005350:	2000a9f5 	.word	0x2000a9f5
20005354:	2000b12c 	.word	0x2000b12c

20005358 <strtof>:
20005358:	b5f8      	push	{r3, r4, r5, r6, r7, lr}
2000535a:	f64a 34fc 	movw	r4, #44028	; 0xabfc
2000535e:	f2c2 0400 	movt	r4, #8192	; 0x2000
20005362:	460a      	mov	r2, r1
20005364:	4601      	mov	r1, r0
20005366:	6820      	ldr	r0, [r4, #0]
20005368:	f7ff f83e 	bl	200043e8 <_strtod_r>
2000536c:	460f      	mov	r7, r1
2000536e:	4606      	mov	r6, r0
20005370:	f004 fdea 	bl	20009f48 <__aeabi_d2f>
20005374:	2100      	movs	r1, #0
20005376:	4605      	mov	r5, r0
20005378:	f004 fe7a 	bl	2000a070 <__aeabi_fcmpeq>
2000537c:	b158      	cbz	r0, 20005396 <strtof+0x3e>
2000537e:	4630      	mov	r0, r6
20005380:	4639      	mov	r1, r7
20005382:	2200      	movs	r2, #0
20005384:	2300      	movs	r3, #0
20005386:	f004 fd65 	bl	20009e54 <__aeabi_dcmpeq>
2000538a:	b920      	cbnz	r0, 20005396 <strtof+0x3e>
2000538c:	6823      	ldr	r3, [r4, #0]
2000538e:	2222      	movs	r2, #34	; 0x22
20005390:	601a      	str	r2, [r3, #0]
20005392:	4628      	mov	r0, r5
20005394:	bdf8      	pop	{r3, r4, r5, r6, r7, pc}
20005396:	f64f 71ff 	movw	r1, #65535	; 0xffff
2000539a:	4628      	mov	r0, r5
2000539c:	f6c7 717f 	movt	r1, #32639	; 0x7f7f
200053a0:	f004 fe8e 	bl	2000a0c0 <__aeabi_fcmpgt>
200053a4:	b158      	cbz	r0, 200053be <strtof+0x66>
200053a6:	f64f 73ff 	movw	r3, #65535	; 0xffff
200053aa:	4630      	mov	r0, r6
200053ac:	4639      	mov	r1, r7
200053ae:	f04f 32ff 	mov.w	r2, #4294967295
200053b2:	f6c7 73ef 	movt	r3, #32751	; 0x7fef
200053b6:	f004 fd75 	bl	20009ea4 <__aeabi_dcmpgt>
200053ba:	2800      	cmp	r0, #0
200053bc:	d0e6      	beq.n	2000538c <strtof+0x34>
200053be:	4628      	mov	r0, r5
200053c0:	f46f 0100 	mvn.w	r1, #8388608	; 0x800000
200053c4:	f004 fe5e 	bl	2000a084 <__aeabi_fcmplt>
200053c8:	2800      	cmp	r0, #0
200053ca:	d0e2      	beq.n	20005392 <strtof+0x3a>
200053cc:	4630      	mov	r0, r6
200053ce:	4639      	mov	r1, r7
200053d0:	f04f 32ff 	mov.w	r2, #4294967295
200053d4:	f46f 1380 	mvn.w	r3, #1048576	; 0x100000
200053d8:	f004 fd46 	bl	20009e68 <__aeabi_dcmplt>
200053dc:	2800      	cmp	r0, #0
200053de:	d0d5      	beq.n	2000538c <strtof+0x34>
200053e0:	4628      	mov	r0, r5
200053e2:	bdf8      	pop	{r3, r4, r5, r6, r7, pc}

200053e4 <strtod>:
200053e4:	f64a 33fc 	movw	r3, #44028	; 0xabfc
200053e8:	460a      	mov	r2, r1
200053ea:	f2c2 0300 	movt	r3, #8192	; 0x2000
200053ee:	4601      	mov	r1, r0
200053f0:	6818      	ldr	r0, [r3, #0]
200053f2:	f7fe bff9 	b.w	200043e8 <_strtod_r>
200053f6:	bf00      	nop

200053f8 <_strtol_r>:
200053f8:	e92d 4ff0 	stmdb	sp!, {r4, r5, r6, r7, r8, r9, sl, fp, lr}
200053fc:	f24b 1504 	movw	r5, #45316	; 0xb104
20005400:	f2c2 0500 	movt	r5, #8192	; 0x2000
20005404:	b083      	sub	sp, #12
20005406:	460c      	mov	r4, r1
20005408:	461f      	mov	r7, r3
2000540a:	f8d5 8000 	ldr.w	r8, [r5]
2000540e:	460e      	mov	r6, r1
20005410:	9001      	str	r0, [sp, #4]
20005412:	9200      	str	r2, [sp, #0]
20005414:	f816 5b01 	ldrb.w	r5, [r6], #1
20005418:	eb08 0305 	add.w	r3, r8, r5
2000541c:	f893 b001 	ldrb.w	fp, [r3, #1]
20005420:	f01b 0b08 	ands.w	fp, fp, #8
20005424:	d1f6      	bne.n	20005414 <_strtol_r+0x1c>
20005426:	2d2d      	cmp	r5, #45	; 0x2d
20005428:	d065      	beq.n	200054f6 <_strtol_r+0xfe>
2000542a:	2d2b      	cmp	r5, #43	; 0x2b
2000542c:	bf08      	it	eq
2000542e:	f816 5b01 	ldrbeq.w	r5, [r6], #1
20005432:	f1d7 0301 	rsbs	r3, r7, #1
20005436:	bf38      	it	cc
20005438:	2300      	movcc	r3, #0
2000543a:	2f10      	cmp	r7, #16
2000543c:	bf14      	ite	ne
2000543e:	461a      	movne	r2, r3
20005440:	f043 0201 	orreq.w	r2, r3, #1
20005444:	b132      	cbz	r2, 20005454 <_strtol_r+0x5c>
20005446:	2d30      	cmp	r5, #48	; 0x30
20005448:	d066      	beq.n	20005518 <_strtol_r+0x120>
2000544a:	b11b      	cbz	r3, 20005454 <_strtol_r+0x5c>
2000544c:	2d30      	cmp	r5, #48	; 0x30
2000544e:	bf0c      	ite	eq
20005450:	2708      	moveq	r7, #8
20005452:	270a      	movne	r7, #10
20005454:	f1bb 0f00 	cmp.w	fp, #0
20005458:	4639      	mov	r1, r7
2000545a:	bf14      	ite	ne
2000545c:	f04f 4900 	movne.w	r9, #2147483648	; 0x80000000
20005460:	f06f 4900 	mvneq.w	r9, #2147483648	; 0x80000000
20005464:	4648      	mov	r0, r9
20005466:	f004 f8c5 	bl	200095f4 <__aeabi_uidivmod>
2000546a:	4648      	mov	r0, r9
2000546c:	468a      	mov	sl, r1
2000546e:	4639      	mov	r1, r7
20005470:	f003 ff92 	bl	20009398 <__aeabi_uidiv>
20005474:	2100      	movs	r1, #0
20005476:	468c      	mov	ip, r1
20005478:	eb08 0205 	add.w	r2, r8, r5
2000547c:	f1a5 0330 	sub.w	r3, r5, #48	; 0x30
20005480:	7852      	ldrb	r2, [r2, #1]
20005482:	f012 0f04 	tst.w	r2, #4
20005486:	d108      	bne.n	2000549a <_strtol_r+0xa2>
20005488:	f012 0f03 	tst.w	r2, #3
2000548c:	d020      	beq.n	200054d0 <_strtol_r+0xd8>
2000548e:	f012 0f01 	tst.w	r2, #1
20005492:	bf14      	ite	ne
20005494:	2337      	movne	r3, #55	; 0x37
20005496:	2357      	moveq	r3, #87	; 0x57
20005498:	1aeb      	subs	r3, r5, r3
2000549a:	429f      	cmp	r7, r3
2000549c:	dd18      	ble.n	200054d0 <_strtol_r+0xd8>
2000549e:	4584      	cmp	ip, r0
200054a0:	bf94      	ite	ls
200054a2:	2200      	movls	r2, #0
200054a4:	2201      	movhi	r2, #1
200054a6:	ea52 71d1 	orrs.w	r1, r2, r1, lsr #31
200054aa:	f04f 31ff 	mov.w	r1, #4294967295
200054ae:	d10c      	bne.n	200054ca <_strtol_r+0xd2>
200054b0:	4584      	cmp	ip, r0
200054b2:	bf14      	ite	ne
200054b4:	2200      	movne	r2, #0
200054b6:	2201      	moveq	r2, #1
200054b8:	4553      	cmp	r3, sl
200054ba:	bfd4      	ite	le
200054bc:	2200      	movle	r2, #0
200054be:	f002 0201 	andgt.w	r2, r2, #1
200054c2:	b912      	cbnz	r2, 200054ca <_strtol_r+0xd2>
200054c4:	fb07 3c0c 	mla	ip, r7, ip, r3
200054c8:	2101      	movs	r1, #1
200054ca:	f816 5b01 	ldrb.w	r5, [r6], #1
200054ce:	e7d3      	b.n	20005478 <_strtol_r+0x80>
200054d0:	f1b1 3fff 	cmp.w	r1, #4294967295
200054d4:	d014      	beq.n	20005500 <_strtol_r+0x108>
200054d6:	f1bb 0f00 	cmp.w	fp, #0
200054da:	d109      	bne.n	200054f0 <_strtol_r+0xf8>
200054dc:	4660      	mov	r0, ip
200054de:	9b00      	ldr	r3, [sp, #0]
200054e0:	b11b      	cbz	r3, 200054ea <_strtol_r+0xf2>
200054e2:	b101      	cbz	r1, 200054e6 <_strtol_r+0xee>
200054e4:	1e74      	subs	r4, r6, #1
200054e6:	9a00      	ldr	r2, [sp, #0]
200054e8:	6014      	str	r4, [r2, #0]
200054ea:	b003      	add	sp, #12
200054ec:	e8bd 8ff0 	ldmia.w	sp!, {r4, r5, r6, r7, r8, r9, sl, fp, pc}
200054f0:	f1cc 0000 	rsb	r0, ip, #0
200054f4:	e7f3      	b.n	200054de <_strtol_r+0xe6>
200054f6:	f816 5b01 	ldrb.w	r5, [r6], #1
200054fa:	f04f 0b01 	mov.w	fp, #1
200054fe:	e798      	b.n	20005432 <_strtol_r+0x3a>
20005500:	9a01      	ldr	r2, [sp, #4]
20005502:	f1bb 0f00 	cmp.w	fp, #0
20005506:	f04f 0322 	mov.w	r3, #34	; 0x22
2000550a:	bf14      	ite	ne
2000550c:	f04f 4000 	movne.w	r0, #2147483648	; 0x80000000
20005510:	f06f 4000 	mvneq.w	r0, #2147483648	; 0x80000000
20005514:	6013      	str	r3, [r2, #0]
20005516:	e7e2      	b.n	200054de <_strtol_r+0xe6>
20005518:	7832      	ldrb	r2, [r6, #0]
2000551a:	2a78      	cmp	r2, #120	; 0x78
2000551c:	bf14      	ite	ne
2000551e:	2100      	movne	r1, #0
20005520:	2101      	moveq	r1, #1
20005522:	2a58      	cmp	r2, #88	; 0x58
20005524:	bf14      	ite	ne
20005526:	460a      	movne	r2, r1
20005528:	f041 0201 	orreq.w	r2, r1, #1
2000552c:	2a00      	cmp	r2, #0
2000552e:	d08c      	beq.n	2000544a <_strtol_r+0x52>
20005530:	7875      	ldrb	r5, [r6, #1]
20005532:	2710      	movs	r7, #16
20005534:	3602      	adds	r6, #2
20005536:	e78d      	b.n	20005454 <_strtol_r+0x5c>

20005538 <strtol>:
20005538:	b410      	push	{r4}
2000553a:	f64a 34fc 	movw	r4, #44028	; 0xabfc
2000553e:	f2c2 0400 	movt	r4, #8192	; 0x2000
20005542:	468c      	mov	ip, r1
20005544:	4613      	mov	r3, r2
20005546:	4601      	mov	r1, r0
20005548:	4662      	mov	r2, ip
2000554a:	6820      	ldr	r0, [r4, #0]
2000554c:	bc10      	pop	{r4}
2000554e:	e753      	b.n	200053f8 <_strtol_r>

20005550 <_strtoll_r>:
20005550:	e92d 4ff0 	stmdb	sp!, {r4, r5, r6, r7, r8, r9, sl, fp, lr}
20005554:	f24b 1404 	movw	r4, #45316	; 0xb104
20005558:	f2c2 0400 	movt	r4, #8192	; 0x2000
2000555c:	b08b      	sub	sp, #44	; 0x2c
2000555e:	469a      	mov	sl, r3
20005560:	460d      	mov	r5, r1
20005562:	6826      	ldr	r6, [r4, #0]
20005564:	9106      	str	r1, [sp, #24]
20005566:	9009      	str	r0, [sp, #36]	; 0x24
20005568:	9208      	str	r2, [sp, #32]
2000556a:	f815 4b01 	ldrb.w	r4, [r5], #1
2000556e:	1933      	adds	r3, r6, r4
20005570:	785b      	ldrb	r3, [r3, #1]
20005572:	f013 0308 	ands.w	r3, r3, #8
20005576:	d1f8      	bne.n	2000556a <_strtoll_r+0x1a>
20005578:	2c2d      	cmp	r4, #45	; 0x2d
2000557a:	f000 80aa 	beq.w	200056d2 <_strtoll_r+0x182>
2000557e:	2c2b      	cmp	r4, #43	; 0x2b
20005580:	bf08      	it	eq
20005582:	f815 4b01 	ldrbeq.w	r4, [r5], #1
20005586:	9307      	str	r3, [sp, #28]
20005588:	f1da 0301 	rsbs	r3, sl, #1
2000558c:	bf38      	it	cc
2000558e:	2300      	movcc	r3, #0
20005590:	f1ba 0f10 	cmp.w	sl, #16
20005594:	bf14      	ite	ne
20005596:	461a      	movne	r2, r3
20005598:	f043 0201 	orreq.w	r2, r3, #1
2000559c:	b1aa      	cbz	r2, 200055ca <_strtoll_r+0x7a>
2000559e:	2c30      	cmp	r4, #48	; 0x30
200055a0:	f000 80a5 	beq.w	200056ee <_strtoll_r+0x19e>
200055a4:	2b00      	cmp	r3, #0
200055a6:	f000 80c5 	beq.w	20005734 <_strtoll_r+0x1e4>
200055aa:	2c30      	cmp	r4, #48	; 0x30
200055ac:	f000 80b9 	beq.w	20005722 <_strtoll_r+0x1d2>
200055b0:	9807      	ldr	r0, [sp, #28]
200055b2:	220a      	movs	r2, #10
200055b4:	2300      	movs	r3, #0
200055b6:	f04f 0a0a 	mov.w	sl, #10
200055ba:	e9cd 2304 	strd	r2, r3, [sp, #16]
200055be:	b160      	cbz	r0, 200055da <_strtoll_r+0x8a>
200055c0:	f04f 0800 	mov.w	r8, #0
200055c4:	f04f 4900 	mov.w	r9, #2147483648	; 0x80000000
200055c8:	e00b      	b.n	200055e2 <_strtoll_r+0x92>
200055ca:	4652      	mov	r2, sl
200055cc:	ea4f 73e2 	mov.w	r3, r2, asr #31
200055d0:	e9cd 2304 	strd	r2, r3, [sp, #16]
200055d4:	9807      	ldr	r0, [sp, #28]
200055d6:	2800      	cmp	r0, #0
200055d8:	d1f2      	bne.n	200055c0 <_strtoll_r+0x70>
200055da:	f04f 38ff 	mov.w	r8, #4294967295
200055de:	f06f 4900 	mvn.w	r9, #2147483648	; 0x80000000
200055e2:	4640      	mov	r0, r8
200055e4:	4649      	mov	r1, r9
200055e6:	e9dd 2304 	ldrd	r2, r3, [sp, #16]
200055ea:	2700      	movs	r7, #0
200055ec:	f004 fd72 	bl	2000a0d4 <__aeabi_uldivmod>
200055f0:	4640      	mov	r0, r8
200055f2:	4649      	mov	r1, r9
200055f4:	4693      	mov	fp, r2
200055f6:	e9dd 2304 	ldrd	r2, r3, [sp, #16]
200055fa:	f004 fd6b 	bl	2000a0d4 <__aeabi_uldivmod>
200055fe:	2200      	movs	r2, #0
20005600:	2300      	movs	r3, #0
20005602:	f8cd b004 	str.w	fp, [sp, #4]
20005606:	f8cd a000 	str.w	sl, [sp]
2000560a:	4680      	mov	r8, r0
2000560c:	4689      	mov	r9, r1
2000560e:	1930      	adds	r0, r6, r4
20005610:	f1a4 0130 	sub.w	r1, r4, #48	; 0x30
20005614:	7840      	ldrb	r0, [r0, #1]
20005616:	f010 0f04 	tst.w	r0, #4
2000561a:	d108      	bne.n	2000562e <_strtoll_r+0xde>
2000561c:	f010 0f03 	tst.w	r0, #3
20005620:	d040      	beq.n	200056a4 <_strtoll_r+0x154>
20005622:	f010 0f01 	tst.w	r0, #1
20005626:	bf14      	ite	ne
20005628:	2137      	movne	r1, #55	; 0x37
2000562a:	2157      	moveq	r1, #87	; 0x57
2000562c:	1a61      	subs	r1, r4, r1
2000562e:	ea83 0b09 	eor.w	fp, r3, r9
20005632:	ea82 0a08 	eor.w	sl, r2, r8
20005636:	e9cd ab02 	strd	sl, fp, [sp, #8]
2000563a:	f8dd b000 	ldr.w	fp, [sp]
2000563e:	458b      	cmp	fp, r1
20005640:	dd30      	ble.n	200056a4 <_strtoll_r+0x154>
20005642:	4590      	cmp	r8, r2
20005644:	eb79 0003 	sbcs.w	r0, r9, r3
20005648:	bf2c      	ite	cs
2000564a:	2000      	movcs	r0, #0
2000564c:	2001      	movcc	r0, #1
2000564e:	ea50 77d7 	orrs.w	r7, r0, r7, lsr #31
20005652:	f04f 37ff 	mov.w	r7, #4294967295
20005656:	d122      	bne.n	2000569e <_strtoll_r+0x14e>
20005658:	e9dd ab02 	ldrd	sl, fp, [sp, #8]
2000565c:	9805      	ldr	r0, [sp, #20]
2000565e:	9c04      	ldr	r4, [sp, #16]
20005660:	ea5a 0b0b 	orrs.w	fp, sl, fp
20005664:	f8dd a004 	ldr.w	sl, [sp, #4]
20005668:	fb02 fc00 	mul.w	ip, r2, r0
2000566c:	bf14      	ite	ne
2000566e:	2000      	movne	r0, #0
20005670:	2001      	moveq	r0, #1
20005672:	4551      	cmp	r1, sl
20005674:	bfd4      	ite	le
20005676:	2000      	movle	r0, #0
20005678:	f000 0001 	andgt.w	r0, r0, #1
2000567c:	fba2 ab04 	umull	sl, fp, r2, r4
20005680:	fb04 cc03 	mla	ip, r4, r3, ip
20005684:	e9cd ab02 	strd	sl, fp, [sp, #8]
20005688:	b948      	cbnz	r0, 2000569e <_strtoll_r+0x14e>
2000568a:	44e3      	add	fp, ip
2000568c:	f8cd b00c 	str.w	fp, [sp, #12]
20005690:	e9dd ab02 	ldrd	sl, fp, [sp, #8]
20005694:	2701      	movs	r7, #1
20005696:	eb1a 0201 	adds.w	r2, sl, r1
2000569a:	eb4b 73e1 	adc.w	r3, fp, r1, asr #31
2000569e:	f815 4b01 	ldrb.w	r4, [r5], #1
200056a2:	e7b4      	b.n	2000560e <_strtoll_r+0xbe>
200056a4:	f1b7 3fff 	cmp.w	r7, #4294967295
200056a8:	9807      	ldr	r0, [sp, #28]
200056aa:	d017      	beq.n	200056dc <_strtoll_r+0x18c>
200056ac:	b968      	cbnz	r0, 200056ca <_strtoll_r+0x17a>
200056ae:	9908      	ldr	r1, [sp, #32]
200056b0:	b119      	cbz	r1, 200056ba <_strtoll_r+0x16a>
200056b2:	b93f      	cbnz	r7, 200056c4 <_strtoll_r+0x174>
200056b4:	9806      	ldr	r0, [sp, #24]
200056b6:	9c08      	ldr	r4, [sp, #32]
200056b8:	6020      	str	r0, [r4, #0]
200056ba:	4619      	mov	r1, r3
200056bc:	4610      	mov	r0, r2
200056be:	b00b      	add	sp, #44	; 0x2c
200056c0:	e8bd 8ff0 	ldmia.w	sp!, {r4, r5, r6, r7, r8, r9, sl, fp, pc}
200056c4:	3d01      	subs	r5, #1
200056c6:	9506      	str	r5, [sp, #24]
200056c8:	e7f4      	b.n	200056b4 <_strtoll_r+0x164>
200056ca:	4252      	negs	r2, r2
200056cc:	eb63 0343 	sbc.w	r3, r3, r3, lsl #1
200056d0:	e7ed      	b.n	200056ae <_strtoll_r+0x15e>
200056d2:	f815 4b01 	ldrb.w	r4, [r5], #1
200056d6:	2001      	movs	r0, #1
200056d8:	9007      	str	r0, [sp, #28]
200056da:	e755      	b.n	20005588 <_strtoll_r+0x38>
200056dc:	b9e8      	cbnz	r0, 2000571a <_strtoll_r+0x1ca>
200056de:	f04f 32ff 	mov.w	r2, #4294967295
200056e2:	f06f 4300 	mvn.w	r3, #2147483648	; 0x80000000
200056e6:	9c09      	ldr	r4, [sp, #36]	; 0x24
200056e8:	2122      	movs	r1, #34	; 0x22
200056ea:	6021      	str	r1, [r4, #0]
200056ec:	e7df      	b.n	200056ae <_strtoll_r+0x15e>
200056ee:	782a      	ldrb	r2, [r5, #0]
200056f0:	2a78      	cmp	r2, #120	; 0x78
200056f2:	bf14      	ite	ne
200056f4:	2100      	movne	r1, #0
200056f6:	2101      	moveq	r1, #1
200056f8:	2a58      	cmp	r2, #88	; 0x58
200056fa:	bf14      	ite	ne
200056fc:	460a      	movne	r2, r1
200056fe:	f041 0201 	orreq.w	r2, r1, #1
20005702:	2a00      	cmp	r2, #0
20005704:	f43f af4e 	beq.w	200055a4 <_strtoll_r+0x54>
20005708:	786c      	ldrb	r4, [r5, #1]
2000570a:	2210      	movs	r2, #16
2000570c:	2300      	movs	r3, #0
2000570e:	3502      	adds	r5, #2
20005710:	e9cd 2304 	strd	r2, r3, [sp, #16]
20005714:	f04f 0a10 	mov.w	sl, #16
20005718:	e75c      	b.n	200055d4 <_strtoll_r+0x84>
2000571a:	2200      	movs	r2, #0
2000571c:	f04f 4300 	mov.w	r3, #2147483648	; 0x80000000
20005720:	e7e1      	b.n	200056e6 <_strtoll_r+0x196>
20005722:	f04f 0a08 	mov.w	sl, #8
20005726:	f04f 0b00 	mov.w	fp, #0
2000572a:	e9cd ab04 	strd	sl, fp, [sp, #16]
2000572e:	f04f 0a08 	mov.w	sl, #8
20005732:	e74f      	b.n	200055d4 <_strtoll_r+0x84>
20005734:	4650      	mov	r0, sl
20005736:	ea4f 71e0 	mov.w	r1, r0, asr #31
2000573a:	e9cd 0104 	strd	r0, r1, [sp, #16]
2000573e:	e749      	b.n	200055d4 <_strtoll_r+0x84>

20005740 <_strtoul_r>:
20005740:	e92d 4ff0 	stmdb	sp!, {r4, r5, r6, r7, r8, r9, sl, fp, lr}
20005744:	f24b 1604 	movw	r6, #45316	; 0xb104
20005748:	f2c2 0600 	movt	r6, #8192	; 0x2000
2000574c:	b083      	sub	sp, #12
2000574e:	460c      	mov	r4, r1
20005750:	4615      	mov	r5, r2
20005752:	f8d6 a000 	ldr.w	sl, [r6]
20005756:	4698      	mov	r8, r3
20005758:	460f      	mov	r7, r1
2000575a:	9001      	str	r0, [sp, #4]
2000575c:	f817 6b01 	ldrb.w	r6, [r7], #1
20005760:	eb0a 0306 	add.w	r3, sl, r6
20005764:	f893 b001 	ldrb.w	fp, [r3, #1]
20005768:	f01b 0b08 	ands.w	fp, fp, #8
2000576c:	d1f6      	bne.n	2000575c <_strtoul_r+0x1c>
2000576e:	2e2d      	cmp	r6, #45	; 0x2d
20005770:	d06c      	beq.n	2000584c <_strtoul_r+0x10c>
20005772:	2e2b      	cmp	r6, #43	; 0x2b
20005774:	bf08      	it	eq
20005776:	f817 6b01 	ldrbeq.w	r6, [r7], #1
2000577a:	f1d8 0301 	rsbs	r3, r8, #1
2000577e:	bf38      	it	cc
20005780:	2300      	movcc	r3, #0
20005782:	f1b8 0f10 	cmp.w	r8, #16
20005786:	bf14      	ite	ne
20005788:	461a      	movne	r2, r3
2000578a:	f043 0201 	orreq.w	r2, r3, #1
2000578e:	b172      	cbz	r2, 200057ae <_strtoul_r+0x6e>
20005790:	2e30      	cmp	r6, #48	; 0x30
20005792:	d060      	beq.n	20005856 <_strtoul_r+0x116>
20005794:	b15b      	cbz	r3, 200057ae <_strtoul_r+0x6e>
20005796:	2e30      	cmp	r6, #48	; 0x30
20005798:	bf0c      	ite	eq
2000579a:	f04f 0808 	moveq.w	r8, #8
2000579e:	f04f 080a 	movne.w	r8, #10
200057a2:	bf0c      	ite	eq
200057a4:	f04f 0907 	moveq.w	r9, #7
200057a8:	f04f 0905 	movne.w	r9, #5
200057ac:	e005      	b.n	200057ba <_strtoul_r+0x7a>
200057ae:	f04f 30ff 	mov.w	r0, #4294967295
200057b2:	4641      	mov	r1, r8
200057b4:	f003 ff1e 	bl	200095f4 <__aeabi_uidivmod>
200057b8:	4689      	mov	r9, r1
200057ba:	4641      	mov	r1, r8
200057bc:	f04f 30ff 	mov.w	r0, #4294967295
200057c0:	f003 fdea 	bl	20009398 <__aeabi_uidiv>
200057c4:	2100      	movs	r1, #0
200057c6:	4684      	mov	ip, r0
200057c8:	4608      	mov	r0, r1
200057ca:	eb0a 0206 	add.w	r2, sl, r6
200057ce:	f1a6 0330 	sub.w	r3, r6, #48	; 0x30
200057d2:	7852      	ldrb	r2, [r2, #1]
200057d4:	f012 0f04 	tst.w	r2, #4
200057d8:	d108      	bne.n	200057ec <_strtoul_r+0xac>
200057da:	f012 0f03 	tst.w	r2, #3
200057de:	d020      	beq.n	20005822 <_strtoul_r+0xe2>
200057e0:	f012 0f01 	tst.w	r2, #1
200057e4:	bf14      	ite	ne
200057e6:	2337      	movne	r3, #55	; 0x37
200057e8:	2357      	moveq	r3, #87	; 0x57
200057ea:	1af3      	subs	r3, r6, r3
200057ec:	4598      	cmp	r8, r3
200057ee:	dd18      	ble.n	20005822 <_strtoul_r+0xe2>
200057f0:	4560      	cmp	r0, ip
200057f2:	bf94      	ite	ls
200057f4:	2200      	movls	r2, #0
200057f6:	2201      	movhi	r2, #1
200057f8:	ea52 71d1 	orrs.w	r1, r2, r1, lsr #31
200057fc:	f04f 31ff 	mov.w	r1, #4294967295
20005800:	d10c      	bne.n	2000581c <_strtoul_r+0xdc>
20005802:	4560      	cmp	r0, ip
20005804:	bf14      	ite	ne
20005806:	2200      	movne	r2, #0
20005808:	2201      	moveq	r2, #1
2000580a:	454b      	cmp	r3, r9
2000580c:	bfd4      	ite	le
2000580e:	2200      	movle	r2, #0
20005810:	f002 0201 	andgt.w	r2, r2, #1
20005814:	b912      	cbnz	r2, 2000581c <_strtoul_r+0xdc>
20005816:	fb08 3000 	mla	r0, r8, r0, r3
2000581a:	2101      	movs	r1, #1
2000581c:	f817 6b01 	ldrb.w	r6, [r7], #1
20005820:	e7d3      	b.n	200057ca <_strtoul_r+0x8a>
20005822:	f1b1 3fff 	cmp.w	r1, #4294967295
20005826:	d00c      	beq.n	20005842 <_strtoul_r+0x102>
20005828:	f1bb 0f00 	cmp.w	fp, #0
2000582c:	d107      	bne.n	2000583e <_strtoul_r+0xfe>
2000582e:	b10d      	cbz	r5, 20005834 <_strtoul_r+0xf4>
20005830:	b919      	cbnz	r1, 2000583a <_strtoul_r+0xfa>
20005832:	602c      	str	r4, [r5, #0]
20005834:	b003      	add	sp, #12
20005836:	e8bd 8ff0 	ldmia.w	sp!, {r4, r5, r6, r7, r8, r9, sl, fp, pc}
2000583a:	1e7c      	subs	r4, r7, #1
2000583c:	e7f9      	b.n	20005832 <_strtoul_r+0xf2>
2000583e:	4240      	negs	r0, r0
20005840:	e7f5      	b.n	2000582e <_strtoul_r+0xee>
20005842:	9a01      	ldr	r2, [sp, #4]
20005844:	2322      	movs	r3, #34	; 0x22
20005846:	4608      	mov	r0, r1
20005848:	6013      	str	r3, [r2, #0]
2000584a:	e7f0      	b.n	2000582e <_strtoul_r+0xee>
2000584c:	f817 6b01 	ldrb.w	r6, [r7], #1
20005850:	f04f 0b01 	mov.w	fp, #1
20005854:	e791      	b.n	2000577a <_strtoul_r+0x3a>
20005856:	783a      	ldrb	r2, [r7, #0]
20005858:	2a78      	cmp	r2, #120	; 0x78
2000585a:	bf14      	ite	ne
2000585c:	2100      	movne	r1, #0
2000585e:	2101      	moveq	r1, #1
20005860:	2a58      	cmp	r2, #88	; 0x58
20005862:	bf14      	ite	ne
20005864:	460a      	movne	r2, r1
20005866:	f041 0201 	orreq.w	r2, r1, #1
2000586a:	2a00      	cmp	r2, #0
2000586c:	d092      	beq.n	20005794 <_strtoul_r+0x54>
2000586e:	787e      	ldrb	r6, [r7, #1]
20005870:	f04f 090f 	mov.w	r9, #15
20005874:	3702      	adds	r7, #2
20005876:	f04f 0810 	mov.w	r8, #16
2000587a:	e79e      	b.n	200057ba <_strtoul_r+0x7a>

2000587c <strtoul>:
2000587c:	b410      	push	{r4}
2000587e:	f64a 34fc 	movw	r4, #44028	; 0xabfc
20005882:	f2c2 0400 	movt	r4, #8192	; 0x2000
20005886:	468c      	mov	ip, r1
20005888:	4613      	mov	r3, r2
2000588a:	4601      	mov	r1, r0
2000588c:	4662      	mov	r2, ip
2000588e:	6820      	ldr	r0, [r4, #0]
20005890:	bc10      	pop	{r4}
20005892:	e755      	b.n	20005740 <_strtoul_r>

20005894 <_strtoull_r>:
20005894:	e92d 4ff0 	stmdb	sp!, {r4, r5, r6, r7, r8, r9, sl, fp, lr}
20005898:	f24b 1404 	movw	r4, #45316	; 0xb104
2000589c:	f2c2 0400 	movt	r4, #8192	; 0x2000
200058a0:	b08b      	sub	sp, #44	; 0x2c
200058a2:	469a      	mov	sl, r3
200058a4:	460d      	mov	r5, r1
200058a6:	6826      	ldr	r6, [r4, #0]
200058a8:	9106      	str	r1, [sp, #24]
200058aa:	9009      	str	r0, [sp, #36]	; 0x24
200058ac:	9207      	str	r2, [sp, #28]
200058ae:	f815 4b01 	ldrb.w	r4, [r5], #1
200058b2:	1933      	adds	r3, r6, r4
200058b4:	785b      	ldrb	r3, [r3, #1]
200058b6:	f013 0308 	ands.w	r3, r3, #8
200058ba:	d1f8      	bne.n	200058ae <_strtoull_r+0x1a>
200058bc:	2c2d      	cmp	r4, #45	; 0x2d
200058be:	f000 80a9 	beq.w	20005a14 <_strtoull_r+0x180>
200058c2:	2c2b      	cmp	r4, #43	; 0x2b
200058c4:	bf08      	it	eq
200058c6:	f815 4b01 	ldrbeq.w	r4, [r5], #1
200058ca:	9308      	str	r3, [sp, #32]
200058cc:	f1da 0301 	rsbs	r3, sl, #1
200058d0:	bf38      	it	cc
200058d2:	2300      	movcc	r3, #0
200058d4:	f1ba 0f10 	cmp.w	sl, #16
200058d8:	bf14      	ite	ne
200058da:	461a      	movne	r2, r3
200058dc:	f043 0201 	orreq.w	r2, r3, #1
200058e0:	b18a      	cbz	r2, 20005906 <_strtoull_r+0x72>
200058e2:	2c30      	cmp	r4, #48	; 0x30
200058e4:	f000 809b 	beq.w	20005a1e <_strtoull_r+0x18a>
200058e8:	2b00      	cmp	r3, #0
200058ea:	f000 80b9 	beq.w	20005a60 <_strtoull_r+0x1cc>
200058ee:	2c30      	cmp	r4, #48	; 0x30
200058f0:	f000 80ad 	beq.w	20005a4e <_strtoull_r+0x1ba>
200058f4:	220a      	movs	r2, #10
200058f6:	2300      	movs	r3, #0
200058f8:	f04f 0b05 	mov.w	fp, #5
200058fc:	e9cd 2304 	strd	r2, r3, [sp, #16]
20005900:	f04f 0a0a 	mov.w	sl, #10
20005904:	e00b      	b.n	2000591e <_strtoull_r+0x8a>
20005906:	4652      	mov	r2, sl
20005908:	ea4f 73e2 	mov.w	r3, r2, asr #31
2000590c:	f04f 30ff 	mov.w	r0, #4294967295
20005910:	f04f 31ff 	mov.w	r1, #4294967295
20005914:	e9cd 2304 	strd	r2, r3, [sp, #16]
20005918:	f004 fbdc 	bl	2000a0d4 <__aeabi_uldivmod>
2000591c:	4693      	mov	fp, r2
2000591e:	e9dd 2304 	ldrd	r2, r3, [sp, #16]
20005922:	f04f 30ff 	mov.w	r0, #4294967295
20005926:	f04f 31ff 	mov.w	r1, #4294967295
2000592a:	2700      	movs	r7, #0
2000592c:	f004 fbd2 	bl	2000a0d4 <__aeabi_uldivmod>
20005930:	2200      	movs	r2, #0
20005932:	2300      	movs	r3, #0
20005934:	f8cd b004 	str.w	fp, [sp, #4]
20005938:	f8cd a000 	str.w	sl, [sp]
2000593c:	4680      	mov	r8, r0
2000593e:	4689      	mov	r9, r1
20005940:	1930      	adds	r0, r6, r4
20005942:	f1a4 0130 	sub.w	r1, r4, #48	; 0x30
20005946:	7840      	ldrb	r0, [r0, #1]
20005948:	f010 0f04 	tst.w	r0, #4
2000594c:	d108      	bne.n	20005960 <_strtoull_r+0xcc>
2000594e:	f010 0f03 	tst.w	r0, #3
20005952:	d040      	beq.n	200059d6 <_strtoull_r+0x142>
20005954:	f010 0f01 	tst.w	r0, #1
20005958:	bf14      	ite	ne
2000595a:	2137      	movne	r1, #55	; 0x37
2000595c:	2157      	moveq	r1, #87	; 0x57
2000595e:	1a61      	subs	r1, r4, r1
20005960:	ea83 0b09 	eor.w	fp, r3, r9
20005964:	ea82 0a08 	eor.w	sl, r2, r8
20005968:	e9cd ab02 	strd	sl, fp, [sp, #8]
2000596c:	f8dd b000 	ldr.w	fp, [sp]
20005970:	458b      	cmp	fp, r1
20005972:	dd30      	ble.n	200059d6 <_strtoull_r+0x142>
20005974:	4590      	cmp	r8, r2
20005976:	eb79 0003 	sbcs.w	r0, r9, r3
2000597a:	bf2c      	ite	cs
2000597c:	2000      	movcs	r0, #0
2000597e:	2001      	movcc	r0, #1
20005980:	ea50 77d7 	orrs.w	r7, r0, r7, lsr #31
20005984:	f04f 37ff 	mov.w	r7, #4294967295
20005988:	d122      	bne.n	200059d0 <_strtoull_r+0x13c>
2000598a:	e9dd ab02 	ldrd	sl, fp, [sp, #8]
2000598e:	9805      	ldr	r0, [sp, #20]
20005990:	9c04      	ldr	r4, [sp, #16]
20005992:	ea5a 0b0b 	orrs.w	fp, sl, fp
20005996:	f8dd a004 	ldr.w	sl, [sp, #4]
2000599a:	fb02 fc00 	mul.w	ip, r2, r0
2000599e:	bf14      	ite	ne
200059a0:	2000      	movne	r0, #0
200059a2:	2001      	moveq	r0, #1
200059a4:	4551      	cmp	r1, sl
200059a6:	bfd4      	ite	le
200059a8:	2000      	movle	r0, #0
200059aa:	f000 0001 	andgt.w	r0, r0, #1
200059ae:	fba2 ab04 	umull	sl, fp, r2, r4
200059b2:	fb04 cc03 	mla	ip, r4, r3, ip
200059b6:	e9cd ab02 	strd	sl, fp, [sp, #8]
200059ba:	b948      	cbnz	r0, 200059d0 <_strtoull_r+0x13c>
200059bc:	44e3      	add	fp, ip
200059be:	f8cd b00c 	str.w	fp, [sp, #12]
200059c2:	e9dd ab02 	ldrd	sl, fp, [sp, #8]
200059c6:	2701      	movs	r7, #1
200059c8:	eb1a 0201 	adds.w	r2, sl, r1
200059cc:	eb4b 73e1 	adc.w	r3, fp, r1, asr #31
200059d0:	f815 4b01 	ldrb.w	r4, [r5], #1
200059d4:	e7b4      	b.n	20005940 <_strtoull_r+0xac>
200059d6:	f1b7 3fff 	cmp.w	r7, #4294967295
200059da:	d013      	beq.n	20005a04 <_strtoull_r+0x170>
200059dc:	9908      	ldr	r1, [sp, #32]
200059de:	b969      	cbnz	r1, 200059fc <_strtoull_r+0x168>
200059e0:	9c07      	ldr	r4, [sp, #28]
200059e2:	b11c      	cbz	r4, 200059ec <_strtoull_r+0x158>
200059e4:	b93f      	cbnz	r7, 200059f6 <_strtoull_r+0x162>
200059e6:	9906      	ldr	r1, [sp, #24]
200059e8:	9807      	ldr	r0, [sp, #28]
200059ea:	6001      	str	r1, [r0, #0]
200059ec:	4619      	mov	r1, r3
200059ee:	4610      	mov	r0, r2
200059f0:	b00b      	add	sp, #44	; 0x2c
200059f2:	e8bd 8ff0 	ldmia.w	sp!, {r4, r5, r6, r7, r8, r9, sl, fp, pc}
200059f6:	3d01      	subs	r5, #1
200059f8:	9506      	str	r5, [sp, #24]
200059fa:	e7f4      	b.n	200059e6 <_strtoull_r+0x152>
200059fc:	4252      	negs	r2, r2
200059fe:	eb63 0343 	sbc.w	r3, r3, r3, lsl #1
20005a02:	e7ed      	b.n	200059e0 <_strtoull_r+0x14c>
20005a04:	9809      	ldr	r0, [sp, #36]	; 0x24
20005a06:	2322      	movs	r3, #34	; 0x22
20005a08:	f04f 32ff 	mov.w	r2, #4294967295
20005a0c:	6003      	str	r3, [r0, #0]
20005a0e:	f04f 33ff 	mov.w	r3, #4294967295
20005a12:	e7e5      	b.n	200059e0 <_strtoull_r+0x14c>
20005a14:	f815 4b01 	ldrb.w	r4, [r5], #1
20005a18:	2001      	movs	r0, #1
20005a1a:	9008      	str	r0, [sp, #32]
20005a1c:	e756      	b.n	200058cc <_strtoull_r+0x38>
20005a1e:	782a      	ldrb	r2, [r5, #0]
20005a20:	2a78      	cmp	r2, #120	; 0x78
20005a22:	bf14      	ite	ne
20005a24:	2100      	movne	r1, #0
20005a26:	2101      	moveq	r1, #1
20005a28:	2a58      	cmp	r2, #88	; 0x58
20005a2a:	bf14      	ite	ne
20005a2c:	460a      	movne	r2, r1
20005a2e:	f041 0201 	orreq.w	r2, r1, #1
20005a32:	2a00      	cmp	r2, #0
20005a34:	f43f af58 	beq.w	200058e8 <_strtoull_r+0x54>
20005a38:	786c      	ldrb	r4, [r5, #1]
20005a3a:	2210      	movs	r2, #16
20005a3c:	2300      	movs	r3, #0
20005a3e:	3502      	adds	r5, #2
20005a40:	f04f 0b0f 	mov.w	fp, #15
20005a44:	e9cd 2304 	strd	r2, r3, [sp, #16]
20005a48:	f04f 0a10 	mov.w	sl, #16
20005a4c:	e767      	b.n	2000591e <_strtoull_r+0x8a>
20005a4e:	2008      	movs	r0, #8
20005a50:	2100      	movs	r1, #0
20005a52:	f04f 0b07 	mov.w	fp, #7
20005a56:	e9cd 0104 	strd	r0, r1, [sp, #16]
20005a5a:	f04f 0a08 	mov.w	sl, #8
20005a5e:	e75e      	b.n	2000591e <_strtoull_r+0x8a>
20005a60:	4650      	mov	r0, sl
20005a62:	ea4f 71e0 	mov.w	r1, r0, asr #31
20005a66:	e9cd 0104 	strd	r0, r1, [sp, #16]
20005a6a:	e9dd 2304 	ldrd	r2, r3, [sp, #16]
20005a6e:	f04f 30ff 	mov.w	r0, #4294967295
20005a72:	f04f 31ff 	mov.w	r1, #4294967295
20005a76:	f004 fb2d 	bl	2000a0d4 <__aeabi_uldivmod>
20005a7a:	4693      	mov	fp, r2
20005a7c:	e74f      	b.n	2000591e <_strtoull_r+0x8a>
20005a7e:	bf00      	nop

20005a80 <__sprint_r>:
20005a80:	e92d 4ff0 	stmdb	sp!, {r4, r5, r6, r7, r8, r9, sl, fp, lr}
20005a84:	b085      	sub	sp, #20
20005a86:	4692      	mov	sl, r2
20005a88:	460c      	mov	r4, r1
20005a8a:	9003      	str	r0, [sp, #12]
20005a8c:	6890      	ldr	r0, [r2, #8]
20005a8e:	6817      	ldr	r7, [r2, #0]
20005a90:	2800      	cmp	r0, #0
20005a92:	f000 8081 	beq.w	20005b98 <__sprint_r+0x118>
20005a96:	f04f 0900 	mov.w	r9, #0
20005a9a:	680b      	ldr	r3, [r1, #0]
20005a9c:	464d      	mov	r5, r9
20005a9e:	2d00      	cmp	r5, #0
20005aa0:	d054      	beq.n	20005b4c <__sprint_r+0xcc>
20005aa2:	68a6      	ldr	r6, [r4, #8]
20005aa4:	42b5      	cmp	r5, r6
20005aa6:	46b0      	mov	r8, r6
20005aa8:	bf3e      	ittt	cc
20005aaa:	4618      	movcc	r0, r3
20005aac:	462e      	movcc	r6, r5
20005aae:	46a8      	movcc	r8, r5
20005ab0:	d33c      	bcc.n	20005b2c <__sprint_r+0xac>
20005ab2:	89a0      	ldrh	r0, [r4, #12]
20005ab4:	f410 6f90 	tst.w	r0, #1152	; 0x480
20005ab8:	bf08      	it	eq
20005aba:	4618      	moveq	r0, r3
20005abc:	d036      	beq.n	20005b2c <__sprint_r+0xac>
20005abe:	6962      	ldr	r2, [r4, #20]
20005ac0:	6921      	ldr	r1, [r4, #16]
20005ac2:	eb02 0b42 	add.w	fp, r2, r2, lsl #1
20005ac6:	1a5b      	subs	r3, r3, r1
20005ac8:	f103 0c01 	add.w	ip, r3, #1
20005acc:	eb0b 7bdb 	add.w	fp, fp, fp, lsr #31
20005ad0:	44ac      	add	ip, r5
20005ad2:	ea4f 0b6b 	mov.w	fp, fp, asr #1
20005ad6:	45e3      	cmp	fp, ip
20005ad8:	465a      	mov	r2, fp
20005ada:	bf3c      	itt	cc
20005adc:	46e3      	movcc	fp, ip
20005ade:	465a      	movcc	r2, fp
20005ae0:	f410 6f80 	tst.w	r0, #1024	; 0x400
20005ae4:	d037      	beq.n	20005b56 <__sprint_r+0xd6>
20005ae6:	4611      	mov	r1, r2
20005ae8:	9803      	ldr	r0, [sp, #12]
20005aea:	9301      	str	r3, [sp, #4]
20005aec:	f7fb fe94 	bl	20001818 <_malloc_r>
20005af0:	9b01      	ldr	r3, [sp, #4]
20005af2:	2800      	cmp	r0, #0
20005af4:	d03b      	beq.n	20005b6e <__sprint_r+0xee>
20005af6:	461a      	mov	r2, r3
20005af8:	6921      	ldr	r1, [r4, #16]
20005afa:	9301      	str	r3, [sp, #4]
20005afc:	9002      	str	r0, [sp, #8]
20005afe:	f7fd ff97 	bl	20003a30 <memcpy>
20005b02:	89a2      	ldrh	r2, [r4, #12]
20005b04:	9b01      	ldr	r3, [sp, #4]
20005b06:	f8dd c008 	ldr.w	ip, [sp, #8]
20005b0a:	f422 6290 	bic.w	r2, r2, #1152	; 0x480
20005b0e:	f042 0280 	orr.w	r2, r2, #128	; 0x80
20005b12:	81a2      	strh	r2, [r4, #12]
20005b14:	462e      	mov	r6, r5
20005b16:	46a8      	mov	r8, r5
20005b18:	ebc3 020b 	rsb	r2, r3, fp
20005b1c:	eb0c 0003 	add.w	r0, ip, r3
20005b20:	60a2      	str	r2, [r4, #8]
20005b22:	f8c4 c010 	str.w	ip, [r4, #16]
20005b26:	6020      	str	r0, [r4, #0]
20005b28:	f8c4 b014 	str.w	fp, [r4, #20]
20005b2c:	4642      	mov	r2, r8
20005b2e:	4649      	mov	r1, r9
20005b30:	f002 fed2 	bl	200088d8 <memmove>
20005b34:	68a2      	ldr	r2, [r4, #8]
20005b36:	6823      	ldr	r3, [r4, #0]
20005b38:	1b96      	subs	r6, r2, r6
20005b3a:	60a6      	str	r6, [r4, #8]
20005b3c:	f8da 2008 	ldr.w	r2, [sl, #8]
20005b40:	4443      	add	r3, r8
20005b42:	6023      	str	r3, [r4, #0]
20005b44:	1b55      	subs	r5, r2, r5
20005b46:	f8ca 5008 	str.w	r5, [sl, #8]
20005b4a:	b1fd      	cbz	r5, 20005b8c <__sprint_r+0x10c>
20005b4c:	f8d7 9000 	ldr.w	r9, [r7]
20005b50:	687d      	ldr	r5, [r7, #4]
20005b52:	3708      	adds	r7, #8
20005b54:	e7a3      	b.n	20005a9e <__sprint_r+0x1e>
20005b56:	9803      	ldr	r0, [sp, #12]
20005b58:	9301      	str	r3, [sp, #4]
20005b5a:	f7fe f89b 	bl	20003c94 <_realloc_r>
20005b5e:	9b01      	ldr	r3, [sp, #4]
20005b60:	4684      	mov	ip, r0
20005b62:	2800      	cmp	r0, #0
20005b64:	d1d6      	bne.n	20005b14 <__sprint_r+0x94>
20005b66:	9803      	ldr	r0, [sp, #12]
20005b68:	6921      	ldr	r1, [r4, #16]
20005b6a:	f7fd fd9f 	bl	200036ac <_free_r>
20005b6e:	9a03      	ldr	r2, [sp, #12]
20005b70:	230c      	movs	r3, #12
20005b72:	f04f 30ff 	mov.w	r0, #4294967295
20005b76:	6013      	str	r3, [r2, #0]
20005b78:	2300      	movs	r3, #0
20005b7a:	89a2      	ldrh	r2, [r4, #12]
20005b7c:	f8ca 3004 	str.w	r3, [sl, #4]
20005b80:	f042 0240 	orr.w	r2, r2, #64	; 0x40
20005b84:	f8ca 3008 	str.w	r3, [sl, #8]
20005b88:	81a2      	strh	r2, [r4, #12]
20005b8a:	e002      	b.n	20005b92 <__sprint_r+0x112>
20005b8c:	4628      	mov	r0, r5
20005b8e:	f8ca 5004 	str.w	r5, [sl, #4]
20005b92:	b005      	add	sp, #20
20005b94:	e8bd 8ff0 	ldmia.w	sp!, {r4, r5, r6, r7, r8, r9, sl, fp, pc}
20005b98:	6050      	str	r0, [r2, #4]
20005b9a:	e7fa      	b.n	20005b92 <__sprint_r+0x112>

20005b9c <_svfprintf_r>:
20005b9c:	e92d 4ff0 	stmdb	sp!, {r4, r5, r6, r7, r8, r9, sl, fp, lr}
20005ba0:	b0c5      	sub	sp, #276	; 0x114
20005ba2:	460e      	mov	r6, r1
20005ba4:	469a      	mov	sl, r3
20005ba6:	4615      	mov	r5, r2
20005ba8:	9009      	str	r0, [sp, #36]	; 0x24
20005baa:	f7fd fec3 	bl	20003934 <_localeconv_r>
20005bae:	89b3      	ldrh	r3, [r6, #12]
20005bb0:	f013 0f80 	tst.w	r3, #128	; 0x80
20005bb4:	6800      	ldr	r0, [r0, #0]
20005bb6:	901b      	str	r0, [sp, #108]	; 0x6c
20005bb8:	d003      	beq.n	20005bc2 <_svfprintf_r+0x26>
20005bba:	6933      	ldr	r3, [r6, #16]
20005bbc:	2b00      	cmp	r3, #0
20005bbe:	f001 808c 	beq.w	20006cda <_svfprintf_r+0x113e>
20005bc2:	f10d 0974 	add.w	r9, sp, #116	; 0x74
20005bc6:	46b3      	mov	fp, r6
20005bc8:	464c      	mov	r4, r9
20005bca:	2200      	movs	r2, #0
20005bcc:	9210      	str	r2, [sp, #64]	; 0x40
20005bce:	2300      	movs	r3, #0
20005bd0:	9218      	str	r2, [sp, #96]	; 0x60
20005bd2:	9217      	str	r2, [sp, #92]	; 0x5c
20005bd4:	921a      	str	r2, [sp, #104]	; 0x68
20005bd6:	920d      	str	r2, [sp, #52]	; 0x34
20005bd8:	aa2d      	add	r2, sp, #180	; 0xb4
20005bda:	9319      	str	r3, [sp, #100]	; 0x64
20005bdc:	3228      	adds	r2, #40	; 0x28
20005bde:	f10d 03f7 	add.w	r3, sp, #247	; 0xf7
20005be2:	9216      	str	r2, [sp, #88]	; 0x58
20005be4:	9307      	str	r3, [sp, #28]
20005be6:	2300      	movs	r3, #0
20005be8:	f8cd 90dc 	str.w	r9, [sp, #220]	; 0xdc
20005bec:	9338      	str	r3, [sp, #224]	; 0xe0
20005bee:	9339      	str	r3, [sp, #228]	; 0xe4
20005bf0:	782b      	ldrb	r3, [r5, #0]
20005bf2:	f1b3 0225 	subs.w	r2, r3, #37	; 0x25
20005bf6:	bf18      	it	ne
20005bf8:	2201      	movne	r2, #1
20005bfa:	2b00      	cmp	r3, #0
20005bfc:	bf0c      	ite	eq
20005bfe:	2200      	moveq	r2, #0
20005c00:	f002 0201 	andne.w	r2, r2, #1
20005c04:	b302      	cbz	r2, 20005c48 <_svfprintf_r+0xac>
20005c06:	462e      	mov	r6, r5
20005c08:	f816 3f01 	ldrb.w	r3, [r6, #1]!
20005c0c:	1e1a      	subs	r2, r3, #0
20005c0e:	bf18      	it	ne
20005c10:	2201      	movne	r2, #1
20005c12:	2b25      	cmp	r3, #37	; 0x25
20005c14:	bf0c      	ite	eq
20005c16:	2200      	moveq	r2, #0
20005c18:	f002 0201 	andne.w	r2, r2, #1
20005c1c:	2a00      	cmp	r2, #0
20005c1e:	d1f3      	bne.n	20005c08 <_svfprintf_r+0x6c>
20005c20:	1b77      	subs	r7, r6, r5
20005c22:	bf08      	it	eq
20005c24:	4635      	moveq	r5, r6
20005c26:	d00f      	beq.n	20005c48 <_svfprintf_r+0xac>
20005c28:	6067      	str	r7, [r4, #4]
20005c2a:	9b38      	ldr	r3, [sp, #224]	; 0xe0
20005c2c:	9a39      	ldr	r2, [sp, #228]	; 0xe4
20005c2e:	3301      	adds	r3, #1
20005c30:	6025      	str	r5, [r4, #0]
20005c32:	19d2      	adds	r2, r2, r7
20005c34:	2b07      	cmp	r3, #7
20005c36:	9239      	str	r2, [sp, #228]	; 0xe4
20005c38:	9338      	str	r3, [sp, #224]	; 0xe0
20005c3a:	dc79      	bgt.n	20005d30 <_svfprintf_r+0x194>
20005c3c:	3408      	adds	r4, #8
20005c3e:	980d      	ldr	r0, [sp, #52]	; 0x34
20005c40:	4635      	mov	r5, r6
20005c42:	19c0      	adds	r0, r0, r7
20005c44:	900d      	str	r0, [sp, #52]	; 0x34
20005c46:	7833      	ldrb	r3, [r6, #0]
20005c48:	2b00      	cmp	r3, #0
20005c4a:	f000 8737 	beq.w	20006abc <_svfprintf_r+0xf20>
20005c4e:	2100      	movs	r1, #0
20005c50:	f04f 0200 	mov.w	r2, #0
20005c54:	f8cd a028 	str.w	sl, [sp, #40]	; 0x28
20005c58:	1c6b      	adds	r3, r5, #1
20005c5a:	910c      	str	r1, [sp, #48]	; 0x30
20005c5c:	f04f 38ff 	mov.w	r8, #4294967295
20005c60:	f88d 210f 	strb.w	r2, [sp, #271]	; 0x10f
20005c64:	468a      	mov	sl, r1
20005c66:	786a      	ldrb	r2, [r5, #1]
20005c68:	202b      	movs	r0, #43	; 0x2b
20005c6a:	f04f 0c20 	mov.w	ip, #32
20005c6e:	1c5d      	adds	r5, r3, #1
20005c70:	f1a2 0320 	sub.w	r3, r2, #32
20005c74:	2b58      	cmp	r3, #88	; 0x58
20005c76:	f200 8219 	bhi.w	200060ac <_svfprintf_r+0x510>
20005c7a:	e8df f013 	tbh	[pc, r3, lsl #1]
20005c7e:	0229      	.short	0x0229
20005c80:	02170217 	.word	0x02170217
20005c84:	02170235 	.word	0x02170235
20005c88:	02170217 	.word	0x02170217
20005c8c:	02170217 	.word	0x02170217
20005c90:	023c0217 	.word	0x023c0217
20005c94:	02170248 	.word	0x02170248
20005c98:	02cf02c8 	.word	0x02cf02c8
20005c9c:	02ef0217 	.word	0x02ef0217
20005ca0:	02f602f6 	.word	0x02f602f6
20005ca4:	02f602f6 	.word	0x02f602f6
20005ca8:	02f602f6 	.word	0x02f602f6
20005cac:	02f602f6 	.word	0x02f602f6
20005cb0:	021702f6 	.word	0x021702f6
20005cb4:	02170217 	.word	0x02170217
20005cb8:	02170217 	.word	0x02170217
20005cbc:	02170217 	.word	0x02170217
20005cc0:	02170217 	.word	0x02170217
20005cc4:	024f0217 	.word	0x024f0217
20005cc8:	02170288 	.word	0x02170288
20005ccc:	02170288 	.word	0x02170288
20005cd0:	02170217 	.word	0x02170217
20005cd4:	02c10217 	.word	0x02c10217
20005cd8:	02170217 	.word	0x02170217
20005cdc:	021703ee 	.word	0x021703ee
20005ce0:	02170217 	.word	0x02170217
20005ce4:	02170217 	.word	0x02170217
20005ce8:	02170393 	.word	0x02170393
20005cec:	03ad0217 	.word	0x03ad0217
20005cf0:	02170217 	.word	0x02170217
20005cf4:	02170217 	.word	0x02170217
20005cf8:	02170217 	.word	0x02170217
20005cfc:	02170217 	.word	0x02170217
20005d00:	02170217 	.word	0x02170217
20005d04:	03d803c7 	.word	0x03d803c7
20005d08:	02880288 	.word	0x02880288
20005d0c:	030b0288 	.word	0x030b0288
20005d10:	021703d8 	.word	0x021703d8
20005d14:	030f0217 	.word	0x030f0217
20005d18:	03190217 	.word	0x03190217
20005d1c:	033e0329 	.word	0x033e0329
20005d20:	0217038c 	.word	0x0217038c
20005d24:	02170359 	.word	0x02170359
20005d28:	02170384 	.word	0x02170384
20005d2c:	00ea0217 	.word	0x00ea0217
20005d30:	9809      	ldr	r0, [sp, #36]	; 0x24
20005d32:	4659      	mov	r1, fp
20005d34:	aa37      	add	r2, sp, #220	; 0xdc
20005d36:	f7ff fea3 	bl	20005a80 <__sprint_r>
20005d3a:	2800      	cmp	r0, #0
20005d3c:	d17c      	bne.n	20005e38 <_svfprintf_r+0x29c>
20005d3e:	464c      	mov	r4, r9
20005d40:	e77d      	b.n	20005c3e <_svfprintf_r+0xa2>
20005d42:	9918      	ldr	r1, [sp, #96]	; 0x60
20005d44:	2901      	cmp	r1, #1
20005d46:	f340 8452 	ble.w	200065ee <_svfprintf_r+0xa52>
20005d4a:	9a11      	ldr	r2, [sp, #68]	; 0x44
20005d4c:	2301      	movs	r3, #1
20005d4e:	6063      	str	r3, [r4, #4]
20005d50:	9b38      	ldr	r3, [sp, #224]	; 0xe0
20005d52:	6022      	str	r2, [r4, #0]
20005d54:	9a39      	ldr	r2, [sp, #228]	; 0xe4
20005d56:	3301      	adds	r3, #1
20005d58:	9338      	str	r3, [sp, #224]	; 0xe0
20005d5a:	3201      	adds	r2, #1
20005d5c:	2b07      	cmp	r3, #7
20005d5e:	9239      	str	r2, [sp, #228]	; 0xe4
20005d60:	f300 8596 	bgt.w	20006890 <_svfprintf_r+0xcf4>
20005d64:	3408      	adds	r4, #8
20005d66:	2301      	movs	r3, #1
20005d68:	6063      	str	r3, [r4, #4]
20005d6a:	9b38      	ldr	r3, [sp, #224]	; 0xe0
20005d6c:	9a39      	ldr	r2, [sp, #228]	; 0xe4
20005d6e:	3301      	adds	r3, #1
20005d70:	981b      	ldr	r0, [sp, #108]	; 0x6c
20005d72:	3201      	adds	r2, #1
20005d74:	2b07      	cmp	r3, #7
20005d76:	9239      	str	r2, [sp, #228]	; 0xe4
20005d78:	6020      	str	r0, [r4, #0]
20005d7a:	9338      	str	r3, [sp, #224]	; 0xe0
20005d7c:	f300 857d 	bgt.w	2000687a <_svfprintf_r+0xcde>
20005d80:	3408      	adds	r4, #8
20005d82:	9810      	ldr	r0, [sp, #64]	; 0x40
20005d84:	2200      	movs	r2, #0
20005d86:	2300      	movs	r3, #0
20005d88:	9919      	ldr	r1, [sp, #100]	; 0x64
20005d8a:	f004 f863 	bl	20009e54 <__aeabi_dcmpeq>
20005d8e:	2800      	cmp	r0, #0
20005d90:	f040 8503 	bne.w	2000679a <_svfprintf_r+0xbfe>
20005d94:	9918      	ldr	r1, [sp, #96]	; 0x60
20005d96:	9b11      	ldr	r3, [sp, #68]	; 0x44
20005d98:	1e4a      	subs	r2, r1, #1
20005d9a:	6062      	str	r2, [r4, #4]
20005d9c:	1c59      	adds	r1, r3, #1
20005d9e:	9b38      	ldr	r3, [sp, #224]	; 0xe0
20005da0:	6021      	str	r1, [r4, #0]
20005da2:	9939      	ldr	r1, [sp, #228]	; 0xe4
20005da4:	3301      	adds	r3, #1
20005da6:	9338      	str	r3, [sp, #224]	; 0xe0
20005da8:	188a      	adds	r2, r1, r2
20005daa:	2b07      	cmp	r3, #7
20005dac:	9239      	str	r2, [sp, #228]	; 0xe4
20005dae:	f300 842f 	bgt.w	20006610 <_svfprintf_r+0xa74>
20005db2:	3408      	adds	r4, #8
20005db4:	9a1a      	ldr	r2, [sp, #104]	; 0x68
20005db6:	981a      	ldr	r0, [sp, #104]	; 0x68
20005db8:	6062      	str	r2, [r4, #4]
20005dba:	aa3e      	add	r2, sp, #248	; 0xf8
20005dbc:	9b38      	ldr	r3, [sp, #224]	; 0xe0
20005dbe:	6022      	str	r2, [r4, #0]
20005dc0:	9a39      	ldr	r2, [sp, #228]	; 0xe4
20005dc2:	3301      	adds	r3, #1
20005dc4:	9338      	str	r3, [sp, #224]	; 0xe0
20005dc6:	1812      	adds	r2, r2, r0
20005dc8:	2b07      	cmp	r3, #7
20005dca:	9239      	str	r2, [sp, #228]	; 0xe4
20005dcc:	f300 814f 	bgt.w	2000606e <_svfprintf_r+0x4d2>
20005dd0:	f104 0308 	add.w	r3, r4, #8
20005dd4:	f01a 0f04 	tst.w	sl, #4
20005dd8:	f000 8156 	beq.w	20006088 <_svfprintf_r+0x4ec>
20005ddc:	990c      	ldr	r1, [sp, #48]	; 0x30
20005dde:	9a0b      	ldr	r2, [sp, #44]	; 0x2c
20005de0:	1a8e      	subs	r6, r1, r2
20005de2:	2e00      	cmp	r6, #0
20005de4:	f340 8150 	ble.w	20006088 <_svfprintf_r+0x4ec>
20005de8:	2e10      	cmp	r6, #16
20005dea:	f64a 2700 	movw	r7, #43520	; 0xaa00
20005dee:	bfd8      	it	le
20005df0:	f2c2 0700 	movtle	r7, #8192	; 0x2000
20005df4:	f340 83de 	ble.w	200065b4 <_svfprintf_r+0xa18>
20005df8:	2410      	movs	r4, #16
20005dfa:	f2c2 0700 	movt	r7, #8192	; 0x2000
20005dfe:	f10d 08dc 	add.w	r8, sp, #220	; 0xdc
20005e02:	f8dd a024 	ldr.w	sl, [sp, #36]	; 0x24
20005e06:	e003      	b.n	20005e10 <_svfprintf_r+0x274>
20005e08:	3e10      	subs	r6, #16
20005e0a:	2e10      	cmp	r6, #16
20005e0c:	f340 83d2 	ble.w	200065b4 <_svfprintf_r+0xa18>
20005e10:	605c      	str	r4, [r3, #4]
20005e12:	9a38      	ldr	r2, [sp, #224]	; 0xe0
20005e14:	9939      	ldr	r1, [sp, #228]	; 0xe4
20005e16:	3201      	adds	r2, #1
20005e18:	601f      	str	r7, [r3, #0]
20005e1a:	3110      	adds	r1, #16
20005e1c:	2a07      	cmp	r2, #7
20005e1e:	9139      	str	r1, [sp, #228]	; 0xe4
20005e20:	f103 0308 	add.w	r3, r3, #8
20005e24:	9238      	str	r2, [sp, #224]	; 0xe0
20005e26:	ddef      	ble.n	20005e08 <_svfprintf_r+0x26c>
20005e28:	4650      	mov	r0, sl
20005e2a:	4659      	mov	r1, fp
20005e2c:	4642      	mov	r2, r8
20005e2e:	f7ff fe27 	bl	20005a80 <__sprint_r>
20005e32:	464b      	mov	r3, r9
20005e34:	2800      	cmp	r0, #0
20005e36:	d0e7      	beq.n	20005e08 <_svfprintf_r+0x26c>
20005e38:	465e      	mov	r6, fp
20005e3a:	89b3      	ldrh	r3, [r6, #12]
20005e3c:	980d      	ldr	r0, [sp, #52]	; 0x34
20005e3e:	f013 0f40 	tst.w	r3, #64	; 0x40
20005e42:	bf18      	it	ne
20005e44:	f04f 30ff 	movne.w	r0, #4294967295
20005e48:	900d      	str	r0, [sp, #52]	; 0x34
20005e4a:	980d      	ldr	r0, [sp, #52]	; 0x34
20005e4c:	b045      	add	sp, #276	; 0x114
20005e4e:	e8bd 8ff0 	ldmia.w	sp!, {r4, r5, r6, r7, r8, r9, sl, fp, pc}
20005e52:	f01a 0f20 	tst.w	sl, #32
20005e56:	f64a 2044 	movw	r0, #43588	; 0xaa44
20005e5a:	f2c2 0000 	movt	r0, #8192	; 0x2000
20005e5e:	9214      	str	r2, [sp, #80]	; 0x50
20005e60:	9017      	str	r0, [sp, #92]	; 0x5c
20005e62:	f000 82c3 	beq.w	200063ec <_svfprintf_r+0x850>
20005e66:	990a      	ldr	r1, [sp, #40]	; 0x28
20005e68:	1dcb      	adds	r3, r1, #7
20005e6a:	f023 0307 	bic.w	r3, r3, #7
20005e6e:	f103 0208 	add.w	r2, r3, #8
20005e72:	920a      	str	r2, [sp, #40]	; 0x28
20005e74:	e9d3 6700 	ldrd	r6, r7, [r3]
20005e78:	ea56 0107 	orrs.w	r1, r6, r7
20005e7c:	bf0c      	ite	eq
20005e7e:	2200      	moveq	r2, #0
20005e80:	2201      	movne	r2, #1
20005e82:	ea1a 0f02 	tst.w	sl, r2
20005e86:	f040 84bc 	bne.w	20006802 <_svfprintf_r+0xc66>
20005e8a:	2302      	movs	r3, #2
20005e8c:	f04f 0100 	mov.w	r1, #0
20005e90:	f88d 110f 	strb.w	r1, [sp, #271]	; 0x10f
20005e94:	f1b8 0f00 	cmp.w	r8, #0
20005e98:	bfa8      	it	ge
20005e9a:	f02a 0a80 	bicge.w	sl, sl, #128	; 0x80
20005e9e:	f1b8 0f00 	cmp.w	r8, #0
20005ea2:	bf18      	it	ne
20005ea4:	f042 0201 	orrne.w	r2, r2, #1
20005ea8:	2a00      	cmp	r2, #0
20005eaa:	f000 8160 	beq.w	2000616e <_svfprintf_r+0x5d2>
20005eae:	2b01      	cmp	r3, #1
20005eb0:	f000 8434 	beq.w	2000671c <_svfprintf_r+0xb80>
20005eb4:	2b02      	cmp	r3, #2
20005eb6:	f000 8417 	beq.w	200066e8 <_svfprintf_r+0xb4c>
20005eba:	9916      	ldr	r1, [sp, #88]	; 0x58
20005ebc:	f8cd 802c 	str.w	r8, [sp, #44]	; 0x2c
20005ec0:	9111      	str	r1, [sp, #68]	; 0x44
20005ec2:	ea4f 08d6 	mov.w	r8, r6, lsr #3
20005ec6:	ea4f 0cd7 	mov.w	ip, r7, lsr #3
20005eca:	ea48 7847 	orr.w	r8, r8, r7, lsl #29
20005ece:	f006 0007 	and.w	r0, r6, #7
20005ed2:	4667      	mov	r7, ip
20005ed4:	4646      	mov	r6, r8
20005ed6:	3030      	adds	r0, #48	; 0x30
20005ed8:	ea56 0207 	orrs.w	r2, r6, r7
20005edc:	f801 0d01 	strb.w	r0, [r1, #-1]!
20005ee0:	d1ef      	bne.n	20005ec2 <_svfprintf_r+0x326>
20005ee2:	f01a 0f01 	tst.w	sl, #1
20005ee6:	f8dd 802c 	ldr.w	r8, [sp, #44]	; 0x2c
20005eea:	9111      	str	r1, [sp, #68]	; 0x44
20005eec:	f040 84db 	bne.w	200068a6 <_svfprintf_r+0xd0a>
20005ef0:	9b16      	ldr	r3, [sp, #88]	; 0x58
20005ef2:	1a5b      	subs	r3, r3, r1
20005ef4:	930e      	str	r3, [sp, #56]	; 0x38
20005ef6:	9b0e      	ldr	r3, [sp, #56]	; 0x38
20005ef8:	f8cd 8054 	str.w	r8, [sp, #84]	; 0x54
20005efc:	4543      	cmp	r3, r8
20005efe:	bfb8      	it	lt
20005f00:	4643      	movlt	r3, r8
20005f02:	930b      	str	r3, [sp, #44]	; 0x2c
20005f04:	f89d 310f 	ldrb.w	r3, [sp, #271]	; 0x10f
20005f08:	b113      	cbz	r3, 20005f10 <_svfprintf_r+0x374>
20005f0a:	990b      	ldr	r1, [sp, #44]	; 0x2c
20005f0c:	3101      	adds	r1, #1
20005f0e:	910b      	str	r1, [sp, #44]	; 0x2c
20005f10:	f01a 0202 	ands.w	r2, sl, #2
20005f14:	9213      	str	r2, [sp, #76]	; 0x4c
20005f16:	d002      	beq.n	20005f1e <_svfprintf_r+0x382>
20005f18:	9b0b      	ldr	r3, [sp, #44]	; 0x2c
20005f1a:	3302      	adds	r3, #2
20005f1c:	930b      	str	r3, [sp, #44]	; 0x2c
20005f1e:	f01a 0084 	ands.w	r0, sl, #132	; 0x84
20005f22:	9012      	str	r0, [sp, #72]	; 0x48
20005f24:	d138      	bne.n	20005f98 <_svfprintf_r+0x3fc>
20005f26:	990c      	ldr	r1, [sp, #48]	; 0x30
20005f28:	9a0b      	ldr	r2, [sp, #44]	; 0x2c
20005f2a:	1a8e      	subs	r6, r1, r2
20005f2c:	2e00      	cmp	r6, #0
20005f2e:	dd33      	ble.n	20005f98 <_svfprintf_r+0x3fc>
20005f30:	2e10      	cmp	r6, #16
20005f32:	f64a 2700 	movw	r7, #43520	; 0xaa00
20005f36:	bfd8      	it	le
20005f38:	f2c2 0700 	movtle	r7, #8192	; 0x2000
20005f3c:	dd20      	ble.n	20005f80 <_svfprintf_r+0x3e4>
20005f3e:	f04f 0810 	mov.w	r8, #16
20005f42:	f2c2 0700 	movt	r7, #8192	; 0x2000
20005f46:	e002      	b.n	20005f4e <_svfprintf_r+0x3b2>
20005f48:	3e10      	subs	r6, #16
20005f4a:	2e10      	cmp	r6, #16
20005f4c:	dd18      	ble.n	20005f80 <_svfprintf_r+0x3e4>
20005f4e:	f8c4 8004 	str.w	r8, [r4, #4]
20005f52:	9b38      	ldr	r3, [sp, #224]	; 0xe0
20005f54:	9a39      	ldr	r2, [sp, #228]	; 0xe4
20005f56:	3301      	adds	r3, #1
20005f58:	6027      	str	r7, [r4, #0]
20005f5a:	3210      	adds	r2, #16
20005f5c:	2b07      	cmp	r3, #7
20005f5e:	9239      	str	r2, [sp, #228]	; 0xe4
20005f60:	f104 0408 	add.w	r4, r4, #8
20005f64:	9338      	str	r3, [sp, #224]	; 0xe0
20005f66:	ddef      	ble.n	20005f48 <_svfprintf_r+0x3ac>
20005f68:	9809      	ldr	r0, [sp, #36]	; 0x24
20005f6a:	4659      	mov	r1, fp
20005f6c:	aa37      	add	r2, sp, #220	; 0xdc
20005f6e:	464c      	mov	r4, r9
20005f70:	f7ff fd86 	bl	20005a80 <__sprint_r>
20005f74:	2800      	cmp	r0, #0
20005f76:	f47f af5f 	bne.w	20005e38 <_svfprintf_r+0x29c>
20005f7a:	3e10      	subs	r6, #16
20005f7c:	2e10      	cmp	r6, #16
20005f7e:	dce6      	bgt.n	20005f4e <_svfprintf_r+0x3b2>
20005f80:	6066      	str	r6, [r4, #4]
20005f82:	9b38      	ldr	r3, [sp, #224]	; 0xe0
20005f84:	6027      	str	r7, [r4, #0]
20005f86:	1c5a      	adds	r2, r3, #1
20005f88:	9b39      	ldr	r3, [sp, #228]	; 0xe4
20005f8a:	9238      	str	r2, [sp, #224]	; 0xe0
20005f8c:	199b      	adds	r3, r3, r6
20005f8e:	2a07      	cmp	r2, #7
20005f90:	9339      	str	r3, [sp, #228]	; 0xe4
20005f92:	f300 83f7 	bgt.w	20006784 <_svfprintf_r+0xbe8>
20005f96:	3408      	adds	r4, #8
20005f98:	f89d 310f 	ldrb.w	r3, [sp, #271]	; 0x10f
20005f9c:	b173      	cbz	r3, 20005fbc <_svfprintf_r+0x420>
20005f9e:	2301      	movs	r3, #1
20005fa0:	6063      	str	r3, [r4, #4]
20005fa2:	9b38      	ldr	r3, [sp, #224]	; 0xe0
20005fa4:	aa43      	add	r2, sp, #268	; 0x10c
20005fa6:	3203      	adds	r2, #3
20005fa8:	6022      	str	r2, [r4, #0]
20005faa:	9a39      	ldr	r2, [sp, #228]	; 0xe4
20005fac:	3301      	adds	r3, #1
20005fae:	9338      	str	r3, [sp, #224]	; 0xe0
20005fb0:	3201      	adds	r2, #1
20005fb2:	2b07      	cmp	r3, #7
20005fb4:	9239      	str	r2, [sp, #228]	; 0xe4
20005fb6:	f300 8340 	bgt.w	2000663a <_svfprintf_r+0xa9e>
20005fba:	3408      	adds	r4, #8
20005fbc:	9b13      	ldr	r3, [sp, #76]	; 0x4c
20005fbe:	b16b      	cbz	r3, 20005fdc <_svfprintf_r+0x440>
20005fc0:	2302      	movs	r3, #2
20005fc2:	6063      	str	r3, [r4, #4]
20005fc4:	9b38      	ldr	r3, [sp, #224]	; 0xe0
20005fc6:	aa43      	add	r2, sp, #268	; 0x10c
20005fc8:	6022      	str	r2, [r4, #0]
20005fca:	9a39      	ldr	r2, [sp, #228]	; 0xe4
20005fcc:	3301      	adds	r3, #1
20005fce:	9338      	str	r3, [sp, #224]	; 0xe0
20005fd0:	3202      	adds	r2, #2
20005fd2:	2b07      	cmp	r3, #7
20005fd4:	9239      	str	r2, [sp, #228]	; 0xe4
20005fd6:	f300 833a 	bgt.w	2000664e <_svfprintf_r+0xab2>
20005fda:	3408      	adds	r4, #8
20005fdc:	9812      	ldr	r0, [sp, #72]	; 0x48
20005fde:	2880      	cmp	r0, #128	; 0x80
20005fe0:	f000 82b2 	beq.w	20006548 <_svfprintf_r+0x9ac>
20005fe4:	9815      	ldr	r0, [sp, #84]	; 0x54
20005fe6:	9b0e      	ldr	r3, [sp, #56]	; 0x38
20005fe8:	1ac6      	subs	r6, r0, r3
20005fea:	2e00      	cmp	r6, #0
20005fec:	dd2e      	ble.n	2000604c <_svfprintf_r+0x4b0>
20005fee:	2e10      	cmp	r6, #16
20005ff0:	4fa7      	ldr	r7, [pc, #668]	; (20006290 <_svfprintf_r+0x6f4>)
20005ff2:	bfc8      	it	gt
20005ff4:	f04f 0810 	movgt.w	r8, #16
20005ff8:	dc03      	bgt.n	20006002 <_svfprintf_r+0x466>
20005ffa:	e01b      	b.n	20006034 <_svfprintf_r+0x498>
20005ffc:	3e10      	subs	r6, #16
20005ffe:	2e10      	cmp	r6, #16
20006000:	dd18      	ble.n	20006034 <_svfprintf_r+0x498>
20006002:	f8c4 8004 	str.w	r8, [r4, #4]
20006006:	9b38      	ldr	r3, [sp, #224]	; 0xe0
20006008:	9a39      	ldr	r2, [sp, #228]	; 0xe4
2000600a:	3301      	adds	r3, #1
2000600c:	6027      	str	r7, [r4, #0]
2000600e:	3210      	adds	r2, #16
20006010:	2b07      	cmp	r3, #7
20006012:	9239      	str	r2, [sp, #228]	; 0xe4
20006014:	f104 0408 	add.w	r4, r4, #8
20006018:	9338      	str	r3, [sp, #224]	; 0xe0
2000601a:	ddef      	ble.n	20005ffc <_svfprintf_r+0x460>
2000601c:	9809      	ldr	r0, [sp, #36]	; 0x24
2000601e:	4659      	mov	r1, fp
20006020:	aa37      	add	r2, sp, #220	; 0xdc
20006022:	464c      	mov	r4, r9
20006024:	f7ff fd2c 	bl	20005a80 <__sprint_r>
20006028:	2800      	cmp	r0, #0
2000602a:	f47f af05 	bne.w	20005e38 <_svfprintf_r+0x29c>
2000602e:	3e10      	subs	r6, #16
20006030:	2e10      	cmp	r6, #16
20006032:	dce6      	bgt.n	20006002 <_svfprintf_r+0x466>
20006034:	6066      	str	r6, [r4, #4]
20006036:	9b38      	ldr	r3, [sp, #224]	; 0xe0
20006038:	6027      	str	r7, [r4, #0]
2000603a:	1c5a      	adds	r2, r3, #1
2000603c:	9b39      	ldr	r3, [sp, #228]	; 0xe4
2000603e:	9238      	str	r2, [sp, #224]	; 0xe0
20006040:	199b      	adds	r3, r3, r6
20006042:	2a07      	cmp	r2, #7
20006044:	9339      	str	r3, [sp, #228]	; 0xe4
20006046:	f300 82ee 	bgt.w	20006626 <_svfprintf_r+0xa8a>
2000604a:	3408      	adds	r4, #8
2000604c:	f41a 7f80 	tst.w	sl, #256	; 0x100
20006050:	f040 8219 	bne.w	20006486 <_svfprintf_r+0x8ea>
20006054:	990e      	ldr	r1, [sp, #56]	; 0x38
20006056:	9a11      	ldr	r2, [sp, #68]	; 0x44
20006058:	6061      	str	r1, [r4, #4]
2000605a:	9b38      	ldr	r3, [sp, #224]	; 0xe0
2000605c:	6022      	str	r2, [r4, #0]
2000605e:	9a39      	ldr	r2, [sp, #228]	; 0xe4
20006060:	3301      	adds	r3, #1
20006062:	9338      	str	r3, [sp, #224]	; 0xe0
20006064:	1852      	adds	r2, r2, r1
20006066:	2b07      	cmp	r3, #7
20006068:	9239      	str	r2, [sp, #228]	; 0xe4
2000606a:	f77f aeb1 	ble.w	20005dd0 <_svfprintf_r+0x234>
2000606e:	9809      	ldr	r0, [sp, #36]	; 0x24
20006070:	4659      	mov	r1, fp
20006072:	aa37      	add	r2, sp, #220	; 0xdc
20006074:	f7ff fd04 	bl	20005a80 <__sprint_r>
20006078:	2800      	cmp	r0, #0
2000607a:	f47f aedd 	bne.w	20005e38 <_svfprintf_r+0x29c>
2000607e:	f01a 0f04 	tst.w	sl, #4
20006082:	464b      	mov	r3, r9
20006084:	f47f aeaa 	bne.w	20005ddc <_svfprintf_r+0x240>
20006088:	9b39      	ldr	r3, [sp, #228]	; 0xe4
2000608a:	980d      	ldr	r0, [sp, #52]	; 0x34
2000608c:	9a0b      	ldr	r2, [sp, #44]	; 0x2c
2000608e:	990c      	ldr	r1, [sp, #48]	; 0x30
20006090:	428a      	cmp	r2, r1
20006092:	bfac      	ite	ge
20006094:	1880      	addge	r0, r0, r2
20006096:	1840      	addlt	r0, r0, r1
20006098:	900d      	str	r0, [sp, #52]	; 0x34
2000609a:	2b00      	cmp	r3, #0
2000609c:	f040 829e 	bne.w	200065dc <_svfprintf_r+0xa40>
200060a0:	2300      	movs	r3, #0
200060a2:	f8dd a028 	ldr.w	sl, [sp, #40]	; 0x28
200060a6:	9338      	str	r3, [sp, #224]	; 0xe0
200060a8:	464c      	mov	r4, r9
200060aa:	e5a1      	b.n	20005bf0 <_svfprintf_r+0x54>
200060ac:	9214      	str	r2, [sp, #80]	; 0x50
200060ae:	2a00      	cmp	r2, #0
200060b0:	f000 8504 	beq.w	20006abc <_svfprintf_r+0xf20>
200060b4:	2001      	movs	r0, #1
200060b6:	f88d 20b4 	strb.w	r2, [sp, #180]	; 0xb4
200060ba:	f04f 0100 	mov.w	r1, #0
200060be:	aa2d      	add	r2, sp, #180	; 0xb4
200060c0:	900b      	str	r0, [sp, #44]	; 0x2c
200060c2:	f88d 110f 	strb.w	r1, [sp, #271]	; 0x10f
200060c6:	9211      	str	r2, [sp, #68]	; 0x44
200060c8:	900e      	str	r0, [sp, #56]	; 0x38
200060ca:	2100      	movs	r1, #0
200060cc:	9115      	str	r1, [sp, #84]	; 0x54
200060ce:	e71f      	b.n	20005f10 <_svfprintf_r+0x374>
200060d0:	f89d 310f 	ldrb.w	r3, [sp, #271]	; 0x10f
200060d4:	2b00      	cmp	r3, #0
200060d6:	f040 840c 	bne.w	200068f2 <_svfprintf_r+0xd56>
200060da:	990a      	ldr	r1, [sp, #40]	; 0x28
200060dc:	462b      	mov	r3, r5
200060de:	f88d c10f 	strb.w	ip, [sp, #271]	; 0x10f
200060e2:	782a      	ldrb	r2, [r5, #0]
200060e4:	910a      	str	r1, [sp, #40]	; 0x28
200060e6:	e5c2      	b.n	20005c6e <_svfprintf_r+0xd2>
200060e8:	990a      	ldr	r1, [sp, #40]	; 0x28
200060ea:	f04a 0a01 	orr.w	sl, sl, #1
200060ee:	782a      	ldrb	r2, [r5, #0]
200060f0:	462b      	mov	r3, r5
200060f2:	910a      	str	r1, [sp, #40]	; 0x28
200060f4:	e5bb      	b.n	20005c6e <_svfprintf_r+0xd2>
200060f6:	9b0a      	ldr	r3, [sp, #40]	; 0x28
200060f8:	9a0a      	ldr	r2, [sp, #40]	; 0x28
200060fa:	681b      	ldr	r3, [r3, #0]
200060fc:	1d11      	adds	r1, r2, #4
200060fe:	2b00      	cmp	r3, #0
20006100:	930c      	str	r3, [sp, #48]	; 0x30
20006102:	f2c0 85b2 	blt.w	20006c6a <_svfprintf_r+0x10ce>
20006106:	782a      	ldrb	r2, [r5, #0]
20006108:	462b      	mov	r3, r5
2000610a:	910a      	str	r1, [sp, #40]	; 0x28
2000610c:	e5af      	b.n	20005c6e <_svfprintf_r+0xd2>
2000610e:	990a      	ldr	r1, [sp, #40]	; 0x28
20006110:	462b      	mov	r3, r5
20006112:	f88d 010f 	strb.w	r0, [sp, #271]	; 0x10f
20006116:	782a      	ldrb	r2, [r5, #0]
20006118:	910a      	str	r1, [sp, #40]	; 0x28
2000611a:	e5a8      	b.n	20005c6e <_svfprintf_r+0xd2>
2000611c:	f04a 0a10 	orr.w	sl, sl, #16
20006120:	9214      	str	r2, [sp, #80]	; 0x50
20006122:	f01a 0f20 	tst.w	sl, #32
20006126:	f000 8187 	beq.w	20006438 <_svfprintf_r+0x89c>
2000612a:	980a      	ldr	r0, [sp, #40]	; 0x28
2000612c:	1dc3      	adds	r3, r0, #7
2000612e:	f023 0307 	bic.w	r3, r3, #7
20006132:	f103 0108 	add.w	r1, r3, #8
20006136:	910a      	str	r1, [sp, #40]	; 0x28
20006138:	e9d3 6700 	ldrd	r6, r7, [r3]
2000613c:	2e00      	cmp	r6, #0
2000613e:	f177 0000 	sbcs.w	r0, r7, #0
20006142:	f2c0 8376 	blt.w	20006832 <_svfprintf_r+0xc96>
20006146:	ea56 0107 	orrs.w	r1, r6, r7
2000614a:	f04f 0301 	mov.w	r3, #1
2000614e:	bf0c      	ite	eq
20006150:	2200      	moveq	r2, #0
20006152:	2201      	movne	r2, #1
20006154:	f1b8 0f00 	cmp.w	r8, #0
20006158:	bfa8      	it	ge
2000615a:	f02a 0a80 	bicge.w	sl, sl, #128	; 0x80
2000615e:	f1b8 0f00 	cmp.w	r8, #0
20006162:	bf18      	it	ne
20006164:	f042 0201 	orrne.w	r2, r2, #1
20006168:	2a00      	cmp	r2, #0
2000616a:	f47f aea0 	bne.w	20005eae <_svfprintf_r+0x312>
2000616e:	2b00      	cmp	r3, #0
20006170:	f040 81e5 	bne.w	2000653e <_svfprintf_r+0x9a2>
20006174:	f01a 0f01 	tst.w	sl, #1
20006178:	f000 81e1 	beq.w	2000653e <_svfprintf_r+0x9a2>
2000617c:	2330      	movs	r3, #48	; 0x30
2000617e:	f88d 30db 	strb.w	r3, [sp, #219]	; 0xdb
20006182:	ab2d      	add	r3, sp, #180	; 0xb4
20006184:	2001      	movs	r0, #1
20006186:	3327      	adds	r3, #39	; 0x27
20006188:	900e      	str	r0, [sp, #56]	; 0x38
2000618a:	9311      	str	r3, [sp, #68]	; 0x44
2000618c:	e6b3      	b.n	20005ef6 <_svfprintf_r+0x35a>
2000618e:	f01a 0f08 	tst.w	sl, #8
20006192:	9214      	str	r2, [sp, #80]	; 0x50
20006194:	f000 83bf 	beq.w	20006916 <_svfprintf_r+0xd7a>
20006198:	980a      	ldr	r0, [sp, #40]	; 0x28
2000619a:	1dc3      	adds	r3, r0, #7
2000619c:	f023 0307 	bic.w	r3, r3, #7
200061a0:	f103 0108 	add.w	r1, r3, #8
200061a4:	910a      	str	r1, [sp, #40]	; 0x28
200061a6:	685e      	ldr	r6, [r3, #4]
200061a8:	681f      	ldr	r7, [r3, #0]
200061aa:	9619      	str	r6, [sp, #100]	; 0x64
200061ac:	9710      	str	r7, [sp, #64]	; 0x40
200061ae:	4638      	mov	r0, r7
200061b0:	4631      	mov	r1, r6
200061b2:	f003 f8af 	bl	20009314 <__isinfd>
200061b6:	4603      	mov	r3, r0
200061b8:	2800      	cmp	r0, #0
200061ba:	f000 8493 	beq.w	20006ae4 <_svfprintf_r+0xf48>
200061be:	4638      	mov	r0, r7
200061c0:	2200      	movs	r2, #0
200061c2:	2300      	movs	r3, #0
200061c4:	4631      	mov	r1, r6
200061c6:	f003 fe4f 	bl	20009e68 <__aeabi_dcmplt>
200061ca:	2800      	cmp	r0, #0
200061cc:	f040 8415 	bne.w	200069fa <_svfprintf_r+0xe5e>
200061d0:	f89d 310f 	ldrb.w	r3, [sp, #271]	; 0x10f
200061d4:	2003      	movs	r0, #3
200061d6:	f64a 2238 	movw	r2, #43576	; 0xaa38
200061da:	f64a 2134 	movw	r1, #43572	; 0xaa34
200061de:	900b      	str	r0, [sp, #44]	; 0x2c
200061e0:	9814      	ldr	r0, [sp, #80]	; 0x50
200061e2:	f2c2 0100 	movt	r1, #8192	; 0x2000
200061e6:	f2c2 0200 	movt	r2, #8192	; 0x2000
200061ea:	f02a 0a80 	bic.w	sl, sl, #128	; 0x80
200061ee:	2847      	cmp	r0, #71	; 0x47
200061f0:	bfd8      	it	le
200061f2:	460a      	movle	r2, r1
200061f4:	2103      	movs	r1, #3
200061f6:	9211      	str	r2, [sp, #68]	; 0x44
200061f8:	2200      	movs	r2, #0
200061fa:	910e      	str	r1, [sp, #56]	; 0x38
200061fc:	9215      	str	r2, [sp, #84]	; 0x54
200061fe:	e683      	b.n	20005f08 <_svfprintf_r+0x36c>
20006200:	990a      	ldr	r1, [sp, #40]	; 0x28
20006202:	f04a 0a08 	orr.w	sl, sl, #8
20006206:	782a      	ldrb	r2, [r5, #0]
20006208:	462b      	mov	r3, r5
2000620a:	910a      	str	r1, [sp, #40]	; 0x28
2000620c:	e52f      	b.n	20005c6e <_svfprintf_r+0xd2>
2000620e:	990a      	ldr	r1, [sp, #40]	; 0x28
20006210:	782a      	ldrb	r2, [r5, #0]
20006212:	f04a 0a04 	orr.w	sl, sl, #4
20006216:	462b      	mov	r3, r5
20006218:	910a      	str	r1, [sp, #40]	; 0x28
2000621a:	e528      	b.n	20005c6e <_svfprintf_r+0xd2>
2000621c:	462b      	mov	r3, r5
2000621e:	f813 2b01 	ldrb.w	r2, [r3], #1
20006222:	2a2a      	cmp	r2, #42	; 0x2a
20006224:	f000 86cf 	beq.w	20006fc6 <_svfprintf_r+0x142a>
20006228:	f1a2 0130 	sub.w	r1, r2, #48	; 0x30
2000622c:	2909      	cmp	r1, #9
2000622e:	bf88      	it	hi
20006230:	f04f 0800 	movhi.w	r8, #0
20006234:	d810      	bhi.n	20006258 <_svfprintf_r+0x6bc>
20006236:	3502      	adds	r5, #2
20006238:	f04f 0800 	mov.w	r8, #0
2000623c:	f815 2c01 	ldrb.w	r2, [r5, #-1]
20006240:	eb08 0888 	add.w	r8, r8, r8, lsl #2
20006244:	462b      	mov	r3, r5
20006246:	3501      	adds	r5, #1
20006248:	eb01 0848 	add.w	r8, r1, r8, lsl #1
2000624c:	f1a2 0130 	sub.w	r1, r2, #48	; 0x30
20006250:	2909      	cmp	r1, #9
20006252:	d9f3      	bls.n	2000623c <_svfprintf_r+0x6a0>
20006254:	ea48 78e8 	orr.w	r8, r8, r8, asr #31
20006258:	461d      	mov	r5, r3
2000625a:	e509      	b.n	20005c70 <_svfprintf_r+0xd4>
2000625c:	990a      	ldr	r1, [sp, #40]	; 0x28
2000625e:	f04a 0a80 	orr.w	sl, sl, #128	; 0x80
20006262:	782a      	ldrb	r2, [r5, #0]
20006264:	462b      	mov	r3, r5
20006266:	910a      	str	r1, [sp, #40]	; 0x28
20006268:	e501      	b.n	20005c6e <_svfprintf_r+0xd2>
2000626a:	f1a2 0130 	sub.w	r1, r2, #48	; 0x30
2000626e:	2600      	movs	r6, #0
20006270:	462b      	mov	r3, r5
20006272:	eb06 0686 	add.w	r6, r6, r6, lsl #2
20006276:	f813 2b01 	ldrb.w	r2, [r3], #1
2000627a:	eb01 0646 	add.w	r6, r1, r6, lsl #1
2000627e:	f1a2 0130 	sub.w	r1, r2, #48	; 0x30
20006282:	461d      	mov	r5, r3
20006284:	2909      	cmp	r1, #9
20006286:	d9f3      	bls.n	20006270 <_svfprintf_r+0x6d4>
20006288:	960c      	str	r6, [sp, #48]	; 0x30
2000628a:	461d      	mov	r5, r3
2000628c:	e4f0      	b.n	20005c70 <_svfprintf_r+0xd4>
2000628e:	bf00      	nop
20006290:	2000aa10 	.word	0x2000aa10
20006294:	f04a 0a40 	orr.w	sl, sl, #64	; 0x40
20006298:	990a      	ldr	r1, [sp, #40]	; 0x28
2000629a:	e734      	b.n	20006106 <_svfprintf_r+0x56a>
2000629c:	782a      	ldrb	r2, [r5, #0]
2000629e:	2a6c      	cmp	r2, #108	; 0x6c
200062a0:	f000 8418 	beq.w	20006ad4 <_svfprintf_r+0xf38>
200062a4:	990a      	ldr	r1, [sp, #40]	; 0x28
200062a6:	f04a 0a10 	orr.w	sl, sl, #16
200062aa:	462b      	mov	r3, r5
200062ac:	910a      	str	r1, [sp, #40]	; 0x28
200062ae:	e4de      	b.n	20005c6e <_svfprintf_r+0xd2>
200062b0:	f01a 0f20 	tst.w	sl, #32
200062b4:	f000 8323 	beq.w	200068fe <_svfprintf_r+0xd62>
200062b8:	990a      	ldr	r1, [sp, #40]	; 0x28
200062ba:	9a0d      	ldr	r2, [sp, #52]	; 0x34
200062bc:	680b      	ldr	r3, [r1, #0]
200062be:	4610      	mov	r0, r2
200062c0:	ea4f 71e0 	mov.w	r1, r0, asr #31
200062c4:	9a0a      	ldr	r2, [sp, #40]	; 0x28
200062c6:	e9c3 0100 	strd	r0, r1, [r3]
200062ca:	f102 0a04 	add.w	sl, r2, #4
200062ce:	e48f      	b.n	20005bf0 <_svfprintf_r+0x54>
200062d0:	f01a 0320 	ands.w	r3, sl, #32
200062d4:	9214      	str	r2, [sp, #80]	; 0x50
200062d6:	f000 80c7 	beq.w	20006468 <_svfprintf_r+0x8cc>
200062da:	9b0a      	ldr	r3, [sp, #40]	; 0x28
200062dc:	1dda      	adds	r2, r3, #7
200062de:	2300      	movs	r3, #0
200062e0:	f022 0207 	bic.w	r2, r2, #7
200062e4:	f102 0008 	add.w	r0, r2, #8
200062e8:	900a      	str	r0, [sp, #40]	; 0x28
200062ea:	e9d2 6700 	ldrd	r6, r7, [r2]
200062ee:	ea56 0107 	orrs.w	r1, r6, r7
200062f2:	bf0c      	ite	eq
200062f4:	2200      	moveq	r2, #0
200062f6:	2201      	movne	r2, #1
200062f8:	e5c8      	b.n	20005e8c <_svfprintf_r+0x2f0>
200062fa:	9a0a      	ldr	r2, [sp, #40]	; 0x28
200062fc:	f64a 2044 	movw	r0, #43588	; 0xaa44
20006300:	990a      	ldr	r1, [sp, #40]	; 0x28
20006302:	2378      	movs	r3, #120	; 0x78
20006304:	f2c2 0000 	movt	r0, #8192	; 0x2000
20006308:	9314      	str	r3, [sp, #80]	; 0x50
2000630a:	6816      	ldr	r6, [r2, #0]
2000630c:	3104      	adds	r1, #4
2000630e:	f88d 310d 	strb.w	r3, [sp, #269]	; 0x10d
20006312:	f04a 0a02 	orr.w	sl, sl, #2
20006316:	2330      	movs	r3, #48	; 0x30
20006318:	1e32      	subs	r2, r6, #0
2000631a:	bf18      	it	ne
2000631c:	2201      	movne	r2, #1
2000631e:	f88d 310c 	strb.w	r3, [sp, #268]	; 0x10c
20006322:	4636      	mov	r6, r6
20006324:	f04f 0700 	mov.w	r7, #0
20006328:	9017      	str	r0, [sp, #92]	; 0x5c
2000632a:	2302      	movs	r3, #2
2000632c:	910a      	str	r1, [sp, #40]	; 0x28
2000632e:	e5ad      	b.n	20005e8c <_svfprintf_r+0x2f0>
20006330:	9b0a      	ldr	r3, [sp, #40]	; 0x28
20006332:	9214      	str	r2, [sp, #80]	; 0x50
20006334:	f04f 0200 	mov.w	r2, #0
20006338:	1d18      	adds	r0, r3, #4
2000633a:	f88d 210f 	strb.w	r2, [sp, #271]	; 0x10f
2000633e:	681b      	ldr	r3, [r3, #0]
20006340:	900a      	str	r0, [sp, #40]	; 0x28
20006342:	9311      	str	r3, [sp, #68]	; 0x44
20006344:	2b00      	cmp	r3, #0
20006346:	f000 854d 	beq.w	20006de4 <_svfprintf_r+0x1248>
2000634a:	f1b8 0f00 	cmp.w	r8, #0
2000634e:	9811      	ldr	r0, [sp, #68]	; 0x44
20006350:	f2c0 852a 	blt.w	20006da8 <_svfprintf_r+0x120c>
20006354:	2100      	movs	r1, #0
20006356:	4642      	mov	r2, r8
20006358:	f002 fa84 	bl	20008864 <memchr>
2000635c:	4603      	mov	r3, r0
2000635e:	2800      	cmp	r0, #0
20006360:	f000 856e 	beq.w	20006e40 <_svfprintf_r+0x12a4>
20006364:	9811      	ldr	r0, [sp, #68]	; 0x44
20006366:	1a1b      	subs	r3, r3, r0
20006368:	930e      	str	r3, [sp, #56]	; 0x38
2000636a:	4543      	cmp	r3, r8
2000636c:	f340 8482 	ble.w	20006c74 <_svfprintf_r+0x10d8>
20006370:	f8cd 8038 	str.w	r8, [sp, #56]	; 0x38
20006374:	2100      	movs	r1, #0
20006376:	ea28 78e8 	bic.w	r8, r8, r8, asr #31
2000637a:	f89d 310f 	ldrb.w	r3, [sp, #271]	; 0x10f
2000637e:	f8cd 802c 	str.w	r8, [sp, #44]	; 0x2c
20006382:	9115      	str	r1, [sp, #84]	; 0x54
20006384:	e5c0      	b.n	20005f08 <_svfprintf_r+0x36c>
20006386:	f01a 0f20 	tst.w	sl, #32
2000638a:	9214      	str	r2, [sp, #80]	; 0x50
2000638c:	d010      	beq.n	200063b0 <_svfprintf_r+0x814>
2000638e:	9b0a      	ldr	r3, [sp, #40]	; 0x28
20006390:	1dda      	adds	r2, r3, #7
20006392:	2301      	movs	r3, #1
20006394:	e7a4      	b.n	200062e0 <_svfprintf_r+0x744>
20006396:	990a      	ldr	r1, [sp, #40]	; 0x28
20006398:	f04a 0a20 	orr.w	sl, sl, #32
2000639c:	782a      	ldrb	r2, [r5, #0]
2000639e:	462b      	mov	r3, r5
200063a0:	910a      	str	r1, [sp, #40]	; 0x28
200063a2:	e464      	b.n	20005c6e <_svfprintf_r+0xd2>
200063a4:	f04a 0a10 	orr.w	sl, sl, #16
200063a8:	9214      	str	r2, [sp, #80]	; 0x50
200063aa:	f01a 0f20 	tst.w	sl, #32
200063ae:	d1ee      	bne.n	2000638e <_svfprintf_r+0x7f2>
200063b0:	f01a 0f10 	tst.w	sl, #16
200063b4:	f040 8254 	bne.w	20006860 <_svfprintf_r+0xcc4>
200063b8:	f01a 0f40 	tst.w	sl, #64	; 0x40
200063bc:	f000 8250 	beq.w	20006860 <_svfprintf_r+0xcc4>
200063c0:	980a      	ldr	r0, [sp, #40]	; 0x28
200063c2:	2301      	movs	r3, #1
200063c4:	1d01      	adds	r1, r0, #4
200063c6:	910a      	str	r1, [sp, #40]	; 0x28
200063c8:	8806      	ldrh	r6, [r0, #0]
200063ca:	1e32      	subs	r2, r6, #0
200063cc:	bf18      	it	ne
200063ce:	2201      	movne	r2, #1
200063d0:	4636      	mov	r6, r6
200063d2:	f04f 0700 	mov.w	r7, #0
200063d6:	e559      	b.n	20005e8c <_svfprintf_r+0x2f0>
200063d8:	f01a 0f20 	tst.w	sl, #32
200063dc:	9214      	str	r2, [sp, #80]	; 0x50
200063de:	f64a 2220 	movw	r2, #43552	; 0xaa20
200063e2:	f2c2 0200 	movt	r2, #8192	; 0x2000
200063e6:	9217      	str	r2, [sp, #92]	; 0x5c
200063e8:	f47f ad3d 	bne.w	20005e66 <_svfprintf_r+0x2ca>
200063ec:	f01a 0f10 	tst.w	sl, #16
200063f0:	f040 822d 	bne.w	2000684e <_svfprintf_r+0xcb2>
200063f4:	f01a 0f40 	tst.w	sl, #64	; 0x40
200063f8:	f000 8229 	beq.w	2000684e <_svfprintf_r+0xcb2>
200063fc:	990a      	ldr	r1, [sp, #40]	; 0x28
200063fe:	1d0a      	adds	r2, r1, #4
20006400:	920a      	str	r2, [sp, #40]	; 0x28
20006402:	880e      	ldrh	r6, [r1, #0]
20006404:	4636      	mov	r6, r6
20006406:	f04f 0700 	mov.w	r7, #0
2000640a:	e535      	b.n	20005e78 <_svfprintf_r+0x2dc>
2000640c:	9214      	str	r2, [sp, #80]	; 0x50
2000640e:	2001      	movs	r0, #1
20006410:	9a0a      	ldr	r2, [sp, #40]	; 0x28
20006412:	f04f 0100 	mov.w	r1, #0
20006416:	900b      	str	r0, [sp, #44]	; 0x2c
20006418:	900e      	str	r0, [sp, #56]	; 0x38
2000641a:	6813      	ldr	r3, [r2, #0]
2000641c:	3204      	adds	r2, #4
2000641e:	f88d 110f 	strb.w	r1, [sp, #271]	; 0x10f
20006422:	920a      	str	r2, [sp, #40]	; 0x28
20006424:	aa2d      	add	r2, sp, #180	; 0xb4
20006426:	f88d 30b4 	strb.w	r3, [sp, #180]	; 0xb4
2000642a:	9211      	str	r2, [sp, #68]	; 0x44
2000642c:	e64d      	b.n	200060ca <_svfprintf_r+0x52e>
2000642e:	f01a 0f20 	tst.w	sl, #32
20006432:	9214      	str	r2, [sp, #80]	; 0x50
20006434:	f47f ae79 	bne.w	2000612a <_svfprintf_r+0x58e>
20006438:	f01a 0f10 	tst.w	sl, #16
2000643c:	f040 81ed 	bne.w	2000681a <_svfprintf_r+0xc7e>
20006440:	f01a 0f40 	tst.w	sl, #64	; 0x40
20006444:	f000 81e9 	beq.w	2000681a <_svfprintf_r+0xc7e>
20006448:	980a      	ldr	r0, [sp, #40]	; 0x28
2000644a:	1d01      	adds	r1, r0, #4
2000644c:	910a      	str	r1, [sp, #40]	; 0x28
2000644e:	f9b0 6000 	ldrsh.w	r6, [r0]
20006452:	4636      	mov	r6, r6
20006454:	ea4f 77e6 	mov.w	r7, r6, asr #31
20006458:	e670      	b.n	2000613c <_svfprintf_r+0x5a0>
2000645a:	f04a 0a10 	orr.w	sl, sl, #16
2000645e:	9214      	str	r2, [sp, #80]	; 0x50
20006460:	f01a 0320 	ands.w	r3, sl, #32
20006464:	f47f af39 	bne.w	200062da <_svfprintf_r+0x73e>
20006468:	f01a 0210 	ands.w	r2, sl, #16
2000646c:	f000 825f 	beq.w	2000692e <_svfprintf_r+0xd92>
20006470:	9a0a      	ldr	r2, [sp, #40]	; 0x28
20006472:	1d10      	adds	r0, r2, #4
20006474:	900a      	str	r0, [sp, #40]	; 0x28
20006476:	6816      	ldr	r6, [r2, #0]
20006478:	1e32      	subs	r2, r6, #0
2000647a:	bf18      	it	ne
2000647c:	2201      	movne	r2, #1
2000647e:	4636      	mov	r6, r6
20006480:	f04f 0700 	mov.w	r7, #0
20006484:	e502      	b.n	20005e8c <_svfprintf_r+0x2f0>
20006486:	9b14      	ldr	r3, [sp, #80]	; 0x50
20006488:	2b65      	cmp	r3, #101	; 0x65
2000648a:	f77f ac5a 	ble.w	20005d42 <_svfprintf_r+0x1a6>
2000648e:	9810      	ldr	r0, [sp, #64]	; 0x40
20006490:	2200      	movs	r2, #0
20006492:	2300      	movs	r3, #0
20006494:	9919      	ldr	r1, [sp, #100]	; 0x64
20006496:	f003 fcdd 	bl	20009e54 <__aeabi_dcmpeq>
2000649a:	2800      	cmp	r0, #0
2000649c:	f000 80e1 	beq.w	20006662 <_svfprintf_r+0xac6>
200064a0:	2301      	movs	r3, #1
200064a2:	6063      	str	r3, [r4, #4]
200064a4:	9a38      	ldr	r2, [sp, #224]	; 0xe0
200064a6:	f64a 2360 	movw	r3, #43616	; 0xaa60
200064aa:	f2c2 0300 	movt	r3, #8192	; 0x2000
200064ae:	6023      	str	r3, [r4, #0]
200064b0:	9b39      	ldr	r3, [sp, #228]	; 0xe4
200064b2:	3201      	adds	r2, #1
200064b4:	9238      	str	r2, [sp, #224]	; 0xe0
200064b6:	3301      	adds	r3, #1
200064b8:	2a07      	cmp	r2, #7
200064ba:	9339      	str	r3, [sp, #228]	; 0xe4
200064bc:	bfd8      	it	le
200064be:	f104 0308 	addle.w	r3, r4, #8
200064c2:	f300 829f 	bgt.w	20006a04 <_svfprintf_r+0xe68>
200064c6:	9a42      	ldr	r2, [sp, #264]	; 0x108
200064c8:	9818      	ldr	r0, [sp, #96]	; 0x60
200064ca:	4282      	cmp	r2, r0
200064cc:	db03      	blt.n	200064d6 <_svfprintf_r+0x93a>
200064ce:	f01a 0f01 	tst.w	sl, #1
200064d2:	f43f ac7f 	beq.w	20005dd4 <_svfprintf_r+0x238>
200064d6:	991b      	ldr	r1, [sp, #108]	; 0x6c
200064d8:	2201      	movs	r2, #1
200064da:	605a      	str	r2, [r3, #4]
200064dc:	9a38      	ldr	r2, [sp, #224]	; 0xe0
200064de:	6019      	str	r1, [r3, #0]
200064e0:	9939      	ldr	r1, [sp, #228]	; 0xe4
200064e2:	3201      	adds	r2, #1
200064e4:	9238      	str	r2, [sp, #224]	; 0xe0
200064e6:	3101      	adds	r1, #1
200064e8:	2a07      	cmp	r2, #7
200064ea:	9139      	str	r1, [sp, #228]	; 0xe4
200064ec:	f300 83eb 	bgt.w	20006cc6 <_svfprintf_r+0x112a>
200064f0:	3308      	adds	r3, #8
200064f2:	9a18      	ldr	r2, [sp, #96]	; 0x60
200064f4:	1e56      	subs	r6, r2, #1
200064f6:	2e00      	cmp	r6, #0
200064f8:	f77f ac6c 	ble.w	20005dd4 <_svfprintf_r+0x238>
200064fc:	2e10      	cmp	r6, #16
200064fe:	4fa0      	ldr	r7, [pc, #640]	; (20006780 <_svfprintf_r+0xbe4>)
20006500:	f340 81e9 	ble.w	200068d6 <_svfprintf_r+0xd3a>
20006504:	2410      	movs	r4, #16
20006506:	f10d 08dc 	add.w	r8, sp, #220	; 0xdc
2000650a:	e003      	b.n	20006514 <_svfprintf_r+0x978>
2000650c:	3e10      	subs	r6, #16
2000650e:	2e10      	cmp	r6, #16
20006510:	f340 81e1 	ble.w	200068d6 <_svfprintf_r+0xd3a>
20006514:	605c      	str	r4, [r3, #4]
20006516:	9a38      	ldr	r2, [sp, #224]	; 0xe0
20006518:	9939      	ldr	r1, [sp, #228]	; 0xe4
2000651a:	3201      	adds	r2, #1
2000651c:	601f      	str	r7, [r3, #0]
2000651e:	3110      	adds	r1, #16
20006520:	2a07      	cmp	r2, #7
20006522:	9139      	str	r1, [sp, #228]	; 0xe4
20006524:	f103 0308 	add.w	r3, r3, #8
20006528:	9238      	str	r2, [sp, #224]	; 0xe0
2000652a:	ddef      	ble.n	2000650c <_svfprintf_r+0x970>
2000652c:	9809      	ldr	r0, [sp, #36]	; 0x24
2000652e:	4659      	mov	r1, fp
20006530:	4642      	mov	r2, r8
20006532:	f7ff faa5 	bl	20005a80 <__sprint_r>
20006536:	464b      	mov	r3, r9
20006538:	2800      	cmp	r0, #0
2000653a:	d0e7      	beq.n	2000650c <_svfprintf_r+0x970>
2000653c:	e47c      	b.n	20005e38 <_svfprintf_r+0x29c>
2000653e:	9916      	ldr	r1, [sp, #88]	; 0x58
20006540:	2200      	movs	r2, #0
20006542:	920e      	str	r2, [sp, #56]	; 0x38
20006544:	9111      	str	r1, [sp, #68]	; 0x44
20006546:	e4d6      	b.n	20005ef6 <_svfprintf_r+0x35a>
20006548:	990c      	ldr	r1, [sp, #48]	; 0x30
2000654a:	9a0b      	ldr	r2, [sp, #44]	; 0x2c
2000654c:	1a8e      	subs	r6, r1, r2
2000654e:	2e00      	cmp	r6, #0
20006550:	f77f ad48 	ble.w	20005fe4 <_svfprintf_r+0x448>
20006554:	2e10      	cmp	r6, #16
20006556:	4f8a      	ldr	r7, [pc, #552]	; (20006780 <_svfprintf_r+0xbe4>)
20006558:	bfc8      	it	gt
2000655a:	f04f 0810 	movgt.w	r8, #16
2000655e:	dc03      	bgt.n	20006568 <_svfprintf_r+0x9cc>
20006560:	e01b      	b.n	2000659a <_svfprintf_r+0x9fe>
20006562:	3e10      	subs	r6, #16
20006564:	2e10      	cmp	r6, #16
20006566:	dd18      	ble.n	2000659a <_svfprintf_r+0x9fe>
20006568:	f8c4 8004 	str.w	r8, [r4, #4]
2000656c:	9b38      	ldr	r3, [sp, #224]	; 0xe0
2000656e:	9a39      	ldr	r2, [sp, #228]	; 0xe4
20006570:	3301      	adds	r3, #1
20006572:	6027      	str	r7, [r4, #0]
20006574:	3210      	adds	r2, #16
20006576:	2b07      	cmp	r3, #7
20006578:	9239      	str	r2, [sp, #228]	; 0xe4
2000657a:	f104 0408 	add.w	r4, r4, #8
2000657e:	9338      	str	r3, [sp, #224]	; 0xe0
20006580:	ddef      	ble.n	20006562 <_svfprintf_r+0x9c6>
20006582:	9809      	ldr	r0, [sp, #36]	; 0x24
20006584:	4659      	mov	r1, fp
20006586:	aa37      	add	r2, sp, #220	; 0xdc
20006588:	464c      	mov	r4, r9
2000658a:	f7ff fa79 	bl	20005a80 <__sprint_r>
2000658e:	2800      	cmp	r0, #0
20006590:	f47f ac52 	bne.w	20005e38 <_svfprintf_r+0x29c>
20006594:	3e10      	subs	r6, #16
20006596:	2e10      	cmp	r6, #16
20006598:	dce6      	bgt.n	20006568 <_svfprintf_r+0x9cc>
2000659a:	6066      	str	r6, [r4, #4]
2000659c:	9b38      	ldr	r3, [sp, #224]	; 0xe0
2000659e:	6027      	str	r7, [r4, #0]
200065a0:	1c5a      	adds	r2, r3, #1
200065a2:	9b39      	ldr	r3, [sp, #228]	; 0xe4
200065a4:	9238      	str	r2, [sp, #224]	; 0xe0
200065a6:	199b      	adds	r3, r3, r6
200065a8:	2a07      	cmp	r2, #7
200065aa:	9339      	str	r3, [sp, #228]	; 0xe4
200065ac:	f300 8188 	bgt.w	200068c0 <_svfprintf_r+0xd24>
200065b0:	3408      	adds	r4, #8
200065b2:	e517      	b.n	20005fe4 <_svfprintf_r+0x448>
200065b4:	605e      	str	r6, [r3, #4]
200065b6:	9a38      	ldr	r2, [sp, #224]	; 0xe0
200065b8:	601f      	str	r7, [r3, #0]
200065ba:	9b39      	ldr	r3, [sp, #228]	; 0xe4
200065bc:	3201      	adds	r2, #1
200065be:	9238      	str	r2, [sp, #224]	; 0xe0
200065c0:	18f3      	adds	r3, r6, r3
200065c2:	2a07      	cmp	r2, #7
200065c4:	9339      	str	r3, [sp, #228]	; 0xe4
200065c6:	f77f ad60 	ble.w	2000608a <_svfprintf_r+0x4ee>
200065ca:	9809      	ldr	r0, [sp, #36]	; 0x24
200065cc:	4659      	mov	r1, fp
200065ce:	aa37      	add	r2, sp, #220	; 0xdc
200065d0:	f7ff fa56 	bl	20005a80 <__sprint_r>
200065d4:	2800      	cmp	r0, #0
200065d6:	f43f ad57 	beq.w	20006088 <_svfprintf_r+0x4ec>
200065da:	e42d      	b.n	20005e38 <_svfprintf_r+0x29c>
200065dc:	9809      	ldr	r0, [sp, #36]	; 0x24
200065de:	4659      	mov	r1, fp
200065e0:	aa37      	add	r2, sp, #220	; 0xdc
200065e2:	f7ff fa4d 	bl	20005a80 <__sprint_r>
200065e6:	2800      	cmp	r0, #0
200065e8:	f43f ad5a 	beq.w	200060a0 <_svfprintf_r+0x504>
200065ec:	e424      	b.n	20005e38 <_svfprintf_r+0x29c>
200065ee:	f01a 0f01 	tst.w	sl, #1
200065f2:	f47f abaa 	bne.w	20005d4a <_svfprintf_r+0x1ae>
200065f6:	2301      	movs	r3, #1
200065f8:	6063      	str	r3, [r4, #4]
200065fa:	9b38      	ldr	r3, [sp, #224]	; 0xe0
200065fc:	9a39      	ldr	r2, [sp, #228]	; 0xe4
200065fe:	3301      	adds	r3, #1
20006600:	9911      	ldr	r1, [sp, #68]	; 0x44
20006602:	3201      	adds	r2, #1
20006604:	2b07      	cmp	r3, #7
20006606:	9239      	str	r2, [sp, #228]	; 0xe4
20006608:	6021      	str	r1, [r4, #0]
2000660a:	9338      	str	r3, [sp, #224]	; 0xe0
2000660c:	f77f abd1 	ble.w	20005db2 <_svfprintf_r+0x216>
20006610:	9809      	ldr	r0, [sp, #36]	; 0x24
20006612:	4659      	mov	r1, fp
20006614:	aa37      	add	r2, sp, #220	; 0xdc
20006616:	f7ff fa33 	bl	20005a80 <__sprint_r>
2000661a:	2800      	cmp	r0, #0
2000661c:	f47f ac0c 	bne.w	20005e38 <_svfprintf_r+0x29c>
20006620:	464c      	mov	r4, r9
20006622:	f7ff bbc7 	b.w	20005db4 <_svfprintf_r+0x218>
20006626:	9809      	ldr	r0, [sp, #36]	; 0x24
20006628:	4659      	mov	r1, fp
2000662a:	aa37      	add	r2, sp, #220	; 0xdc
2000662c:	f7ff fa28 	bl	20005a80 <__sprint_r>
20006630:	2800      	cmp	r0, #0
20006632:	f47f ac01 	bne.w	20005e38 <_svfprintf_r+0x29c>
20006636:	464c      	mov	r4, r9
20006638:	e508      	b.n	2000604c <_svfprintf_r+0x4b0>
2000663a:	9809      	ldr	r0, [sp, #36]	; 0x24
2000663c:	4659      	mov	r1, fp
2000663e:	aa37      	add	r2, sp, #220	; 0xdc
20006640:	f7ff fa1e 	bl	20005a80 <__sprint_r>
20006644:	2800      	cmp	r0, #0
20006646:	f47f abf7 	bne.w	20005e38 <_svfprintf_r+0x29c>
2000664a:	464c      	mov	r4, r9
2000664c:	e4b6      	b.n	20005fbc <_svfprintf_r+0x420>
2000664e:	9809      	ldr	r0, [sp, #36]	; 0x24
20006650:	4659      	mov	r1, fp
20006652:	aa37      	add	r2, sp, #220	; 0xdc
20006654:	f7ff fa14 	bl	20005a80 <__sprint_r>
20006658:	2800      	cmp	r0, #0
2000665a:	f47f abed 	bne.w	20005e38 <_svfprintf_r+0x29c>
2000665e:	464c      	mov	r4, r9
20006660:	e4bc      	b.n	20005fdc <_svfprintf_r+0x440>
20006662:	9b42      	ldr	r3, [sp, #264]	; 0x108
20006664:	2b00      	cmp	r3, #0
20006666:	f340 81d9 	ble.w	20006a1c <_svfprintf_r+0xe80>
2000666a:	9918      	ldr	r1, [sp, #96]	; 0x60
2000666c:	428b      	cmp	r3, r1
2000666e:	f2c0 816f 	blt.w	20006950 <_svfprintf_r+0xdb4>
20006672:	9a11      	ldr	r2, [sp, #68]	; 0x44
20006674:	6061      	str	r1, [r4, #4]
20006676:	9b38      	ldr	r3, [sp, #224]	; 0xe0
20006678:	6022      	str	r2, [r4, #0]
2000667a:	9a39      	ldr	r2, [sp, #228]	; 0xe4
2000667c:	3301      	adds	r3, #1
2000667e:	9338      	str	r3, [sp, #224]	; 0xe0
20006680:	1852      	adds	r2, r2, r1
20006682:	2b07      	cmp	r3, #7
20006684:	9239      	str	r2, [sp, #228]	; 0xe4
20006686:	bfd8      	it	le
20006688:	f104 0308 	addle.w	r3, r4, #8
2000668c:	f300 83ba 	bgt.w	20006e04 <_svfprintf_r+0x1268>
20006690:	9c42      	ldr	r4, [sp, #264]	; 0x108
20006692:	9818      	ldr	r0, [sp, #96]	; 0x60
20006694:	1a24      	subs	r4, r4, r0
20006696:	2c00      	cmp	r4, #0
20006698:	f340 819b 	ble.w	200069d2 <_svfprintf_r+0xe36>
2000669c:	2c10      	cmp	r4, #16
2000669e:	4f38      	ldr	r7, [pc, #224]	; (20006780 <_svfprintf_r+0xbe4>)
200066a0:	f340 818b 	ble.w	200069ba <_svfprintf_r+0xe1e>
200066a4:	f8cd a038 	str.w	sl, [sp, #56]	; 0x38
200066a8:	2610      	movs	r6, #16
200066aa:	46aa      	mov	sl, r5
200066ac:	f10d 08dc 	add.w	r8, sp, #220	; 0xdc
200066b0:	9d09      	ldr	r5, [sp, #36]	; 0x24
200066b2:	e003      	b.n	200066bc <_svfprintf_r+0xb20>
200066b4:	3c10      	subs	r4, #16
200066b6:	2c10      	cmp	r4, #16
200066b8:	f340 817c 	ble.w	200069b4 <_svfprintf_r+0xe18>
200066bc:	605e      	str	r6, [r3, #4]
200066be:	9a38      	ldr	r2, [sp, #224]	; 0xe0
200066c0:	9939      	ldr	r1, [sp, #228]	; 0xe4
200066c2:	3201      	adds	r2, #1
200066c4:	601f      	str	r7, [r3, #0]
200066c6:	3110      	adds	r1, #16
200066c8:	2a07      	cmp	r2, #7
200066ca:	9139      	str	r1, [sp, #228]	; 0xe4
200066cc:	f103 0308 	add.w	r3, r3, #8
200066d0:	9238      	str	r2, [sp, #224]	; 0xe0
200066d2:	ddef      	ble.n	200066b4 <_svfprintf_r+0xb18>
200066d4:	4628      	mov	r0, r5
200066d6:	4659      	mov	r1, fp
200066d8:	4642      	mov	r2, r8
200066da:	f7ff f9d1 	bl	20005a80 <__sprint_r>
200066de:	464b      	mov	r3, r9
200066e0:	2800      	cmp	r0, #0
200066e2:	d0e7      	beq.n	200066b4 <_svfprintf_r+0xb18>
200066e4:	f7ff bba8 	b.w	20005e38 <_svfprintf_r+0x29c>
200066e8:	9816      	ldr	r0, [sp, #88]	; 0x58
200066ea:	f8dd c05c 	ldr.w	ip, [sp, #92]	; 0x5c
200066ee:	4603      	mov	r3, r0
200066f0:	9011      	str	r0, [sp, #68]	; 0x44
200066f2:	0931      	lsrs	r1, r6, #4
200066f4:	f006 020f 	and.w	r2, r6, #15
200066f8:	ea41 7107 	orr.w	r1, r1, r7, lsl #28
200066fc:	0938      	lsrs	r0, r7, #4
200066fe:	f81c 2002 	ldrb.w	r2, [ip, r2]
20006702:	460e      	mov	r6, r1
20006704:	4607      	mov	r7, r0
20006706:	ea56 0107 	orrs.w	r1, r6, r7
2000670a:	f803 2d01 	strb.w	r2, [r3, #-1]!
2000670e:	d1f0      	bne.n	200066f2 <_svfprintf_r+0xb56>
20006710:	9a16      	ldr	r2, [sp, #88]	; 0x58
20006712:	9311      	str	r3, [sp, #68]	; 0x44
20006714:	1ad2      	subs	r2, r2, r3
20006716:	920e      	str	r2, [sp, #56]	; 0x38
20006718:	f7ff bbed 	b.w	20005ef6 <_svfprintf_r+0x35a>
2000671c:	2300      	movs	r3, #0
2000671e:	2209      	movs	r2, #9
20006720:	42b2      	cmp	r2, r6
20006722:	eb73 0007 	sbcs.w	r0, r3, r7
20006726:	9b16      	ldr	r3, [sp, #88]	; 0x58
20006728:	bf3e      	ittt	cc
2000672a:	f8cd 802c 	strcc.w	r8, [sp, #44]	; 0x2c
2000672e:	46a0      	movcc	r8, r4
20006730:	461c      	movcc	r4, r3
20006732:	d21a      	bcs.n	2000676a <_svfprintf_r+0xbce>
20006734:	4630      	mov	r0, r6
20006736:	4639      	mov	r1, r7
20006738:	220a      	movs	r2, #10
2000673a:	2300      	movs	r3, #0
2000673c:	f003 fcca 	bl	2000a0d4 <__aeabi_uldivmod>
20006740:	4630      	mov	r0, r6
20006742:	4639      	mov	r1, r7
20006744:	2300      	movs	r3, #0
20006746:	f102 0c30 	add.w	ip, r2, #48	; 0x30
2000674a:	220a      	movs	r2, #10
2000674c:	f804 cd01 	strb.w	ip, [r4, #-1]!
20006750:	f003 fcc0 	bl	2000a0d4 <__aeabi_uldivmod>
20006754:	4606      	mov	r6, r0
20006756:	460f      	mov	r7, r1
20006758:	2009      	movs	r0, #9
2000675a:	2100      	movs	r1, #0
2000675c:	42b0      	cmp	r0, r6
2000675e:	41b9      	sbcs	r1, r7
20006760:	d3e8      	bcc.n	20006734 <_svfprintf_r+0xb98>
20006762:	4623      	mov	r3, r4
20006764:	4644      	mov	r4, r8
20006766:	f8dd 802c 	ldr.w	r8, [sp, #44]	; 0x2c
2000676a:	1e5a      	subs	r2, r3, #1
2000676c:	3630      	adds	r6, #48	; 0x30
2000676e:	9211      	str	r2, [sp, #68]	; 0x44
20006770:	f803 6c01 	strb.w	r6, [r3, #-1]
20006774:	9b16      	ldr	r3, [sp, #88]	; 0x58
20006776:	1a9b      	subs	r3, r3, r2
20006778:	930e      	str	r3, [sp, #56]	; 0x38
2000677a:	f7ff bbbc 	b.w	20005ef6 <_svfprintf_r+0x35a>
2000677e:	bf00      	nop
20006780:	2000aa10 	.word	0x2000aa10
20006784:	9809      	ldr	r0, [sp, #36]	; 0x24
20006786:	4659      	mov	r1, fp
20006788:	aa37      	add	r2, sp, #220	; 0xdc
2000678a:	f7ff f979 	bl	20005a80 <__sprint_r>
2000678e:	2800      	cmp	r0, #0
20006790:	f47f ab52 	bne.w	20005e38 <_svfprintf_r+0x29c>
20006794:	464c      	mov	r4, r9
20006796:	f7ff bbff 	b.w	20005f98 <_svfprintf_r+0x3fc>
2000679a:	9818      	ldr	r0, [sp, #96]	; 0x60
2000679c:	1e46      	subs	r6, r0, #1
2000679e:	2e00      	cmp	r6, #0
200067a0:	f77f ab08 	ble.w	20005db4 <_svfprintf_r+0x218>
200067a4:	2e10      	cmp	r6, #16
200067a6:	4f9c      	ldr	r7, [pc, #624]	; (20006a18 <_svfprintf_r+0xe7c>)
200067a8:	bfc8      	it	gt
200067aa:	f04f 0810 	movgt.w	r8, #16
200067ae:	dc03      	bgt.n	200067b8 <_svfprintf_r+0xc1c>
200067b0:	e01b      	b.n	200067ea <_svfprintf_r+0xc4e>
200067b2:	3e10      	subs	r6, #16
200067b4:	2e10      	cmp	r6, #16
200067b6:	dd18      	ble.n	200067ea <_svfprintf_r+0xc4e>
200067b8:	f8c4 8004 	str.w	r8, [r4, #4]
200067bc:	9b38      	ldr	r3, [sp, #224]	; 0xe0
200067be:	9a39      	ldr	r2, [sp, #228]	; 0xe4
200067c0:	3301      	adds	r3, #1
200067c2:	6027      	str	r7, [r4, #0]
200067c4:	3210      	adds	r2, #16
200067c6:	2b07      	cmp	r3, #7
200067c8:	9239      	str	r2, [sp, #228]	; 0xe4
200067ca:	f104 0408 	add.w	r4, r4, #8
200067ce:	9338      	str	r3, [sp, #224]	; 0xe0
200067d0:	ddef      	ble.n	200067b2 <_svfprintf_r+0xc16>
200067d2:	9809      	ldr	r0, [sp, #36]	; 0x24
200067d4:	4659      	mov	r1, fp
200067d6:	aa37      	add	r2, sp, #220	; 0xdc
200067d8:	464c      	mov	r4, r9
200067da:	f7ff f951 	bl	20005a80 <__sprint_r>
200067de:	2800      	cmp	r0, #0
200067e0:	f47f ab2a 	bne.w	20005e38 <_svfprintf_r+0x29c>
200067e4:	3e10      	subs	r6, #16
200067e6:	2e10      	cmp	r6, #16
200067e8:	dce6      	bgt.n	200067b8 <_svfprintf_r+0xc1c>
200067ea:	6066      	str	r6, [r4, #4]
200067ec:	9b38      	ldr	r3, [sp, #224]	; 0xe0
200067ee:	9a39      	ldr	r2, [sp, #228]	; 0xe4
200067f0:	3301      	adds	r3, #1
200067f2:	6027      	str	r7, [r4, #0]
200067f4:	1992      	adds	r2, r2, r6
200067f6:	2b07      	cmp	r3, #7
200067f8:	9239      	str	r2, [sp, #228]	; 0xe4
200067fa:	9338      	str	r3, [sp, #224]	; 0xe0
200067fc:	f77f aad9 	ble.w	20005db2 <_svfprintf_r+0x216>
20006800:	e706      	b.n	20006610 <_svfprintf_r+0xa74>
20006802:	9814      	ldr	r0, [sp, #80]	; 0x50
20006804:	2130      	movs	r1, #48	; 0x30
20006806:	f04a 0a02 	orr.w	sl, sl, #2
2000680a:	2201      	movs	r2, #1
2000680c:	2302      	movs	r3, #2
2000680e:	f88d 110c 	strb.w	r1, [sp, #268]	; 0x10c
20006812:	f88d 010d 	strb.w	r0, [sp, #269]	; 0x10d
20006816:	f7ff bb39 	b.w	20005e8c <_svfprintf_r+0x2f0>
2000681a:	9a0a      	ldr	r2, [sp, #40]	; 0x28
2000681c:	1d13      	adds	r3, r2, #4
2000681e:	6816      	ldr	r6, [r2, #0]
20006820:	930a      	str	r3, [sp, #40]	; 0x28
20006822:	4636      	mov	r6, r6
20006824:	ea4f 77e6 	mov.w	r7, r6, asr #31
20006828:	2e00      	cmp	r6, #0
2000682a:	f177 0000 	sbcs.w	r0, r7, #0
2000682e:	f6bf ac8a 	bge.w	20006146 <_svfprintf_r+0x5aa>
20006832:	4276      	negs	r6, r6
20006834:	eb67 0747 	sbc.w	r7, r7, r7, lsl #1
20006838:	232d      	movs	r3, #45	; 0x2d
2000683a:	ea56 0207 	orrs.w	r2, r6, r7
2000683e:	f88d 310f 	strb.w	r3, [sp, #271]	; 0x10f
20006842:	bf0c      	ite	eq
20006844:	2200      	moveq	r2, #0
20006846:	2201      	movne	r2, #1
20006848:	2301      	movs	r3, #1
2000684a:	f7ff bb23 	b.w	20005e94 <_svfprintf_r+0x2f8>
2000684e:	9b0a      	ldr	r3, [sp, #40]	; 0x28
20006850:	1d18      	adds	r0, r3, #4
20006852:	681e      	ldr	r6, [r3, #0]
20006854:	900a      	str	r0, [sp, #40]	; 0x28
20006856:	4636      	mov	r6, r6
20006858:	f04f 0700 	mov.w	r7, #0
2000685c:	f7ff bb0c 	b.w	20005e78 <_svfprintf_r+0x2dc>
20006860:	9a0a      	ldr	r2, [sp, #40]	; 0x28
20006862:	1d13      	adds	r3, r2, #4
20006864:	6816      	ldr	r6, [r2, #0]
20006866:	930a      	str	r3, [sp, #40]	; 0x28
20006868:	2301      	movs	r3, #1
2000686a:	1e32      	subs	r2, r6, #0
2000686c:	bf18      	it	ne
2000686e:	2201      	movne	r2, #1
20006870:	4636      	mov	r6, r6
20006872:	f04f 0700 	mov.w	r7, #0
20006876:	f7ff bb09 	b.w	20005e8c <_svfprintf_r+0x2f0>
2000687a:	9809      	ldr	r0, [sp, #36]	; 0x24
2000687c:	4659      	mov	r1, fp
2000687e:	aa37      	add	r2, sp, #220	; 0xdc
20006880:	f7ff f8fe 	bl	20005a80 <__sprint_r>
20006884:	2800      	cmp	r0, #0
20006886:	f47f aad7 	bne.w	20005e38 <_svfprintf_r+0x29c>
2000688a:	464c      	mov	r4, r9
2000688c:	f7ff ba79 	b.w	20005d82 <_svfprintf_r+0x1e6>
20006890:	9809      	ldr	r0, [sp, #36]	; 0x24
20006892:	4659      	mov	r1, fp
20006894:	aa37      	add	r2, sp, #220	; 0xdc
20006896:	f7ff f8f3 	bl	20005a80 <__sprint_r>
2000689a:	2800      	cmp	r0, #0
2000689c:	f47f aacc 	bne.w	20005e38 <_svfprintf_r+0x29c>
200068a0:	464c      	mov	r4, r9
200068a2:	f7ff ba60 	b.w	20005d66 <_svfprintf_r+0x1ca>
200068a6:	2830      	cmp	r0, #48	; 0x30
200068a8:	f000 8296 	beq.w	20006dd8 <_svfprintf_r+0x123c>
200068ac:	9a11      	ldr	r2, [sp, #68]	; 0x44
200068ae:	2330      	movs	r3, #48	; 0x30
200068b0:	f802 3d01 	strb.w	r3, [r2, #-1]!
200068b4:	9b16      	ldr	r3, [sp, #88]	; 0x58
200068b6:	9211      	str	r2, [sp, #68]	; 0x44
200068b8:	1a9b      	subs	r3, r3, r2
200068ba:	930e      	str	r3, [sp, #56]	; 0x38
200068bc:	f7ff bb1b 	b.w	20005ef6 <_svfprintf_r+0x35a>
200068c0:	9809      	ldr	r0, [sp, #36]	; 0x24
200068c2:	4659      	mov	r1, fp
200068c4:	aa37      	add	r2, sp, #220	; 0xdc
200068c6:	f7ff f8db 	bl	20005a80 <__sprint_r>
200068ca:	2800      	cmp	r0, #0
200068cc:	f47f aab4 	bne.w	20005e38 <_svfprintf_r+0x29c>
200068d0:	464c      	mov	r4, r9
200068d2:	f7ff bb87 	b.w	20005fe4 <_svfprintf_r+0x448>
200068d6:	605e      	str	r6, [r3, #4]
200068d8:	9a38      	ldr	r2, [sp, #224]	; 0xe0
200068da:	9939      	ldr	r1, [sp, #228]	; 0xe4
200068dc:	3201      	adds	r2, #1
200068de:	601f      	str	r7, [r3, #0]
200068e0:	1989      	adds	r1, r1, r6
200068e2:	2a07      	cmp	r2, #7
200068e4:	9139      	str	r1, [sp, #228]	; 0xe4
200068e6:	9238      	str	r2, [sp, #224]	; 0xe0
200068e8:	f73f abc1 	bgt.w	2000606e <_svfprintf_r+0x4d2>
200068ec:	3308      	adds	r3, #8
200068ee:	f7ff ba71 	b.w	20005dd4 <_svfprintf_r+0x238>
200068f2:	990a      	ldr	r1, [sp, #40]	; 0x28
200068f4:	462b      	mov	r3, r5
200068f6:	782a      	ldrb	r2, [r5, #0]
200068f8:	910a      	str	r1, [sp, #40]	; 0x28
200068fa:	f7ff b9b8 	b.w	20005c6e <_svfprintf_r+0xd2>
200068fe:	f01a 0f10 	tst.w	sl, #16
20006902:	f000 81cd 	beq.w	20006ca0 <_svfprintf_r+0x1104>
20006906:	980a      	ldr	r0, [sp, #40]	; 0x28
20006908:	990d      	ldr	r1, [sp, #52]	; 0x34
2000690a:	f100 0a04 	add.w	sl, r0, #4
2000690e:	6803      	ldr	r3, [r0, #0]
20006910:	6019      	str	r1, [r3, #0]
20006912:	f7ff b96d 	b.w	20005bf0 <_svfprintf_r+0x54>
20006916:	9a0a      	ldr	r2, [sp, #40]	; 0x28
20006918:	1dd3      	adds	r3, r2, #7
2000691a:	f023 0307 	bic.w	r3, r3, #7
2000691e:	f103 0008 	add.w	r0, r3, #8
20006922:	900a      	str	r0, [sp, #40]	; 0x28
20006924:	685e      	ldr	r6, [r3, #4]
20006926:	681f      	ldr	r7, [r3, #0]
20006928:	9619      	str	r6, [sp, #100]	; 0x64
2000692a:	9710      	str	r7, [sp, #64]	; 0x40
2000692c:	e43f      	b.n	200061ae <_svfprintf_r+0x612>
2000692e:	f01a 0340 	ands.w	r3, sl, #64	; 0x40
20006932:	f000 81a9 	beq.w	20006c88 <_svfprintf_r+0x10ec>
20006936:	990a      	ldr	r1, [sp, #40]	; 0x28
20006938:	4613      	mov	r3, r2
2000693a:	1d0a      	adds	r2, r1, #4
2000693c:	920a      	str	r2, [sp, #40]	; 0x28
2000693e:	880e      	ldrh	r6, [r1, #0]
20006940:	1e32      	subs	r2, r6, #0
20006942:	bf18      	it	ne
20006944:	2201      	movne	r2, #1
20006946:	4636      	mov	r6, r6
20006948:	f04f 0700 	mov.w	r7, #0
2000694c:	f7ff ba9e 	b.w	20005e8c <_svfprintf_r+0x2f0>
20006950:	9a11      	ldr	r2, [sp, #68]	; 0x44
20006952:	6063      	str	r3, [r4, #4]
20006954:	9938      	ldr	r1, [sp, #224]	; 0xe0
20006956:	6022      	str	r2, [r4, #0]
20006958:	9a39      	ldr	r2, [sp, #228]	; 0xe4
2000695a:	3101      	adds	r1, #1
2000695c:	9138      	str	r1, [sp, #224]	; 0xe0
2000695e:	18d3      	adds	r3, r2, r3
20006960:	2907      	cmp	r1, #7
20006962:	9339      	str	r3, [sp, #228]	; 0xe4
20006964:	f300 8262 	bgt.w	20006e2c <_svfprintf_r+0x1290>
20006968:	3408      	adds	r4, #8
2000696a:	2301      	movs	r3, #1
2000696c:	9e42      	ldr	r6, [sp, #264]	; 0x108
2000696e:	6063      	str	r3, [r4, #4]
20006970:	9b38      	ldr	r3, [sp, #224]	; 0xe0
20006972:	9a39      	ldr	r2, [sp, #228]	; 0xe4
20006974:	3301      	adds	r3, #1
20006976:	981b      	ldr	r0, [sp, #108]	; 0x6c
20006978:	3201      	adds	r2, #1
2000697a:	2b07      	cmp	r3, #7
2000697c:	9338      	str	r3, [sp, #224]	; 0xe0
2000697e:	bfd8      	it	le
20006980:	f104 0308 	addle.w	r3, r4, #8
20006984:	6020      	str	r0, [r4, #0]
20006986:	9239      	str	r2, [sp, #228]	; 0xe4
20006988:	f300 8246 	bgt.w	20006e18 <_svfprintf_r+0x127c>
2000698c:	9a42      	ldr	r2, [sp, #264]	; 0x108
2000698e:	9911      	ldr	r1, [sp, #68]	; 0x44
20006990:	9818      	ldr	r0, [sp, #96]	; 0x60
20006992:	198e      	adds	r6, r1, r6
20006994:	601e      	str	r6, [r3, #0]
20006996:	1a81      	subs	r1, r0, r2
20006998:	6059      	str	r1, [r3, #4]
2000699a:	9939      	ldr	r1, [sp, #228]	; 0xe4
2000699c:	1a8a      	subs	r2, r1, r2
2000699e:	9938      	ldr	r1, [sp, #224]	; 0xe0
200069a0:	1812      	adds	r2, r2, r0
200069a2:	9239      	str	r2, [sp, #228]	; 0xe4
200069a4:	3101      	adds	r1, #1
200069a6:	9138      	str	r1, [sp, #224]	; 0xe0
200069a8:	2907      	cmp	r1, #7
200069aa:	f73f ab60 	bgt.w	2000606e <_svfprintf_r+0x4d2>
200069ae:	3308      	adds	r3, #8
200069b0:	f7ff ba10 	b.w	20005dd4 <_svfprintf_r+0x238>
200069b4:	4655      	mov	r5, sl
200069b6:	f8dd a038 	ldr.w	sl, [sp, #56]	; 0x38
200069ba:	605c      	str	r4, [r3, #4]
200069bc:	9a38      	ldr	r2, [sp, #224]	; 0xe0
200069be:	9939      	ldr	r1, [sp, #228]	; 0xe4
200069c0:	3201      	adds	r2, #1
200069c2:	601f      	str	r7, [r3, #0]
200069c4:	1909      	adds	r1, r1, r4
200069c6:	2a07      	cmp	r2, #7
200069c8:	9139      	str	r1, [sp, #228]	; 0xe4
200069ca:	9238      	str	r2, [sp, #224]	; 0xe0
200069cc:	f300 827f 	bgt.w	20006ece <_svfprintf_r+0x1332>
200069d0:	3308      	adds	r3, #8
200069d2:	f01a 0f01 	tst.w	sl, #1
200069d6:	f43f a9fd 	beq.w	20005dd4 <_svfprintf_r+0x238>
200069da:	991b      	ldr	r1, [sp, #108]	; 0x6c
200069dc:	2201      	movs	r2, #1
200069de:	605a      	str	r2, [r3, #4]
200069e0:	9a38      	ldr	r2, [sp, #224]	; 0xe0
200069e2:	6019      	str	r1, [r3, #0]
200069e4:	9939      	ldr	r1, [sp, #228]	; 0xe4
200069e6:	3201      	adds	r2, #1
200069e8:	9238      	str	r2, [sp, #224]	; 0xe0
200069ea:	3101      	adds	r1, #1
200069ec:	2a07      	cmp	r2, #7
200069ee:	9139      	str	r1, [sp, #228]	; 0xe4
200069f0:	f73f ab3d 	bgt.w	2000606e <_svfprintf_r+0x4d2>
200069f4:	3308      	adds	r3, #8
200069f6:	f7ff b9ed 	b.w	20005dd4 <_svfprintf_r+0x238>
200069fa:	232d      	movs	r3, #45	; 0x2d
200069fc:	f88d 310f 	strb.w	r3, [sp, #271]	; 0x10f
20006a00:	f7ff bbe8 	b.w	200061d4 <_svfprintf_r+0x638>
20006a04:	9809      	ldr	r0, [sp, #36]	; 0x24
20006a06:	4659      	mov	r1, fp
20006a08:	aa37      	add	r2, sp, #220	; 0xdc
20006a0a:	f7ff f839 	bl	20005a80 <__sprint_r>
20006a0e:	2800      	cmp	r0, #0
20006a10:	f47f aa12 	bne.w	20005e38 <_svfprintf_r+0x29c>
20006a14:	464b      	mov	r3, r9
20006a16:	e556      	b.n	200064c6 <_svfprintf_r+0x92a>
20006a18:	2000aa10 	.word	0x2000aa10
20006a1c:	2301      	movs	r3, #1
20006a1e:	6063      	str	r3, [r4, #4]
20006a20:	9a38      	ldr	r2, [sp, #224]	; 0xe0
20006a22:	f64a 2360 	movw	r3, #43616	; 0xaa60
20006a26:	f2c2 0300 	movt	r3, #8192	; 0x2000
20006a2a:	6023      	str	r3, [r4, #0]
20006a2c:	9b39      	ldr	r3, [sp, #228]	; 0xe4
20006a2e:	3201      	adds	r2, #1
20006a30:	9238      	str	r2, [sp, #224]	; 0xe0
20006a32:	3301      	adds	r3, #1
20006a34:	2a07      	cmp	r2, #7
20006a36:	9339      	str	r3, [sp, #228]	; 0xe4
20006a38:	bfd8      	it	le
20006a3a:	f104 0308 	addle.w	r3, r4, #8
20006a3e:	f300 8173 	bgt.w	20006d28 <_svfprintf_r+0x118c>
20006a42:	9a42      	ldr	r2, [sp, #264]	; 0x108
20006a44:	b92a      	cbnz	r2, 20006a52 <_svfprintf_r+0xeb6>
20006a46:	9818      	ldr	r0, [sp, #96]	; 0x60
20006a48:	b918      	cbnz	r0, 20006a52 <_svfprintf_r+0xeb6>
20006a4a:	f01a 0f01 	tst.w	sl, #1
20006a4e:	f43f a9c1 	beq.w	20005dd4 <_svfprintf_r+0x238>
20006a52:	991b      	ldr	r1, [sp, #108]	; 0x6c
20006a54:	2201      	movs	r2, #1
20006a56:	605a      	str	r2, [r3, #4]
20006a58:	9a38      	ldr	r2, [sp, #224]	; 0xe0
20006a5a:	6019      	str	r1, [r3, #0]
20006a5c:	9939      	ldr	r1, [sp, #228]	; 0xe4
20006a5e:	3201      	adds	r2, #1
20006a60:	9238      	str	r2, [sp, #224]	; 0xe0
20006a62:	3101      	adds	r1, #1
20006a64:	2a07      	cmp	r2, #7
20006a66:	9139      	str	r1, [sp, #228]	; 0xe4
20006a68:	f300 8168 	bgt.w	20006d3c <_svfprintf_r+0x11a0>
20006a6c:	3308      	adds	r3, #8
20006a6e:	9c42      	ldr	r4, [sp, #264]	; 0x108
20006a70:	4264      	negs	r4, r4
20006a72:	2c00      	cmp	r4, #0
20006a74:	f340 8187 	ble.w	20006d86 <_svfprintf_r+0x11ea>
20006a78:	2c10      	cmp	r4, #16
20006a7a:	4f9e      	ldr	r7, [pc, #632]	; (20006cf4 <_svfprintf_r+0x1158>)
20006a7c:	f340 81a0 	ble.w	20006dc0 <_svfprintf_r+0x1224>
20006a80:	2610      	movs	r6, #16
20006a82:	f10d 08dc 	add.w	r8, sp, #220	; 0xdc
20006a86:	e003      	b.n	20006a90 <_svfprintf_r+0xef4>
20006a88:	3c10      	subs	r4, #16
20006a8a:	2c10      	cmp	r4, #16
20006a8c:	f340 8198 	ble.w	20006dc0 <_svfprintf_r+0x1224>
20006a90:	605e      	str	r6, [r3, #4]
20006a92:	9a38      	ldr	r2, [sp, #224]	; 0xe0
20006a94:	9939      	ldr	r1, [sp, #228]	; 0xe4
20006a96:	3201      	adds	r2, #1
20006a98:	601f      	str	r7, [r3, #0]
20006a9a:	3110      	adds	r1, #16
20006a9c:	2a07      	cmp	r2, #7
20006a9e:	9139      	str	r1, [sp, #228]	; 0xe4
20006aa0:	f103 0308 	add.w	r3, r3, #8
20006aa4:	9238      	str	r2, [sp, #224]	; 0xe0
20006aa6:	ddef      	ble.n	20006a88 <_svfprintf_r+0xeec>
20006aa8:	9809      	ldr	r0, [sp, #36]	; 0x24
20006aaa:	4659      	mov	r1, fp
20006aac:	4642      	mov	r2, r8
20006aae:	f7fe ffe7 	bl	20005a80 <__sprint_r>
20006ab2:	464b      	mov	r3, r9
20006ab4:	2800      	cmp	r0, #0
20006ab6:	d0e7      	beq.n	20006a88 <_svfprintf_r+0xeec>
20006ab8:	f7ff b9be 	b.w	20005e38 <_svfprintf_r+0x29c>
20006abc:	9b39      	ldr	r3, [sp, #228]	; 0xe4
20006abe:	465e      	mov	r6, fp
20006ac0:	2b00      	cmp	r3, #0
20006ac2:	f43f a9ba 	beq.w	20005e3a <_svfprintf_r+0x29e>
20006ac6:	9809      	ldr	r0, [sp, #36]	; 0x24
20006ac8:	4659      	mov	r1, fp
20006aca:	aa37      	add	r2, sp, #220	; 0xdc
20006acc:	f7fe ffd8 	bl	20005a80 <__sprint_r>
20006ad0:	f7ff b9b3 	b.w	20005e3a <_svfprintf_r+0x29e>
20006ad4:	990a      	ldr	r1, [sp, #40]	; 0x28
20006ad6:	f04a 0a20 	orr.w	sl, sl, #32
20006ada:	786a      	ldrb	r2, [r5, #1]
20006adc:	1c6b      	adds	r3, r5, #1
20006ade:	910a      	str	r1, [sp, #40]	; 0x28
20006ae0:	f7ff b8c5 	b.w	20005c6e <_svfprintf_r+0xd2>
20006ae4:	4638      	mov	r0, r7
20006ae6:	4631      	mov	r1, r6
20006ae8:	9308      	str	r3, [sp, #32]
20006aea:	f7fd faad 	bl	20004048 <__isnand>
20006aee:	9b08      	ldr	r3, [sp, #32]
20006af0:	2800      	cmp	r0, #0
20006af2:	f040 8101 	bne.w	20006cf8 <_svfprintf_r+0x115c>
20006af6:	f1b8 3fff 	cmp.w	r8, #4294967295
20006afa:	bf08      	it	eq
20006afc:	f108 0807 	addeq.w	r8, r8, #7
20006b00:	d00e      	beq.n	20006b20 <_svfprintf_r+0xf84>
20006b02:	9a14      	ldr	r2, [sp, #80]	; 0x50
20006b04:	2a67      	cmp	r2, #103	; 0x67
20006b06:	bf14      	ite	ne
20006b08:	2300      	movne	r3, #0
20006b0a:	2301      	moveq	r3, #1
20006b0c:	2a47      	cmp	r2, #71	; 0x47
20006b0e:	bf08      	it	eq
20006b10:	f043 0301 	orreq.w	r3, r3, #1
20006b14:	b123      	cbz	r3, 20006b20 <_svfprintf_r+0xf84>
20006b16:	f1b8 0f00 	cmp.w	r8, #0
20006b1a:	bf08      	it	eq
20006b1c:	f04f 0801 	moveq.w	r8, #1
20006b20:	4633      	mov	r3, r6
20006b22:	463a      	mov	r2, r7
20006b24:	e9cd 233a 	strd	r2, r3, [sp, #232]	; 0xe8
20006b28:	f44a 7a80 	orr.w	sl, sl, #256	; 0x100
20006b2c:	9b3b      	ldr	r3, [sp, #236]	; 0xec
20006b2e:	2b00      	cmp	r3, #0
20006b30:	f2c0 820a 	blt.w	20006f48 <_svfprintf_r+0x13ac>
20006b34:	2300      	movs	r3, #0
20006b36:	9315      	str	r3, [sp, #84]	; 0x54
20006b38:	9914      	ldr	r1, [sp, #80]	; 0x50
20006b3a:	2966      	cmp	r1, #102	; 0x66
20006b3c:	bf14      	ite	ne
20006b3e:	2300      	movne	r3, #0
20006b40:	2301      	moveq	r3, #1
20006b42:	2946      	cmp	r1, #70	; 0x46
20006b44:	bf08      	it	eq
20006b46:	f043 0301 	orreq.w	r3, r3, #1
20006b4a:	9312      	str	r3, [sp, #72]	; 0x48
20006b4c:	2b00      	cmp	r3, #0
20006b4e:	f000 818a 	beq.w	20006e66 <_svfprintf_r+0x12ca>
20006b52:	2303      	movs	r3, #3
20006b54:	f8cd 802c 	str.w	r8, [sp, #44]	; 0x2c
20006b58:	990b      	ldr	r1, [sp, #44]	; 0x2c
20006b5a:	970e      	str	r7, [sp, #56]	; 0x38
20006b5c:	960f      	str	r6, [sp, #60]	; 0x3c
20006b5e:	9300      	str	r3, [sp, #0]
20006b60:	9809      	ldr	r0, [sp, #36]	; 0x24
20006b62:	e9dd 230e 	ldrd	r2, r3, [sp, #56]	; 0x38
20006b66:	9101      	str	r1, [sp, #4]
20006b68:	a942      	add	r1, sp, #264	; 0x108
20006b6a:	9102      	str	r1, [sp, #8]
20006b6c:	a941      	add	r1, sp, #260	; 0x104
20006b6e:	9103      	str	r1, [sp, #12]
20006b70:	a940      	add	r1, sp, #256	; 0x100
20006b72:	9104      	str	r1, [sp, #16]
20006b74:	f000 fafc 	bl	20007170 <_dtoa_r>
20006b78:	9a14      	ldr	r2, [sp, #80]	; 0x50
20006b7a:	f1b2 0367 	subs.w	r3, r2, #103	; 0x67
20006b7e:	bf18      	it	ne
20006b80:	2301      	movne	r3, #1
20006b82:	2a47      	cmp	r2, #71	; 0x47
20006b84:	bf0c      	ite	eq
20006b86:	2300      	moveq	r3, #0
20006b88:	f003 0301 	andne.w	r3, r3, #1
20006b8c:	9011      	str	r0, [sp, #68]	; 0x44
20006b8e:	b92b      	cbnz	r3, 20006b9c <_svfprintf_r+0x1000>
20006b90:	f01a 0f01 	tst.w	sl, #1
20006b94:	bf08      	it	eq
20006b96:	f8dd c100 	ldreq.w	ip, [sp, #256]	; 0x100
20006b9a:	d01a      	beq.n	20006bd2 <_svfprintf_r+0x1036>
20006b9c:	9b11      	ldr	r3, [sp, #68]	; 0x44
20006b9e:	980b      	ldr	r0, [sp, #44]	; 0x2c
20006ba0:	9912      	ldr	r1, [sp, #72]	; 0x48
20006ba2:	eb03 0c00 	add.w	ip, r3, r0
20006ba6:	b129      	cbz	r1, 20006bb4 <_svfprintf_r+0x1018>
20006ba8:	781b      	ldrb	r3, [r3, #0]
20006baa:	2b30      	cmp	r3, #48	; 0x30
20006bac:	f000 80d0 	beq.w	20006d50 <_svfprintf_r+0x11b4>
20006bb0:	9b42      	ldr	r3, [sp, #264]	; 0x108
20006bb2:	449c      	add	ip, r3
20006bb4:	4638      	mov	r0, r7
20006bb6:	2200      	movs	r2, #0
20006bb8:	2300      	movs	r3, #0
20006bba:	4631      	mov	r1, r6
20006bbc:	f8cd c020 	str.w	ip, [sp, #32]
20006bc0:	f003 f948 	bl	20009e54 <__aeabi_dcmpeq>
20006bc4:	f8dd c020 	ldr.w	ip, [sp, #32]
20006bc8:	2800      	cmp	r0, #0
20006bca:	f000 8173 	beq.w	20006eb4 <_svfprintf_r+0x1318>
20006bce:	f8cd c100 	str.w	ip, [sp, #256]	; 0x100
20006bd2:	9814      	ldr	r0, [sp, #80]	; 0x50
20006bd4:	9911      	ldr	r1, [sp, #68]	; 0x44
20006bd6:	2867      	cmp	r0, #103	; 0x67
20006bd8:	bf14      	ite	ne
20006bda:	2300      	movne	r3, #0
20006bdc:	2301      	moveq	r3, #1
20006bde:	2847      	cmp	r0, #71	; 0x47
20006be0:	bf08      	it	eq
20006be2:	f043 0301 	orreq.w	r3, r3, #1
20006be6:	ebc1 010c 	rsb	r1, r1, ip
20006bea:	9118      	str	r1, [sp, #96]	; 0x60
20006bec:	2b00      	cmp	r3, #0
20006bee:	f000 814a 	beq.w	20006e86 <_svfprintf_r+0x12ea>
20006bf2:	9a42      	ldr	r2, [sp, #264]	; 0x108
20006bf4:	f112 0f03 	cmn.w	r2, #3
20006bf8:	920e      	str	r2, [sp, #56]	; 0x38
20006bfa:	db02      	blt.n	20006c02 <_svfprintf_r+0x1066>
20006bfc:	4590      	cmp	r8, r2
20006bfe:	f280 814b 	bge.w	20006e98 <_svfprintf_r+0x12fc>
20006c02:	9b14      	ldr	r3, [sp, #80]	; 0x50
20006c04:	3b02      	subs	r3, #2
20006c06:	9314      	str	r3, [sp, #80]	; 0x50
20006c08:	9a0e      	ldr	r2, [sp, #56]	; 0x38
20006c0a:	9814      	ldr	r0, [sp, #80]	; 0x50
20006c0c:	1e53      	subs	r3, r2, #1
20006c0e:	9342      	str	r3, [sp, #264]	; 0x108
20006c10:	2b00      	cmp	r3, #0
20006c12:	f88d 00f8 	strb.w	r0, [sp, #248]	; 0xf8
20006c16:	f2c0 81d1 	blt.w	20006fbc <_svfprintf_r+0x1420>
20006c1a:	222b      	movs	r2, #43	; 0x2b
20006c1c:	f88d 20f9 	strb.w	r2, [sp, #249]	; 0xf9
20006c20:	2b09      	cmp	r3, #9
20006c22:	f300 8162 	bgt.w	20006eea <_svfprintf_r+0x134e>
20006c26:	a93f      	add	r1, sp, #252	; 0xfc
20006c28:	3330      	adds	r3, #48	; 0x30
20006c2a:	f88d 30fb 	strb.w	r3, [sp, #251]	; 0xfb
20006c2e:	2330      	movs	r3, #48	; 0x30
20006c30:	f88d 30fa 	strb.w	r3, [sp, #250]	; 0xfa
20006c34:	ab3e      	add	r3, sp, #248	; 0xf8
20006c36:	9a18      	ldr	r2, [sp, #96]	; 0x60
20006c38:	1acb      	subs	r3, r1, r3
20006c3a:	9918      	ldr	r1, [sp, #96]	; 0x60
20006c3c:	931a      	str	r3, [sp, #104]	; 0x68
20006c3e:	1859      	adds	r1, r3, r1
20006c40:	2a01      	cmp	r2, #1
20006c42:	910e      	str	r1, [sp, #56]	; 0x38
20006c44:	f340 81cc 	ble.w	20006fe0 <_svfprintf_r+0x1444>
20006c48:	980e      	ldr	r0, [sp, #56]	; 0x38
20006c4a:	3001      	adds	r0, #1
20006c4c:	900e      	str	r0, [sp, #56]	; 0x38
20006c4e:	ea20 71e0 	bic.w	r1, r0, r0, asr #31
20006c52:	910b      	str	r1, [sp, #44]	; 0x2c
20006c54:	9b15      	ldr	r3, [sp, #84]	; 0x54
20006c56:	2b00      	cmp	r3, #0
20006c58:	f000 80fd 	beq.w	20006e56 <_svfprintf_r+0x12ba>
20006c5c:	232d      	movs	r3, #45	; 0x2d
20006c5e:	2000      	movs	r0, #0
20006c60:	f88d 310f 	strb.w	r3, [sp, #271]	; 0x10f
20006c64:	9015      	str	r0, [sp, #84]	; 0x54
20006c66:	f7ff b950 	b.w	20005f0a <_svfprintf_r+0x36e>
20006c6a:	9b0c      	ldr	r3, [sp, #48]	; 0x30
20006c6c:	425b      	negs	r3, r3
20006c6e:	930c      	str	r3, [sp, #48]	; 0x30
20006c70:	f7ff bace 	b.w	20006210 <_svfprintf_r+0x674>
20006c74:	9a0e      	ldr	r2, [sp, #56]	; 0x38
20006c76:	2000      	movs	r0, #0
20006c78:	f89d 310f 	ldrb.w	r3, [sp, #271]	; 0x10f
20006c7c:	ea22 72e2 	bic.w	r2, r2, r2, asr #31
20006c80:	9015      	str	r0, [sp, #84]	; 0x54
20006c82:	920b      	str	r2, [sp, #44]	; 0x2c
20006c84:	f7ff b940 	b.w	20005f08 <_svfprintf_r+0x36c>
20006c88:	980a      	ldr	r0, [sp, #40]	; 0x28
20006c8a:	1d01      	adds	r1, r0, #4
20006c8c:	910a      	str	r1, [sp, #40]	; 0x28
20006c8e:	6806      	ldr	r6, [r0, #0]
20006c90:	1e32      	subs	r2, r6, #0
20006c92:	bf18      	it	ne
20006c94:	2201      	movne	r2, #1
20006c96:	4636      	mov	r6, r6
20006c98:	f04f 0700 	mov.w	r7, #0
20006c9c:	f7ff b8f6 	b.w	20005e8c <_svfprintf_r+0x2f0>
20006ca0:	f01a 0f40 	tst.w	sl, #64	; 0x40
20006ca4:	bf17      	itett	ne
20006ca6:	9a0a      	ldrne	r2, [sp, #40]	; 0x28
20006ca8:	990a      	ldreq	r1, [sp, #40]	; 0x28
20006caa:	980d      	ldrne	r0, [sp, #52]	; 0x34
20006cac:	f102 0a04 	addne.w	sl, r2, #4
20006cb0:	bf11      	iteee	ne
20006cb2:	6813      	ldrne	r3, [r2, #0]
20006cb4:	f101 0a04 	addeq.w	sl, r1, #4
20006cb8:	680b      	ldreq	r3, [r1, #0]
20006cba:	9a0d      	ldreq	r2, [sp, #52]	; 0x34
20006cbc:	bf14      	ite	ne
20006cbe:	8018      	strhne	r0, [r3, #0]
20006cc0:	601a      	streq	r2, [r3, #0]
20006cc2:	f7fe bf95 	b.w	20005bf0 <_svfprintf_r+0x54>
20006cc6:	9809      	ldr	r0, [sp, #36]	; 0x24
20006cc8:	4659      	mov	r1, fp
20006cca:	aa37      	add	r2, sp, #220	; 0xdc
20006ccc:	f7fe fed8 	bl	20005a80 <__sprint_r>
20006cd0:	2800      	cmp	r0, #0
20006cd2:	f47f a8b1 	bne.w	20005e38 <_svfprintf_r+0x29c>
20006cd6:	464b      	mov	r3, r9
20006cd8:	e40b      	b.n	200064f2 <_svfprintf_r+0x956>
20006cda:	9809      	ldr	r0, [sp, #36]	; 0x24
20006cdc:	2140      	movs	r1, #64	; 0x40
20006cde:	f7fa fd9b 	bl	20001818 <_malloc_r>
20006ce2:	6030      	str	r0, [r6, #0]
20006ce4:	6130      	str	r0, [r6, #16]
20006ce6:	2800      	cmp	r0, #0
20006ce8:	f000 818d 	beq.w	20007006 <_svfprintf_r+0x146a>
20006cec:	2340      	movs	r3, #64	; 0x40
20006cee:	6173      	str	r3, [r6, #20]
20006cf0:	f7fe bf67 	b.w	20005bc2 <_svfprintf_r+0x26>
20006cf4:	2000aa10 	.word	0x2000aa10
20006cf8:	2003      	movs	r0, #3
20006cfa:	f64a 2240 	movw	r2, #43584	; 0xaa40
20006cfe:	f64a 213c 	movw	r1, #43580	; 0xaa3c
20006d02:	900b      	str	r0, [sp, #44]	; 0x2c
20006d04:	9814      	ldr	r0, [sp, #80]	; 0x50
20006d06:	f2c2 0100 	movt	r1, #8192	; 0x2000
20006d0a:	f2c2 0200 	movt	r2, #8192	; 0x2000
20006d0e:	9315      	str	r3, [sp, #84]	; 0x54
20006d10:	2847      	cmp	r0, #71	; 0x47
20006d12:	bfd8      	it	le
20006d14:	460a      	movle	r2, r1
20006d16:	f02a 0a80 	bic.w	sl, sl, #128	; 0x80
20006d1a:	2103      	movs	r1, #3
20006d1c:	9211      	str	r2, [sp, #68]	; 0x44
20006d1e:	f89d 310f 	ldrb.w	r3, [sp, #271]	; 0x10f
20006d22:	910e      	str	r1, [sp, #56]	; 0x38
20006d24:	f7ff b8f0 	b.w	20005f08 <_svfprintf_r+0x36c>
20006d28:	9809      	ldr	r0, [sp, #36]	; 0x24
20006d2a:	4659      	mov	r1, fp
20006d2c:	aa37      	add	r2, sp, #220	; 0xdc
20006d2e:	f7fe fea7 	bl	20005a80 <__sprint_r>
20006d32:	2800      	cmp	r0, #0
20006d34:	f47f a880 	bne.w	20005e38 <_svfprintf_r+0x29c>
20006d38:	464b      	mov	r3, r9
20006d3a:	e682      	b.n	20006a42 <_svfprintf_r+0xea6>
20006d3c:	9809      	ldr	r0, [sp, #36]	; 0x24
20006d3e:	4659      	mov	r1, fp
20006d40:	aa37      	add	r2, sp, #220	; 0xdc
20006d42:	f7fe fe9d 	bl	20005a80 <__sprint_r>
20006d46:	2800      	cmp	r0, #0
20006d48:	f47f a876 	bne.w	20005e38 <_svfprintf_r+0x29c>
20006d4c:	464b      	mov	r3, r9
20006d4e:	e68e      	b.n	20006a6e <_svfprintf_r+0xed2>
20006d50:	4638      	mov	r0, r7
20006d52:	2200      	movs	r2, #0
20006d54:	2300      	movs	r3, #0
20006d56:	4631      	mov	r1, r6
20006d58:	f8cd c020 	str.w	ip, [sp, #32]
20006d5c:	f003 f87a 	bl	20009e54 <__aeabi_dcmpeq>
20006d60:	f8dd c020 	ldr.w	ip, [sp, #32]
20006d64:	2800      	cmp	r0, #0
20006d66:	f47f af23 	bne.w	20006bb0 <_svfprintf_r+0x1014>
20006d6a:	9a0b      	ldr	r2, [sp, #44]	; 0x2c
20006d6c:	f1c2 0301 	rsb	r3, r2, #1
20006d70:	9342      	str	r3, [sp, #264]	; 0x108
20006d72:	e71e      	b.n	20006bb2 <_svfprintf_r+0x1016>
20006d74:	9809      	ldr	r0, [sp, #36]	; 0x24
20006d76:	4659      	mov	r1, fp
20006d78:	aa37      	add	r2, sp, #220	; 0xdc
20006d7a:	f7fe fe81 	bl	20005a80 <__sprint_r>
20006d7e:	2800      	cmp	r0, #0
20006d80:	f47f a85a 	bne.w	20005e38 <_svfprintf_r+0x29c>
20006d84:	464b      	mov	r3, r9
20006d86:	9a18      	ldr	r2, [sp, #96]	; 0x60
20006d88:	9811      	ldr	r0, [sp, #68]	; 0x44
20006d8a:	605a      	str	r2, [r3, #4]
20006d8c:	9a38      	ldr	r2, [sp, #224]	; 0xe0
20006d8e:	9939      	ldr	r1, [sp, #228]	; 0xe4
20006d90:	6018      	str	r0, [r3, #0]
20006d92:	3201      	adds	r2, #1
20006d94:	9818      	ldr	r0, [sp, #96]	; 0x60
20006d96:	9238      	str	r2, [sp, #224]	; 0xe0
20006d98:	1809      	adds	r1, r1, r0
20006d9a:	2a07      	cmp	r2, #7
20006d9c:	9139      	str	r1, [sp, #228]	; 0xe4
20006d9e:	f73f a966 	bgt.w	2000606e <_svfprintf_r+0x4d2>
20006da2:	3308      	adds	r3, #8
20006da4:	f7ff b816 	b.w	20005dd4 <_svfprintf_r+0x238>
20006da8:	2100      	movs	r1, #0
20006daa:	9115      	str	r1, [sp, #84]	; 0x54
20006dac:	f7fb f900 	bl	20001fb0 <strlen>
20006db0:	f89d 310f 	ldrb.w	r3, [sp, #271]	; 0x10f
20006db4:	ea20 72e0 	bic.w	r2, r0, r0, asr #31
20006db8:	900e      	str	r0, [sp, #56]	; 0x38
20006dba:	920b      	str	r2, [sp, #44]	; 0x2c
20006dbc:	f7ff b8a4 	b.w	20005f08 <_svfprintf_r+0x36c>
20006dc0:	605c      	str	r4, [r3, #4]
20006dc2:	9a38      	ldr	r2, [sp, #224]	; 0xe0
20006dc4:	601f      	str	r7, [r3, #0]
20006dc6:	1c51      	adds	r1, r2, #1
20006dc8:	9a39      	ldr	r2, [sp, #228]	; 0xe4
20006dca:	9138      	str	r1, [sp, #224]	; 0xe0
20006dcc:	1912      	adds	r2, r2, r4
20006dce:	2907      	cmp	r1, #7
20006dd0:	9239      	str	r2, [sp, #228]	; 0xe4
20006dd2:	dccf      	bgt.n	20006d74 <_svfprintf_r+0x11d8>
20006dd4:	3308      	adds	r3, #8
20006dd6:	e7d6      	b.n	20006d86 <_svfprintf_r+0x11ea>
20006dd8:	9916      	ldr	r1, [sp, #88]	; 0x58
20006dda:	9811      	ldr	r0, [sp, #68]	; 0x44
20006ddc:	1a08      	subs	r0, r1, r0
20006dde:	900e      	str	r0, [sp, #56]	; 0x38
20006de0:	f7ff b889 	b.w	20005ef6 <_svfprintf_r+0x35a>
20006de4:	f1b8 0f06 	cmp.w	r8, #6
20006de8:	bf34      	ite	cc
20006dea:	4641      	movcc	r1, r8
20006dec:	2106      	movcs	r1, #6
20006dee:	f64a 2258 	movw	r2, #43608	; 0xaa58
20006df2:	f2c2 0200 	movt	r2, #8192	; 0x2000
20006df6:	ea21 73e1 	bic.w	r3, r1, r1, asr #31
20006dfa:	910e      	str	r1, [sp, #56]	; 0x38
20006dfc:	9211      	str	r2, [sp, #68]	; 0x44
20006dfe:	930b      	str	r3, [sp, #44]	; 0x2c
20006e00:	f7ff b963 	b.w	200060ca <_svfprintf_r+0x52e>
20006e04:	9809      	ldr	r0, [sp, #36]	; 0x24
20006e06:	4659      	mov	r1, fp
20006e08:	aa37      	add	r2, sp, #220	; 0xdc
20006e0a:	f7fe fe39 	bl	20005a80 <__sprint_r>
20006e0e:	2800      	cmp	r0, #0
20006e10:	f47f a812 	bne.w	20005e38 <_svfprintf_r+0x29c>
20006e14:	464b      	mov	r3, r9
20006e16:	e43b      	b.n	20006690 <_svfprintf_r+0xaf4>
20006e18:	9809      	ldr	r0, [sp, #36]	; 0x24
20006e1a:	4659      	mov	r1, fp
20006e1c:	aa37      	add	r2, sp, #220	; 0xdc
20006e1e:	f7fe fe2f 	bl	20005a80 <__sprint_r>
20006e22:	2800      	cmp	r0, #0
20006e24:	f47f a808 	bne.w	20005e38 <_svfprintf_r+0x29c>
20006e28:	464b      	mov	r3, r9
20006e2a:	e5af      	b.n	2000698c <_svfprintf_r+0xdf0>
20006e2c:	9809      	ldr	r0, [sp, #36]	; 0x24
20006e2e:	4659      	mov	r1, fp
20006e30:	aa37      	add	r2, sp, #220	; 0xdc
20006e32:	f7fe fe25 	bl	20005a80 <__sprint_r>
20006e36:	2800      	cmp	r0, #0
20006e38:	f47e affe 	bne.w	20005e38 <_svfprintf_r+0x29c>
20006e3c:	464c      	mov	r4, r9
20006e3e:	e594      	b.n	2000696a <_svfprintf_r+0xdce>
20006e40:	f8cd 8038 	str.w	r8, [sp, #56]	; 0x38
20006e44:	ea28 78e8 	bic.w	r8, r8, r8, asr #31
20006e48:	9015      	str	r0, [sp, #84]	; 0x54
20006e4a:	f8cd 802c 	str.w	r8, [sp, #44]	; 0x2c
20006e4e:	f89d 310f 	ldrb.w	r3, [sp, #271]	; 0x10f
20006e52:	f7ff b859 	b.w	20005f08 <_svfprintf_r+0x36c>
20006e56:	980e      	ldr	r0, [sp, #56]	; 0x38
20006e58:	f89d 310f 	ldrb.w	r3, [sp, #271]	; 0x10f
20006e5c:	ea20 70e0 	bic.w	r0, r0, r0, asr #31
20006e60:	900b      	str	r0, [sp, #44]	; 0x2c
20006e62:	f7ff b851 	b.w	20005f08 <_svfprintf_r+0x36c>
20006e66:	9a14      	ldr	r2, [sp, #80]	; 0x50
20006e68:	2a65      	cmp	r2, #101	; 0x65
20006e6a:	bf14      	ite	ne
20006e6c:	2300      	movne	r3, #0
20006e6e:	2301      	moveq	r3, #1
20006e70:	2a45      	cmp	r2, #69	; 0x45
20006e72:	bf08      	it	eq
20006e74:	f043 0301 	orreq.w	r3, r3, #1
20006e78:	2b00      	cmp	r3, #0
20006e7a:	d032      	beq.n	20006ee2 <_svfprintf_r+0x1346>
20006e7c:	f108 0301 	add.w	r3, r8, #1
20006e80:	930b      	str	r3, [sp, #44]	; 0x2c
20006e82:	2302      	movs	r3, #2
20006e84:	e668      	b.n	20006b58 <_svfprintf_r+0xfbc>
20006e86:	9814      	ldr	r0, [sp, #80]	; 0x50
20006e88:	2865      	cmp	r0, #101	; 0x65
20006e8a:	dd62      	ble.n	20006f52 <_svfprintf_r+0x13b6>
20006e8c:	9a14      	ldr	r2, [sp, #80]	; 0x50
20006e8e:	2a66      	cmp	r2, #102	; 0x66
20006e90:	bf1c      	itt	ne
20006e92:	9b42      	ldrne	r3, [sp, #264]	; 0x108
20006e94:	930e      	strne	r3, [sp, #56]	; 0x38
20006e96:	d06f      	beq.n	20006f78 <_svfprintf_r+0x13dc>
20006e98:	9a18      	ldr	r2, [sp, #96]	; 0x60
20006e9a:	9b0e      	ldr	r3, [sp, #56]	; 0x38
20006e9c:	429a      	cmp	r2, r3
20006e9e:	dc5b      	bgt.n	20006f58 <_svfprintf_r+0x13bc>
20006ea0:	f01a 0f01 	tst.w	sl, #1
20006ea4:	f040 8081 	bne.w	20006faa <_svfprintf_r+0x140e>
20006ea8:	ea23 70e3 	bic.w	r0, r3, r3, asr #31
20006eac:	2167      	movs	r1, #103	; 0x67
20006eae:	900b      	str	r0, [sp, #44]	; 0x2c
20006eb0:	9114      	str	r1, [sp, #80]	; 0x50
20006eb2:	e6cf      	b.n	20006c54 <_svfprintf_r+0x10b8>
20006eb4:	9b40      	ldr	r3, [sp, #256]	; 0x100
20006eb6:	459c      	cmp	ip, r3
20006eb8:	bf98      	it	ls
20006eba:	469c      	movls	ip, r3
20006ebc:	f67f ae89 	bls.w	20006bd2 <_svfprintf_r+0x1036>
20006ec0:	2230      	movs	r2, #48	; 0x30
20006ec2:	f803 2b01 	strb.w	r2, [r3], #1
20006ec6:	459c      	cmp	ip, r3
20006ec8:	9340      	str	r3, [sp, #256]	; 0x100
20006eca:	d8fa      	bhi.n	20006ec2 <_svfprintf_r+0x1326>
20006ecc:	e681      	b.n	20006bd2 <_svfprintf_r+0x1036>
20006ece:	9809      	ldr	r0, [sp, #36]	; 0x24
20006ed0:	4659      	mov	r1, fp
20006ed2:	aa37      	add	r2, sp, #220	; 0xdc
20006ed4:	f7fe fdd4 	bl	20005a80 <__sprint_r>
20006ed8:	2800      	cmp	r0, #0
20006eda:	f47e afad 	bne.w	20005e38 <_svfprintf_r+0x29c>
20006ede:	464b      	mov	r3, r9
20006ee0:	e577      	b.n	200069d2 <_svfprintf_r+0xe36>
20006ee2:	f8cd 802c 	str.w	r8, [sp, #44]	; 0x2c
20006ee6:	3302      	adds	r3, #2
20006ee8:	e636      	b.n	20006b58 <_svfprintf_r+0xfbc>
20006eea:	f246 6c67 	movw	ip, #26215	; 0x6667
20006eee:	f10d 00f7 	add.w	r0, sp, #247	; 0xf7
20006ef2:	f2c6 6c66 	movt	ip, #26214	; 0x6666
20006ef6:	fb8c 2103 	smull	r2, r1, ip, r3
20006efa:	17da      	asrs	r2, r3, #31
20006efc:	ebc2 02a1 	rsb	r2, r2, r1, asr #2
20006f00:	eb02 0182 	add.w	r1, r2, r2, lsl #2
20006f04:	eba3 0141 	sub.w	r1, r3, r1, lsl #1
20006f08:	4613      	mov	r3, r2
20006f0a:	3130      	adds	r1, #48	; 0x30
20006f0c:	2a09      	cmp	r2, #9
20006f0e:	f800 1d01 	strb.w	r1, [r0, #-1]!
20006f12:	dcf0      	bgt.n	20006ef6 <_svfprintf_r+0x135a>
20006f14:	3330      	adds	r3, #48	; 0x30
20006f16:	1e42      	subs	r2, r0, #1
20006f18:	b2d9      	uxtb	r1, r3
20006f1a:	f800 1c01 	strb.w	r1, [r0, #-1]
20006f1e:	9b07      	ldr	r3, [sp, #28]
20006f20:	4293      	cmp	r3, r2
20006f22:	bf98      	it	ls
20006f24:	f10d 01fa 	addls.w	r1, sp, #250	; 0xfa
20006f28:	f67f ae84 	bls.w	20006c34 <_svfprintf_r+0x1098>
20006f2c:	4602      	mov	r2, r0
20006f2e:	f10d 03fb 	add.w	r3, sp, #251	; 0xfb
20006f32:	e001      	b.n	20006f38 <_svfprintf_r+0x139c>
20006f34:	f812 1b01 	ldrb.w	r1, [r2], #1
20006f38:	f803 1c01 	strb.w	r1, [r3, #-1]
20006f3c:	4619      	mov	r1, r3
20006f3e:	9807      	ldr	r0, [sp, #28]
20006f40:	3301      	adds	r3, #1
20006f42:	4290      	cmp	r0, r2
20006f44:	d8f6      	bhi.n	20006f34 <_svfprintf_r+0x1398>
20006f46:	e675      	b.n	20006c34 <_svfprintf_r+0x1098>
20006f48:	202d      	movs	r0, #45	; 0x2d
20006f4a:	f106 4600 	add.w	r6, r6, #2147483648	; 0x80000000
20006f4e:	9015      	str	r0, [sp, #84]	; 0x54
20006f50:	e5f2      	b.n	20006b38 <_svfprintf_r+0xf9c>
20006f52:	9942      	ldr	r1, [sp, #264]	; 0x108
20006f54:	910e      	str	r1, [sp, #56]	; 0x38
20006f56:	e657      	b.n	20006c08 <_svfprintf_r+0x106c>
20006f58:	990e      	ldr	r1, [sp, #56]	; 0x38
20006f5a:	9818      	ldr	r0, [sp, #96]	; 0x60
20006f5c:	2900      	cmp	r1, #0
20006f5e:	bfda      	itte	le
20006f60:	9a0e      	ldrle	r2, [sp, #56]	; 0x38
20006f62:	f1c2 0302 	rsble	r3, r2, #2
20006f66:	2301      	movgt	r3, #1
20006f68:	181b      	adds	r3, r3, r0
20006f6a:	2167      	movs	r1, #103	; 0x67
20006f6c:	ea23 72e3 	bic.w	r2, r3, r3, asr #31
20006f70:	930e      	str	r3, [sp, #56]	; 0x38
20006f72:	9114      	str	r1, [sp, #80]	; 0x50
20006f74:	920b      	str	r2, [sp, #44]	; 0x2c
20006f76:	e66d      	b.n	20006c54 <_svfprintf_r+0x10b8>
20006f78:	9842      	ldr	r0, [sp, #264]	; 0x108
20006f7a:	2800      	cmp	r0, #0
20006f7c:	900e      	str	r0, [sp, #56]	; 0x38
20006f7e:	dd38      	ble.n	20006ff2 <_svfprintf_r+0x1456>
20006f80:	f1b8 0f00 	cmp.w	r8, #0
20006f84:	d107      	bne.n	20006f96 <_svfprintf_r+0x13fa>
20006f86:	f01a 0f01 	tst.w	sl, #1
20006f8a:	bf04      	itt	eq
20006f8c:	ea20 71e0 	biceq.w	r1, r0, r0, asr #31
20006f90:	910b      	streq	r1, [sp, #44]	; 0x2c
20006f92:	f43f ae5f 	beq.w	20006c54 <_svfprintf_r+0x10b8>
20006f96:	9a0e      	ldr	r2, [sp, #56]	; 0x38
20006f98:	2066      	movs	r0, #102	; 0x66
20006f9a:	9014      	str	r0, [sp, #80]	; 0x50
20006f9c:	1c53      	adds	r3, r2, #1
20006f9e:	4443      	add	r3, r8
20006fa0:	930e      	str	r3, [sp, #56]	; 0x38
20006fa2:	ea23 71e3 	bic.w	r1, r3, r3, asr #31
20006fa6:	910b      	str	r1, [sp, #44]	; 0x2c
20006fa8:	e654      	b.n	20006c54 <_svfprintf_r+0x10b8>
20006faa:	9a0e      	ldr	r2, [sp, #56]	; 0x38
20006fac:	2367      	movs	r3, #103	; 0x67
20006fae:	9314      	str	r3, [sp, #80]	; 0x50
20006fb0:	3201      	adds	r2, #1
20006fb2:	920e      	str	r2, [sp, #56]	; 0x38
20006fb4:	ea22 70e2 	bic.w	r0, r2, r2, asr #31
20006fb8:	900b      	str	r0, [sp, #44]	; 0x2c
20006fba:	e64b      	b.n	20006c54 <_svfprintf_r+0x10b8>
20006fbc:	222d      	movs	r2, #45	; 0x2d
20006fbe:	425b      	negs	r3, r3
20006fc0:	f88d 20f9 	strb.w	r2, [sp, #249]	; 0xf9
20006fc4:	e62c      	b.n	20006c20 <_svfprintf_r+0x1084>
20006fc6:	990a      	ldr	r1, [sp, #40]	; 0x28
20006fc8:	781a      	ldrb	r2, [r3, #0]
20006fca:	f8d1 8000 	ldr.w	r8, [r1]
20006fce:	3104      	adds	r1, #4
20006fd0:	910a      	str	r1, [sp, #40]	; 0x28
20006fd2:	f1b8 0f00 	cmp.w	r8, #0
20006fd6:	bfb8      	it	lt
20006fd8:	f04f 38ff 	movlt.w	r8, #4294967295
20006fdc:	f7fe be47 	b.w	20005c6e <_svfprintf_r+0xd2>
20006fe0:	f01a 0f01 	tst.w	sl, #1
20006fe4:	bf04      	itt	eq
20006fe6:	ea21 73e1 	biceq.w	r3, r1, r1, asr #31
20006fea:	930b      	streq	r3, [sp, #44]	; 0x2c
20006fec:	f43f ae32 	beq.w	20006c54 <_svfprintf_r+0x10b8>
20006ff0:	e62a      	b.n	20006c48 <_svfprintf_r+0x10ac>
20006ff2:	f1b8 0f00 	cmp.w	r8, #0
20006ff6:	d10e      	bne.n	20007016 <_svfprintf_r+0x147a>
20006ff8:	f01a 0f01 	tst.w	sl, #1
20006ffc:	d10b      	bne.n	20007016 <_svfprintf_r+0x147a>
20006ffe:	2201      	movs	r2, #1
20007000:	920b      	str	r2, [sp, #44]	; 0x2c
20007002:	920e      	str	r2, [sp, #56]	; 0x38
20007004:	e626      	b.n	20006c54 <_svfprintf_r+0x10b8>
20007006:	9809      	ldr	r0, [sp, #36]	; 0x24
20007008:	230c      	movs	r3, #12
2000700a:	f04f 31ff 	mov.w	r1, #4294967295
2000700e:	910d      	str	r1, [sp, #52]	; 0x34
20007010:	6003      	str	r3, [r0, #0]
20007012:	f7fe bf1a 	b.w	20005e4a <_svfprintf_r+0x2ae>
20007016:	f108 0302 	add.w	r3, r8, #2
2000701a:	2066      	movs	r0, #102	; 0x66
2000701c:	ea23 71e3 	bic.w	r1, r3, r3, asr #31
20007020:	930e      	str	r3, [sp, #56]	; 0x38
20007022:	9014      	str	r0, [sp, #80]	; 0x50
20007024:	910b      	str	r1, [sp, #44]	; 0x2c
20007026:	e615      	b.n	20006c54 <_svfprintf_r+0x10b8>

20007028 <_close_r>:
20007028:	b538      	push	{r3, r4, r5, lr}
2000702a:	f24b 14dc 	movw	r4, #45532	; 0xb1dc
2000702e:	f2c2 0400 	movt	r4, #8192	; 0x2000
20007032:	4605      	mov	r5, r0
20007034:	4608      	mov	r0, r1
20007036:	2300      	movs	r3, #0
20007038:	6023      	str	r3, [r4, #0]
2000703a:	f7f9 fe37 	bl	20000cac <_close>
2000703e:	f1b0 3fff 	cmp.w	r0, #4294967295
20007042:	d000      	beq.n	20007046 <_close_r+0x1e>
20007044:	bd38      	pop	{r3, r4, r5, pc}
20007046:	6823      	ldr	r3, [r4, #0]
20007048:	2b00      	cmp	r3, #0
2000704a:	d0fb      	beq.n	20007044 <_close_r+0x1c>
2000704c:	602b      	str	r3, [r5, #0]
2000704e:	bd38      	pop	{r3, r4, r5, pc}

20007050 <quorem>:
20007050:	e92d 4ff8 	stmdb	sp!, {r3, r4, r5, r6, r7, r8, r9, sl, fp, lr}
20007054:	6903      	ldr	r3, [r0, #16]
20007056:	690e      	ldr	r6, [r1, #16]
20007058:	4682      	mov	sl, r0
2000705a:	4689      	mov	r9, r1
2000705c:	429e      	cmp	r6, r3
2000705e:	f300 8083 	bgt.w	20007168 <quorem+0x118>
20007062:	1cf2      	adds	r2, r6, #3
20007064:	f101 0514 	add.w	r5, r1, #20
20007068:	f100 0414 	add.w	r4, r0, #20
2000706c:	3e01      	subs	r6, #1
2000706e:	0092      	lsls	r2, r2, #2
20007070:	188b      	adds	r3, r1, r2
20007072:	1812      	adds	r2, r2, r0
20007074:	f103 0804 	add.w	r8, r3, #4
20007078:	6859      	ldr	r1, [r3, #4]
2000707a:	6850      	ldr	r0, [r2, #4]
2000707c:	3101      	adds	r1, #1
2000707e:	f002 f98b 	bl	20009398 <__aeabi_uidiv>
20007082:	4607      	mov	r7, r0
20007084:	2800      	cmp	r0, #0
20007086:	d039      	beq.n	200070fc <quorem+0xac>
20007088:	2300      	movs	r3, #0
2000708a:	469c      	mov	ip, r3
2000708c:	461a      	mov	r2, r3
2000708e:	58e9      	ldr	r1, [r5, r3]
20007090:	58e0      	ldr	r0, [r4, r3]
20007092:	fa1f fe81 	uxth.w	lr, r1
20007096:	ea4f 4b11 	mov.w	fp, r1, lsr #16
2000709a:	b281      	uxth	r1, r0
2000709c:	fb0e ce07 	mla	lr, lr, r7, ip
200070a0:	1851      	adds	r1, r2, r1
200070a2:	fb0b fc07 	mul.w	ip, fp, r7
200070a6:	eb0c 4c1e 	add.w	ip, ip, lr, lsr #16
200070aa:	fa1f fe8e 	uxth.w	lr, lr
200070ae:	ebce 0101 	rsb	r1, lr, r1
200070b2:	fa1f f28c 	uxth.w	r2, ip
200070b6:	ea4f 4c1c 	mov.w	ip, ip, lsr #16
200070ba:	ebc2 4210 	rsb	r2, r2, r0, lsr #16
200070be:	fa1f fe81 	uxth.w	lr, r1
200070c2:	eb02 4221 	add.w	r2, r2, r1, asr #16
200070c6:	ea4e 4102 	orr.w	r1, lr, r2, lsl #16
200070ca:	50e1      	str	r1, [r4, r3]
200070cc:	3304      	adds	r3, #4
200070ce:	1412      	asrs	r2, r2, #16
200070d0:	1959      	adds	r1, r3, r5
200070d2:	4588      	cmp	r8, r1
200070d4:	d2db      	bcs.n	2000708e <quorem+0x3e>
200070d6:	1d32      	adds	r2, r6, #4
200070d8:	eb0a 0382 	add.w	r3, sl, r2, lsl #2
200070dc:	6859      	ldr	r1, [r3, #4]
200070de:	b969      	cbnz	r1, 200070fc <quorem+0xac>
200070e0:	429c      	cmp	r4, r3
200070e2:	d209      	bcs.n	200070f8 <quorem+0xa8>
200070e4:	f85a 2022 	ldr.w	r2, [sl, r2, lsl #2]
200070e8:	b112      	cbz	r2, 200070f0 <quorem+0xa0>
200070ea:	e005      	b.n	200070f8 <quorem+0xa8>
200070ec:	681a      	ldr	r2, [r3, #0]
200070ee:	b91a      	cbnz	r2, 200070f8 <quorem+0xa8>
200070f0:	3b04      	subs	r3, #4
200070f2:	3e01      	subs	r6, #1
200070f4:	429c      	cmp	r4, r3
200070f6:	d3f9      	bcc.n	200070ec <quorem+0x9c>
200070f8:	f8ca 6010 	str.w	r6, [sl, #16]
200070fc:	4649      	mov	r1, r9
200070fe:	4650      	mov	r0, sl
20007100:	f001 fc98 	bl	20008a34 <__mcmp>
20007104:	2800      	cmp	r0, #0
20007106:	db2c      	blt.n	20007162 <quorem+0x112>
20007108:	2300      	movs	r3, #0
2000710a:	3701      	adds	r7, #1
2000710c:	469c      	mov	ip, r3
2000710e:	58ea      	ldr	r2, [r5, r3]
20007110:	58e0      	ldr	r0, [r4, r3]
20007112:	b291      	uxth	r1, r2
20007114:	0c12      	lsrs	r2, r2, #16
20007116:	fa1f f980 	uxth.w	r9, r0
2000711a:	ebc2 4210 	rsb	r2, r2, r0, lsr #16
2000711e:	ebc1 0109 	rsb	r1, r1, r9
20007122:	4461      	add	r1, ip
20007124:	eb02 4221 	add.w	r2, r2, r1, asr #16
20007128:	b289      	uxth	r1, r1
2000712a:	ea41 4102 	orr.w	r1, r1, r2, lsl #16
2000712e:	50e1      	str	r1, [r4, r3]
20007130:	3304      	adds	r3, #4
20007132:	ea4f 4c22 	mov.w	ip, r2, asr #16
20007136:	195a      	adds	r2, r3, r5
20007138:	4590      	cmp	r8, r2
2000713a:	d2e8      	bcs.n	2000710e <quorem+0xbe>
2000713c:	1d32      	adds	r2, r6, #4
2000713e:	eb0a 0382 	add.w	r3, sl, r2, lsl #2
20007142:	6859      	ldr	r1, [r3, #4]
20007144:	b969      	cbnz	r1, 20007162 <quorem+0x112>
20007146:	429c      	cmp	r4, r3
20007148:	d209      	bcs.n	2000715e <quorem+0x10e>
2000714a:	f85a 2022 	ldr.w	r2, [sl, r2, lsl #2]
2000714e:	b112      	cbz	r2, 20007156 <quorem+0x106>
20007150:	e005      	b.n	2000715e <quorem+0x10e>
20007152:	681a      	ldr	r2, [r3, #0]
20007154:	b91a      	cbnz	r2, 2000715e <quorem+0x10e>
20007156:	3b04      	subs	r3, #4
20007158:	3e01      	subs	r6, #1
2000715a:	429c      	cmp	r4, r3
2000715c:	d3f9      	bcc.n	20007152 <quorem+0x102>
2000715e:	f8ca 6010 	str.w	r6, [sl, #16]
20007162:	4638      	mov	r0, r7
20007164:	e8bd 8ff8 	ldmia.w	sp!, {r3, r4, r5, r6, r7, r8, r9, sl, fp, pc}
20007168:	2000      	movs	r0, #0
2000716a:	e8bd 8ff8 	ldmia.w	sp!, {r3, r4, r5, r6, r7, r8, r9, sl, fp, pc}
2000716e:	bf00      	nop

20007170 <_dtoa_r>:
20007170:	e92d 4ff0 	stmdb	sp!, {r4, r5, r6, r7, r8, r9, sl, fp, lr}
20007174:	6a46      	ldr	r6, [r0, #36]	; 0x24
20007176:	b0a1      	sub	sp, #132	; 0x84
20007178:	4604      	mov	r4, r0
2000717a:	4690      	mov	r8, r2
2000717c:	4699      	mov	r9, r3
2000717e:	9d2d      	ldr	r5, [sp, #180]	; 0xb4
20007180:	2e00      	cmp	r6, #0
20007182:	f000 8423 	beq.w	200079cc <_dtoa_r+0x85c>
20007186:	6832      	ldr	r2, [r6, #0]
20007188:	b182      	cbz	r2, 200071ac <_dtoa_r+0x3c>
2000718a:	6a61      	ldr	r1, [r4, #36]	; 0x24
2000718c:	f04f 0c01 	mov.w	ip, #1
20007190:	6876      	ldr	r6, [r6, #4]
20007192:	4620      	mov	r0, r4
20007194:	680b      	ldr	r3, [r1, #0]
20007196:	6056      	str	r6, [r2, #4]
20007198:	684a      	ldr	r2, [r1, #4]
2000719a:	4619      	mov	r1, r3
2000719c:	fa0c f202 	lsl.w	r2, ip, r2
200071a0:	609a      	str	r2, [r3, #8]
200071a2:	f001 fd81 	bl	20008ca8 <_Bfree>
200071a6:	6a63      	ldr	r3, [r4, #36]	; 0x24
200071a8:	2200      	movs	r2, #0
200071aa:	601a      	str	r2, [r3, #0]
200071ac:	f1b9 0600 	subs.w	r6, r9, #0
200071b0:	db38      	blt.n	20007224 <_dtoa_r+0xb4>
200071b2:	2300      	movs	r3, #0
200071b4:	602b      	str	r3, [r5, #0]
200071b6:	f240 0300 	movw	r3, #0
200071ba:	f6c7 73f0 	movt	r3, #32752	; 0x7ff0
200071be:	461a      	mov	r2, r3
200071c0:	ea06 0303 	and.w	r3, r6, r3
200071c4:	4293      	cmp	r3, r2
200071c6:	d017      	beq.n	200071f8 <_dtoa_r+0x88>
200071c8:	2200      	movs	r2, #0
200071ca:	2300      	movs	r3, #0
200071cc:	4640      	mov	r0, r8
200071ce:	4649      	mov	r1, r9
200071d0:	e9cd 8906 	strd	r8, r9, [sp, #24]
200071d4:	f002 fe3e 	bl	20009e54 <__aeabi_dcmpeq>
200071d8:	2800      	cmp	r0, #0
200071da:	d029      	beq.n	20007230 <_dtoa_r+0xc0>
200071dc:	982c      	ldr	r0, [sp, #176]	; 0xb0
200071de:	2301      	movs	r3, #1
200071e0:	992e      	ldr	r1, [sp, #184]	; 0xb8
200071e2:	6003      	str	r3, [r0, #0]
200071e4:	2900      	cmp	r1, #0
200071e6:	f000 80d0 	beq.w	2000738a <_dtoa_r+0x21a>
200071ea:	4b79      	ldr	r3, [pc, #484]	; (200073d0 <_dtoa_r+0x260>)
200071ec:	1e58      	subs	r0, r3, #1
200071ee:	9a2e      	ldr	r2, [sp, #184]	; 0xb8
200071f0:	6013      	str	r3, [r2, #0]
200071f2:	b021      	add	sp, #132	; 0x84
200071f4:	e8bd 8ff0 	ldmia.w	sp!, {r4, r5, r6, r7, r8, r9, sl, fp, pc}
200071f8:	982c      	ldr	r0, [sp, #176]	; 0xb0
200071fa:	f242 730f 	movw	r3, #9999	; 0x270f
200071fe:	6003      	str	r3, [r0, #0]
20007200:	f1b8 0f00 	cmp.w	r8, #0
20007204:	f000 8095 	beq.w	20007332 <_dtoa_r+0x1c2>
20007208:	f64a 2070 	movw	r0, #43632	; 0xaa70
2000720c:	f2c2 0000 	movt	r0, #8192	; 0x2000
20007210:	992e      	ldr	r1, [sp, #184]	; 0xb8
20007212:	2900      	cmp	r1, #0
20007214:	d0ed      	beq.n	200071f2 <_dtoa_r+0x82>
20007216:	78c2      	ldrb	r2, [r0, #3]
20007218:	1cc3      	adds	r3, r0, #3
2000721a:	2a00      	cmp	r2, #0
2000721c:	d0e7      	beq.n	200071ee <_dtoa_r+0x7e>
2000721e:	f100 0308 	add.w	r3, r0, #8
20007222:	e7e4      	b.n	200071ee <_dtoa_r+0x7e>
20007224:	f026 4600 	bic.w	r6, r6, #2147483648	; 0x80000000
20007228:	2301      	movs	r3, #1
2000722a:	46b1      	mov	r9, r6
2000722c:	602b      	str	r3, [r5, #0]
2000722e:	e7c2      	b.n	200071b6 <_dtoa_r+0x46>
20007230:	4620      	mov	r0, r4
20007232:	e9dd 2306 	ldrd	r2, r3, [sp, #24]
20007236:	a91e      	add	r1, sp, #120	; 0x78
20007238:	9100      	str	r1, [sp, #0]
2000723a:	a91f      	add	r1, sp, #124	; 0x7c
2000723c:	9101      	str	r1, [sp, #4]
2000723e:	f001 fd85 	bl	20008d4c <__d2b>
20007242:	f3c6 550a 	ubfx	r5, r6, #20, #11
20007246:	4683      	mov	fp, r0
20007248:	2d00      	cmp	r5, #0
2000724a:	d07e      	beq.n	2000734a <_dtoa_r+0x1da>
2000724c:	e9dd 0106 	ldrd	r0, r1, [sp, #24]
20007250:	f5a5 757e 	sub.w	r5, r5, #1016	; 0x3f8
20007254:	9f1f      	ldr	r7, [sp, #124]	; 0x7c
20007256:	3d07      	subs	r5, #7
20007258:	f021 437f 	bic.w	r3, r1, #4278190080	; 0xff000000
2000725c:	f423 0370 	bic.w	r3, r3, #15728640	; 0xf00000
20007260:	f043 517e 	orr.w	r1, r3, #1065353216	; 0x3f800000
20007264:	2300      	movs	r3, #0
20007266:	f441 01e0 	orr.w	r1, r1, #7340032	; 0x700000
2000726a:	9319      	str	r3, [sp, #100]	; 0x64
2000726c:	f240 0300 	movw	r3, #0
20007270:	2200      	movs	r2, #0
20007272:	f6c3 73f8 	movt	r3, #16376	; 0x3ff8
20007276:	f002 f9d1 	bl	2000961c <__aeabi_dsub>
2000727a:	a34f      	add	r3, pc, #316	; (adr r3, 200073b8 <_dtoa_r+0x248>)
2000727c:	e9d3 2300 	ldrd	r2, r3, [r3]
20007280:	f002 fb80 	bl	20009984 <__aeabi_dmul>
20007284:	a34e      	add	r3, pc, #312	; (adr r3, 200073c0 <_dtoa_r+0x250>)
20007286:	e9d3 2300 	ldrd	r2, r3, [r3]
2000728a:	f002 f9c9 	bl	20009620 <__adddf3>
2000728e:	e9cd 0108 	strd	r0, r1, [sp, #32]
20007292:	4628      	mov	r0, r5
20007294:	f002 fb10 	bl	200098b8 <__aeabi_i2d>
20007298:	a34b      	add	r3, pc, #300	; (adr r3, 200073c8 <_dtoa_r+0x258>)
2000729a:	e9d3 2300 	ldrd	r2, r3, [r3]
2000729e:	f002 fb71 	bl	20009984 <__aeabi_dmul>
200072a2:	4602      	mov	r2, r0
200072a4:	460b      	mov	r3, r1
200072a6:	e9dd 0108 	ldrd	r0, r1, [sp, #32]
200072aa:	f002 f9b9 	bl	20009620 <__adddf3>
200072ae:	e9cd 0108 	strd	r0, r1, [sp, #32]
200072b2:	f002 fe01 	bl	20009eb8 <__aeabi_d2iz>
200072b6:	2200      	movs	r2, #0
200072b8:	2300      	movs	r3, #0
200072ba:	4606      	mov	r6, r0
200072bc:	e9dd 0108 	ldrd	r0, r1, [sp, #32]
200072c0:	f002 fdd2 	bl	20009e68 <__aeabi_dcmplt>
200072c4:	b140      	cbz	r0, 200072d8 <_dtoa_r+0x168>
200072c6:	4630      	mov	r0, r6
200072c8:	f002 faf6 	bl	200098b8 <__aeabi_i2d>
200072cc:	e9dd 2308 	ldrd	r2, r3, [sp, #32]
200072d0:	f002 fdc0 	bl	20009e54 <__aeabi_dcmpeq>
200072d4:	b900      	cbnz	r0, 200072d8 <_dtoa_r+0x168>
200072d6:	3e01      	subs	r6, #1
200072d8:	2e16      	cmp	r6, #22
200072da:	d95b      	bls.n	20007394 <_dtoa_r+0x224>
200072dc:	2301      	movs	r3, #1
200072de:	9318      	str	r3, [sp, #96]	; 0x60
200072e0:	3f01      	subs	r7, #1
200072e2:	ebb7 0a05 	subs.w	sl, r7, r5
200072e6:	bf42      	ittt	mi
200072e8:	f1ca 0a00 	rsbmi	sl, sl, #0
200072ec:	f8cd a03c 	strmi.w	sl, [sp, #60]	; 0x3c
200072f0:	f04f 0a00 	movmi.w	sl, #0
200072f4:	d401      	bmi.n	200072fa <_dtoa_r+0x18a>
200072f6:	2200      	movs	r2, #0
200072f8:	920f      	str	r2, [sp, #60]	; 0x3c
200072fa:	2e00      	cmp	r6, #0
200072fc:	f2c0 8371 	blt.w	200079e2 <_dtoa_r+0x872>
20007300:	44b2      	add	sl, r6
20007302:	2300      	movs	r3, #0
20007304:	9617      	str	r6, [sp, #92]	; 0x5c
20007306:	9315      	str	r3, [sp, #84]	; 0x54
20007308:	9b2a      	ldr	r3, [sp, #168]	; 0xa8
2000730a:	2b09      	cmp	r3, #9
2000730c:	d862      	bhi.n	200073d4 <_dtoa_r+0x264>
2000730e:	2b05      	cmp	r3, #5
20007310:	f340 8677 	ble.w	20008002 <_dtoa_r+0xe92>
20007314:	982a      	ldr	r0, [sp, #168]	; 0xa8
20007316:	2700      	movs	r7, #0
20007318:	3804      	subs	r0, #4
2000731a:	902a      	str	r0, [sp, #168]	; 0xa8
2000731c:	992a      	ldr	r1, [sp, #168]	; 0xa8
2000731e:	1e8b      	subs	r3, r1, #2
20007320:	2b03      	cmp	r3, #3
20007322:	f200 83dd 	bhi.w	20007ae0 <_dtoa_r+0x970>
20007326:	e8df f013 	tbh	[pc, r3, lsl #1]
2000732a:	03a5      	.short	0x03a5
2000732c:	03d503d8 	.word	0x03d503d8
20007330:	03c4      	.short	0x03c4
20007332:	f026 467f 	bic.w	r6, r6, #4278190080	; 0xff000000
20007336:	f426 0670 	bic.w	r6, r6, #15728640	; 0xf00000
2000733a:	2e00      	cmp	r6, #0
2000733c:	f47f af64 	bne.w	20007208 <_dtoa_r+0x98>
20007340:	f64a 2064 	movw	r0, #43620	; 0xaa64
20007344:	f2c2 0000 	movt	r0, #8192	; 0x2000
20007348:	e762      	b.n	20007210 <_dtoa_r+0xa0>
2000734a:	9f1f      	ldr	r7, [sp, #124]	; 0x7c
2000734c:	9b1e      	ldr	r3, [sp, #120]	; 0x78
2000734e:	18fb      	adds	r3, r7, r3
20007350:	f503 6386 	add.w	r3, r3, #1072	; 0x430
20007354:	1c9d      	adds	r5, r3, #2
20007356:	2d20      	cmp	r5, #32
20007358:	bfdc      	itt	le
2000735a:	f1c5 0020 	rsble	r0, r5, #32
2000735e:	fa08 f000 	lslle.w	r0, r8, r0
20007362:	dd08      	ble.n	20007376 <_dtoa_r+0x206>
20007364:	3b1e      	subs	r3, #30
20007366:	f1c5 0240 	rsb	r2, r5, #64	; 0x40
2000736a:	fa16 f202 	lsls.w	r2, r6, r2
2000736e:	fa28 f303 	lsr.w	r3, r8, r3
20007372:	ea42 0003 	orr.w	r0, r2, r3
20007376:	f002 fa8f 	bl	20009898 <__aeabi_ui2d>
2000737a:	f5a5 6586 	sub.w	r5, r5, #1072	; 0x430
2000737e:	2201      	movs	r2, #1
20007380:	3d03      	subs	r5, #3
20007382:	9219      	str	r2, [sp, #100]	; 0x64
20007384:	f1a1 71f8 	sub.w	r1, r1, #32505856	; 0x1f00000
20007388:	e770      	b.n	2000726c <_dtoa_r+0xfc>
2000738a:	f64a 2060 	movw	r0, #43616	; 0xaa60
2000738e:	f2c2 0000 	movt	r0, #8192	; 0x2000
20007392:	e72e      	b.n	200071f2 <_dtoa_r+0x82>
20007394:	f64a 2390 	movw	r3, #43664	; 0xaa90
20007398:	e9dd 0106 	ldrd	r0, r1, [sp, #24]
2000739c:	f2c2 0300 	movt	r3, #8192	; 0x2000
200073a0:	eb03 03c6 	add.w	r3, r3, r6, lsl #3
200073a4:	e9d3 2300 	ldrd	r2, r3, [r3]
200073a8:	f002 fd5e 	bl	20009e68 <__aeabi_dcmplt>
200073ac:	2800      	cmp	r0, #0
200073ae:	f040 8320 	bne.w	200079f2 <_dtoa_r+0x882>
200073b2:	9018      	str	r0, [sp, #96]	; 0x60
200073b4:	e794      	b.n	200072e0 <_dtoa_r+0x170>
200073b6:	bf00      	nop
200073b8:	636f4361 	.word	0x636f4361
200073bc:	3fd287a7 	.word	0x3fd287a7
200073c0:	8b60c8b3 	.word	0x8b60c8b3
200073c4:	3fc68a28 	.word	0x3fc68a28
200073c8:	509f79fb 	.word	0x509f79fb
200073cc:	3fd34413 	.word	0x3fd34413
200073d0:	2000aa61 	.word	0x2000aa61
200073d4:	2300      	movs	r3, #0
200073d6:	f04f 30ff 	mov.w	r0, #4294967295
200073da:	461f      	mov	r7, r3
200073dc:	2101      	movs	r1, #1
200073de:	932a      	str	r3, [sp, #168]	; 0xa8
200073e0:	9011      	str	r0, [sp, #68]	; 0x44
200073e2:	9116      	str	r1, [sp, #88]	; 0x58
200073e4:	9008      	str	r0, [sp, #32]
200073e6:	932b      	str	r3, [sp, #172]	; 0xac
200073e8:	6a65      	ldr	r5, [r4, #36]	; 0x24
200073ea:	2300      	movs	r3, #0
200073ec:	606b      	str	r3, [r5, #4]
200073ee:	4620      	mov	r0, r4
200073f0:	6869      	ldr	r1, [r5, #4]
200073f2:	f001 fc75 	bl	20008ce0 <_Balloc>
200073f6:	6a63      	ldr	r3, [r4, #36]	; 0x24
200073f8:	6028      	str	r0, [r5, #0]
200073fa:	681b      	ldr	r3, [r3, #0]
200073fc:	9310      	str	r3, [sp, #64]	; 0x40
200073fe:	2f00      	cmp	r7, #0
20007400:	f000 815b 	beq.w	200076ba <_dtoa_r+0x54a>
20007404:	2e00      	cmp	r6, #0
20007406:	f340 842a 	ble.w	20007c5e <_dtoa_r+0xaee>
2000740a:	f64a 2390 	movw	r3, #43664	; 0xaa90
2000740e:	f006 020f 	and.w	r2, r6, #15
20007412:	f2c2 0300 	movt	r3, #8192	; 0x2000
20007416:	1135      	asrs	r5, r6, #4
20007418:	eb03 03c2 	add.w	r3, r3, r2, lsl #3
2000741c:	f015 0f10 	tst.w	r5, #16
20007420:	e9d3 0100 	ldrd	r0, r1, [r3]
20007424:	e9cd 010c 	strd	r0, r1, [sp, #48]	; 0x30
20007428:	f000 82e7 	beq.w	200079fa <_dtoa_r+0x88a>
2000742c:	f64a 3368 	movw	r3, #43880	; 0xab68
20007430:	e9dd 0106 	ldrd	r0, r1, [sp, #24]
20007434:	f2c2 0300 	movt	r3, #8192	; 0x2000
20007438:	f005 050f 	and.w	r5, r5, #15
2000743c:	f04f 0803 	mov.w	r8, #3
20007440:	e9d3 2308 	ldrd	r2, r3, [r3, #32]
20007444:	f002 fbc8 	bl	20009bd8 <__aeabi_ddiv>
20007448:	e9cd 0112 	strd	r0, r1, [sp, #72]	; 0x48
2000744c:	b1bd      	cbz	r5, 2000747e <_dtoa_r+0x30e>
2000744e:	f64a 3768 	movw	r7, #43880	; 0xab68
20007452:	e9dd 230c 	ldrd	r2, r3, [sp, #48]	; 0x30
20007456:	f2c2 0700 	movt	r7, #8192	; 0x2000
2000745a:	f015 0f01 	tst.w	r5, #1
2000745e:	4610      	mov	r0, r2
20007460:	4619      	mov	r1, r3
20007462:	d007      	beq.n	20007474 <_dtoa_r+0x304>
20007464:	e9d7 2300 	ldrd	r2, r3, [r7]
20007468:	f108 0801 	add.w	r8, r8, #1
2000746c:	f002 fa8a 	bl	20009984 <__aeabi_dmul>
20007470:	4602      	mov	r2, r0
20007472:	460b      	mov	r3, r1
20007474:	3708      	adds	r7, #8
20007476:	106d      	asrs	r5, r5, #1
20007478:	d1ef      	bne.n	2000745a <_dtoa_r+0x2ea>
2000747a:	e9cd 230c 	strd	r2, r3, [sp, #48]	; 0x30
2000747e:	e9dd 230c 	ldrd	r2, r3, [sp, #48]	; 0x30
20007482:	e9dd 0112 	ldrd	r0, r1, [sp, #72]	; 0x48
20007486:	f002 fba7 	bl	20009bd8 <__aeabi_ddiv>
2000748a:	e9cd 010c 	strd	r0, r1, [sp, #48]	; 0x30
2000748e:	9918      	ldr	r1, [sp, #96]	; 0x60
20007490:	2900      	cmp	r1, #0
20007492:	f000 80de 	beq.w	20007652 <_dtoa_r+0x4e2>
20007496:	f240 0300 	movw	r3, #0
2000749a:	e9dd 010c 	ldrd	r0, r1, [sp, #48]	; 0x30
2000749e:	2200      	movs	r2, #0
200074a0:	f6c3 73f0 	movt	r3, #16368	; 0x3ff0
200074a4:	f04f 0500 	mov.w	r5, #0
200074a8:	f002 fcde 	bl	20009e68 <__aeabi_dcmplt>
200074ac:	b108      	cbz	r0, 200074b2 <_dtoa_r+0x342>
200074ae:	f04f 0501 	mov.w	r5, #1
200074b2:	9a08      	ldr	r2, [sp, #32]
200074b4:	2a00      	cmp	r2, #0
200074b6:	bfd4      	ite	le
200074b8:	2500      	movle	r5, #0
200074ba:	f005 0501 	andgt.w	r5, r5, #1
200074be:	2d00      	cmp	r5, #0
200074c0:	f000 80c7 	beq.w	20007652 <_dtoa_r+0x4e2>
200074c4:	9b11      	ldr	r3, [sp, #68]	; 0x44
200074c6:	2b00      	cmp	r3, #0
200074c8:	f340 80f5 	ble.w	200076b6 <_dtoa_r+0x546>
200074cc:	f240 0300 	movw	r3, #0
200074d0:	2200      	movs	r2, #0
200074d2:	f2c4 0324 	movt	r3, #16420	; 0x4024
200074d6:	e9dd 010c 	ldrd	r0, r1, [sp, #48]	; 0x30
200074da:	f002 fa53 	bl	20009984 <__aeabi_dmul>
200074de:	e9cd 010c 	strd	r0, r1, [sp, #48]	; 0x30
200074e2:	f108 0001 	add.w	r0, r8, #1
200074e6:	1e71      	subs	r1, r6, #1
200074e8:	9112      	str	r1, [sp, #72]	; 0x48
200074ea:	f002 f9e5 	bl	200098b8 <__aeabi_i2d>
200074ee:	4602      	mov	r2, r0
200074f0:	460b      	mov	r3, r1
200074f2:	e9dd 010c 	ldrd	r0, r1, [sp, #48]	; 0x30
200074f6:	f002 fa45 	bl	20009984 <__aeabi_dmul>
200074fa:	f240 0300 	movw	r3, #0
200074fe:	2200      	movs	r2, #0
20007500:	f2c4 031c 	movt	r3, #16412	; 0x401c
20007504:	f002 f88c 	bl	20009620 <__adddf3>
20007508:	f8dd c044 	ldr.w	ip, [sp, #68]	; 0x44
2000750c:	4680      	mov	r8, r0
2000750e:	f1a1 7950 	sub.w	r9, r1, #54525952	; 0x3400000
20007512:	9b16      	ldr	r3, [sp, #88]	; 0x58
20007514:	2b00      	cmp	r3, #0
20007516:	f000 83ad 	beq.w	20007c74 <_dtoa_r+0xb04>
2000751a:	f64a 2390 	movw	r3, #43664	; 0xaa90
2000751e:	f240 0100 	movw	r1, #0
20007522:	f2c2 0300 	movt	r3, #8192	; 0x2000
20007526:	2000      	movs	r0, #0
20007528:	eb03 03cc 	add.w	r3, r3, ip, lsl #3
2000752c:	f6c3 71e0 	movt	r1, #16352	; 0x3fe0
20007530:	f8cd c00c 	str.w	ip, [sp, #12]
20007534:	e953 2302 	ldrd	r2, r3, [r3, #-8]
20007538:	f002 fb4e 	bl	20009bd8 <__aeabi_ddiv>
2000753c:	4642      	mov	r2, r8
2000753e:	464b      	mov	r3, r9
20007540:	9d10      	ldr	r5, [sp, #64]	; 0x40
20007542:	f002 f86b 	bl	2000961c <__aeabi_dsub>
20007546:	4680      	mov	r8, r0
20007548:	4689      	mov	r9, r1
2000754a:	e9dd 010c 	ldrd	r0, r1, [sp, #48]	; 0x30
2000754e:	f002 fcb3 	bl	20009eb8 <__aeabi_d2iz>
20007552:	4607      	mov	r7, r0
20007554:	f002 f9b0 	bl	200098b8 <__aeabi_i2d>
20007558:	4602      	mov	r2, r0
2000755a:	460b      	mov	r3, r1
2000755c:	e9dd 010c 	ldrd	r0, r1, [sp, #48]	; 0x30
20007560:	f002 f85c 	bl	2000961c <__aeabi_dsub>
20007564:	f107 0330 	add.w	r3, r7, #48	; 0x30
20007568:	e9cd 010c 	strd	r0, r1, [sp, #48]	; 0x30
2000756c:	4640      	mov	r0, r8
2000756e:	f805 3b01 	strb.w	r3, [r5], #1
20007572:	4649      	mov	r1, r9
20007574:	e9dd 230c 	ldrd	r2, r3, [sp, #48]	; 0x30
20007578:	f002 fc94 	bl	20009ea4 <__aeabi_dcmpgt>
2000757c:	2800      	cmp	r0, #0
2000757e:	f040 8213 	bne.w	200079a8 <_dtoa_r+0x838>
20007582:	f240 0100 	movw	r1, #0
20007586:	e9dd 230c 	ldrd	r2, r3, [sp, #48]	; 0x30
2000758a:	2000      	movs	r0, #0
2000758c:	f6c3 71f0 	movt	r1, #16368	; 0x3ff0
20007590:	f002 f844 	bl	2000961c <__aeabi_dsub>
20007594:	4602      	mov	r2, r0
20007596:	460b      	mov	r3, r1
20007598:	4640      	mov	r0, r8
2000759a:	4649      	mov	r1, r9
2000759c:	f002 fc82 	bl	20009ea4 <__aeabi_dcmpgt>
200075a0:	f8dd c00c 	ldr.w	ip, [sp, #12]
200075a4:	2800      	cmp	r0, #0
200075a6:	f040 83e7 	bne.w	20007d78 <_dtoa_r+0xc08>
200075aa:	f1bc 0f01 	cmp.w	ip, #1
200075ae:	f340 8082 	ble.w	200076b6 <_dtoa_r+0x546>
200075b2:	f8cd b068 	str.w	fp, [sp, #104]	; 0x68
200075b6:	2701      	movs	r7, #1
200075b8:	f8cd a070 	str.w	sl, [sp, #112]	; 0x70
200075bc:	961d      	str	r6, [sp, #116]	; 0x74
200075be:	4666      	mov	r6, ip
200075c0:	e9dd ab0c 	ldrd	sl, fp, [sp, #48]	; 0x30
200075c4:	940c      	str	r4, [sp, #48]	; 0x30
200075c6:	e010      	b.n	200075ea <_dtoa_r+0x47a>
200075c8:	f240 0100 	movw	r1, #0
200075cc:	2000      	movs	r0, #0
200075ce:	f6c3 71f0 	movt	r1, #16368	; 0x3ff0
200075d2:	f002 f823 	bl	2000961c <__aeabi_dsub>
200075d6:	4642      	mov	r2, r8
200075d8:	464b      	mov	r3, r9
200075da:	f002 fc45 	bl	20009e68 <__aeabi_dcmplt>
200075de:	2800      	cmp	r0, #0
200075e0:	f040 83c7 	bne.w	20007d72 <_dtoa_r+0xc02>
200075e4:	42b7      	cmp	r7, r6
200075e6:	f280 848b 	bge.w	20007f00 <_dtoa_r+0xd90>
200075ea:	f240 0300 	movw	r3, #0
200075ee:	4640      	mov	r0, r8
200075f0:	4649      	mov	r1, r9
200075f2:	2200      	movs	r2, #0
200075f4:	f2c4 0324 	movt	r3, #16420	; 0x4024
200075f8:	3501      	adds	r5, #1
200075fa:	f002 f9c3 	bl	20009984 <__aeabi_dmul>
200075fe:	f240 0300 	movw	r3, #0
20007602:	2200      	movs	r2, #0
20007604:	f2c4 0324 	movt	r3, #16420	; 0x4024
20007608:	4680      	mov	r8, r0
2000760a:	4689      	mov	r9, r1
2000760c:	4650      	mov	r0, sl
2000760e:	4659      	mov	r1, fp
20007610:	f002 f9b8 	bl	20009984 <__aeabi_dmul>
20007614:	468b      	mov	fp, r1
20007616:	4682      	mov	sl, r0
20007618:	f002 fc4e 	bl	20009eb8 <__aeabi_d2iz>
2000761c:	4604      	mov	r4, r0
2000761e:	f002 f94b 	bl	200098b8 <__aeabi_i2d>
20007622:	3430      	adds	r4, #48	; 0x30
20007624:	4602      	mov	r2, r0
20007626:	460b      	mov	r3, r1
20007628:	4650      	mov	r0, sl
2000762a:	4659      	mov	r1, fp
2000762c:	f001 fff6 	bl	2000961c <__aeabi_dsub>
20007630:	9a10      	ldr	r2, [sp, #64]	; 0x40
20007632:	464b      	mov	r3, r9
20007634:	55d4      	strb	r4, [r2, r7]
20007636:	4642      	mov	r2, r8
20007638:	3701      	adds	r7, #1
2000763a:	4682      	mov	sl, r0
2000763c:	468b      	mov	fp, r1
2000763e:	f002 fc13 	bl	20009e68 <__aeabi_dcmplt>
20007642:	4652      	mov	r2, sl
20007644:	465b      	mov	r3, fp
20007646:	2800      	cmp	r0, #0
20007648:	d0be      	beq.n	200075c8 <_dtoa_r+0x458>
2000764a:	f8dd b068 	ldr.w	fp, [sp, #104]	; 0x68
2000764e:	9c0c      	ldr	r4, [sp, #48]	; 0x30
20007650:	e1aa      	b.n	200079a8 <_dtoa_r+0x838>
20007652:	4640      	mov	r0, r8
20007654:	f002 f930 	bl	200098b8 <__aeabi_i2d>
20007658:	e9dd 230c 	ldrd	r2, r3, [sp, #48]	; 0x30
2000765c:	f002 f992 	bl	20009984 <__aeabi_dmul>
20007660:	f240 0300 	movw	r3, #0
20007664:	2200      	movs	r2, #0
20007666:	f2c4 031c 	movt	r3, #16412	; 0x401c
2000766a:	f001 ffd9 	bl	20009620 <__adddf3>
2000766e:	9a08      	ldr	r2, [sp, #32]
20007670:	f1a1 7550 	sub.w	r5, r1, #54525952	; 0x3400000
20007674:	4680      	mov	r8, r0
20007676:	46a9      	mov	r9, r5
20007678:	2a00      	cmp	r2, #0
2000767a:	f040 82ec 	bne.w	20007c56 <_dtoa_r+0xae6>
2000767e:	f240 0300 	movw	r3, #0
20007682:	e9dd 010c 	ldrd	r0, r1, [sp, #48]	; 0x30
20007686:	2200      	movs	r2, #0
20007688:	f2c4 0314 	movt	r3, #16404	; 0x4014
2000768c:	f001 ffc6 	bl	2000961c <__aeabi_dsub>
20007690:	4642      	mov	r2, r8
20007692:	462b      	mov	r3, r5
20007694:	e9cd 010c 	strd	r0, r1, [sp, #48]	; 0x30
20007698:	f002 fc04 	bl	20009ea4 <__aeabi_dcmpgt>
2000769c:	2800      	cmp	r0, #0
2000769e:	f040 824a 	bne.w	20007b36 <_dtoa_r+0x9c6>
200076a2:	4642      	mov	r2, r8
200076a4:	e9dd 010c 	ldrd	r0, r1, [sp, #48]	; 0x30
200076a8:	f105 4300 	add.w	r3, r5, #2147483648	; 0x80000000
200076ac:	f002 fbdc 	bl	20009e68 <__aeabi_dcmplt>
200076b0:	2800      	cmp	r0, #0
200076b2:	f040 81d5 	bne.w	20007a60 <_dtoa_r+0x8f0>
200076b6:	e9dd 8906 	ldrd	r8, r9, [sp, #24]
200076ba:	9b1e      	ldr	r3, [sp, #120]	; 0x78
200076bc:	ea6f 0703 	mvn.w	r7, r3
200076c0:	ea4f 77d7 	mov.w	r7, r7, lsr #31
200076c4:	2e0e      	cmp	r6, #14
200076c6:	bfcc      	ite	gt
200076c8:	2700      	movgt	r7, #0
200076ca:	f007 0701 	andle.w	r7, r7, #1
200076ce:	2f00      	cmp	r7, #0
200076d0:	f000 80b7 	beq.w	20007842 <_dtoa_r+0x6d2>
200076d4:	982b      	ldr	r0, [sp, #172]	; 0xac
200076d6:	f64a 2390 	movw	r3, #43664	; 0xaa90
200076da:	f2c2 0300 	movt	r3, #8192	; 0x2000
200076de:	9908      	ldr	r1, [sp, #32]
200076e0:	eb03 03c6 	add.w	r3, r3, r6, lsl #3
200076e4:	0fc2      	lsrs	r2, r0, #31
200076e6:	2900      	cmp	r1, #0
200076e8:	bfcc      	ite	gt
200076ea:	2200      	movgt	r2, #0
200076ec:	f002 0201 	andle.w	r2, r2, #1
200076f0:	e9d3 0100 	ldrd	r0, r1, [r3]
200076f4:	e9cd 0104 	strd	r0, r1, [sp, #16]
200076f8:	2a00      	cmp	r2, #0
200076fa:	f040 81a0 	bne.w	20007a3e <_dtoa_r+0x8ce>
200076fe:	4602      	mov	r2, r0
20007700:	460b      	mov	r3, r1
20007702:	4640      	mov	r0, r8
20007704:	4649      	mov	r1, r9
20007706:	f002 fa67 	bl	20009bd8 <__aeabi_ddiv>
2000770a:	9d10      	ldr	r5, [sp, #64]	; 0x40
2000770c:	f002 fbd4 	bl	20009eb8 <__aeabi_d2iz>
20007710:	4682      	mov	sl, r0
20007712:	f002 f8d1 	bl	200098b8 <__aeabi_i2d>
20007716:	e9dd 2304 	ldrd	r2, r3, [sp, #16]
2000771a:	f002 f933 	bl	20009984 <__aeabi_dmul>
2000771e:	4602      	mov	r2, r0
20007720:	460b      	mov	r3, r1
20007722:	4640      	mov	r0, r8
20007724:	4649      	mov	r1, r9
20007726:	f001 ff79 	bl	2000961c <__aeabi_dsub>
2000772a:	f10a 0330 	add.w	r3, sl, #48	; 0x30
2000772e:	f805 3b01 	strb.w	r3, [r5], #1
20007732:	9a08      	ldr	r2, [sp, #32]
20007734:	2a01      	cmp	r2, #1
20007736:	4680      	mov	r8, r0
20007738:	4689      	mov	r9, r1
2000773a:	d052      	beq.n	200077e2 <_dtoa_r+0x672>
2000773c:	f240 0300 	movw	r3, #0
20007740:	2200      	movs	r2, #0
20007742:	f2c4 0324 	movt	r3, #16420	; 0x4024
20007746:	f002 f91d 	bl	20009984 <__aeabi_dmul>
2000774a:	2200      	movs	r2, #0
2000774c:	2300      	movs	r3, #0
2000774e:	e9cd 0106 	strd	r0, r1, [sp, #24]
20007752:	f002 fb7f 	bl	20009e54 <__aeabi_dcmpeq>
20007756:	2800      	cmp	r0, #0
20007758:	f040 81eb 	bne.w	20007b32 <_dtoa_r+0x9c2>
2000775c:	9810      	ldr	r0, [sp, #64]	; 0x40
2000775e:	f04f 0801 	mov.w	r8, #1
20007762:	f8cd b02c 	str.w	fp, [sp, #44]	; 0x2c
20007766:	46a3      	mov	fp, r4
20007768:	1c87      	adds	r7, r0, #2
2000776a:	960f      	str	r6, [sp, #60]	; 0x3c
2000776c:	f8dd 9020 	ldr.w	r9, [sp, #32]
20007770:	e9dd 4506 	ldrd	r4, r5, [sp, #24]
20007774:	e00a      	b.n	2000778c <_dtoa_r+0x61c>
20007776:	f002 f905 	bl	20009984 <__aeabi_dmul>
2000777a:	2200      	movs	r2, #0
2000777c:	2300      	movs	r3, #0
2000777e:	4604      	mov	r4, r0
20007780:	460d      	mov	r5, r1
20007782:	f002 fb67 	bl	20009e54 <__aeabi_dcmpeq>
20007786:	2800      	cmp	r0, #0
20007788:	f040 81ce 	bne.w	20007b28 <_dtoa_r+0x9b8>
2000778c:	e9dd 2304 	ldrd	r2, r3, [sp, #16]
20007790:	4620      	mov	r0, r4
20007792:	4629      	mov	r1, r5
20007794:	f108 0801 	add.w	r8, r8, #1
20007798:	f002 fa1e 	bl	20009bd8 <__aeabi_ddiv>
2000779c:	463e      	mov	r6, r7
2000779e:	f002 fb8b 	bl	20009eb8 <__aeabi_d2iz>
200077a2:	4682      	mov	sl, r0
200077a4:	f002 f888 	bl	200098b8 <__aeabi_i2d>
200077a8:	e9dd 2304 	ldrd	r2, r3, [sp, #16]
200077ac:	f002 f8ea 	bl	20009984 <__aeabi_dmul>
200077b0:	4602      	mov	r2, r0
200077b2:	460b      	mov	r3, r1
200077b4:	4620      	mov	r0, r4
200077b6:	4629      	mov	r1, r5
200077b8:	f001 ff30 	bl	2000961c <__aeabi_dsub>
200077bc:	2200      	movs	r2, #0
200077be:	f10a 0c30 	add.w	ip, sl, #48	; 0x30
200077c2:	f807 cc01 	strb.w	ip, [r7, #-1]
200077c6:	3701      	adds	r7, #1
200077c8:	45c1      	cmp	r9, r8
200077ca:	f240 0300 	movw	r3, #0
200077ce:	f2c4 0324 	movt	r3, #16420	; 0x4024
200077d2:	d1d0      	bne.n	20007776 <_dtoa_r+0x606>
200077d4:	4635      	mov	r5, r6
200077d6:	465c      	mov	r4, fp
200077d8:	9e0f      	ldr	r6, [sp, #60]	; 0x3c
200077da:	4680      	mov	r8, r0
200077dc:	f8dd b02c 	ldr.w	fp, [sp, #44]	; 0x2c
200077e0:	4689      	mov	r9, r1
200077e2:	4642      	mov	r2, r8
200077e4:	464b      	mov	r3, r9
200077e6:	4640      	mov	r0, r8
200077e8:	4649      	mov	r1, r9
200077ea:	f001 ff19 	bl	20009620 <__adddf3>
200077ee:	4680      	mov	r8, r0
200077f0:	4689      	mov	r9, r1
200077f2:	4642      	mov	r2, r8
200077f4:	e9dd 0104 	ldrd	r0, r1, [sp, #16]
200077f8:	464b      	mov	r3, r9
200077fa:	f002 fb35 	bl	20009e68 <__aeabi_dcmplt>
200077fe:	b960      	cbnz	r0, 2000781a <_dtoa_r+0x6aa>
20007800:	e9dd 0104 	ldrd	r0, r1, [sp, #16]
20007804:	4642      	mov	r2, r8
20007806:	464b      	mov	r3, r9
20007808:	f002 fb24 	bl	20009e54 <__aeabi_dcmpeq>
2000780c:	2800      	cmp	r0, #0
2000780e:	f000 8190 	beq.w	20007b32 <_dtoa_r+0x9c2>
20007812:	f01a 0f01 	tst.w	sl, #1
20007816:	f000 818c 	beq.w	20007b32 <_dtoa_r+0x9c2>
2000781a:	9910      	ldr	r1, [sp, #64]	; 0x40
2000781c:	e000      	b.n	20007820 <_dtoa_r+0x6b0>
2000781e:	461d      	mov	r5, r3
20007820:	f815 2c01 	ldrb.w	r2, [r5, #-1]
20007824:	1e6b      	subs	r3, r5, #1
20007826:	2a39      	cmp	r2, #57	; 0x39
20007828:	f040 8367 	bne.w	20007efa <_dtoa_r+0xd8a>
2000782c:	428b      	cmp	r3, r1
2000782e:	d1f6      	bne.n	2000781e <_dtoa_r+0x6ae>
20007830:	9910      	ldr	r1, [sp, #64]	; 0x40
20007832:	2330      	movs	r3, #48	; 0x30
20007834:	3601      	adds	r6, #1
20007836:	2231      	movs	r2, #49	; 0x31
20007838:	700b      	strb	r3, [r1, #0]
2000783a:	9b10      	ldr	r3, [sp, #64]	; 0x40
2000783c:	701a      	strb	r2, [r3, #0]
2000783e:	9612      	str	r6, [sp, #72]	; 0x48
20007840:	e0b2      	b.n	200079a8 <_dtoa_r+0x838>
20007842:	9a16      	ldr	r2, [sp, #88]	; 0x58
20007844:	2a00      	cmp	r2, #0
20007846:	f040 80df 	bne.w	20007a08 <_dtoa_r+0x898>
2000784a:	9f15      	ldr	r7, [sp, #84]	; 0x54
2000784c:	9d0f      	ldr	r5, [sp, #60]	; 0x3c
2000784e:	920c      	str	r2, [sp, #48]	; 0x30
20007850:	2d00      	cmp	r5, #0
20007852:	bfd4      	ite	le
20007854:	2300      	movle	r3, #0
20007856:	2301      	movgt	r3, #1
20007858:	f1ba 0f00 	cmp.w	sl, #0
2000785c:	bfd4      	ite	le
2000785e:	2300      	movle	r3, #0
20007860:	f003 0301 	andgt.w	r3, r3, #1
20007864:	b14b      	cbz	r3, 2000787a <_dtoa_r+0x70a>
20007866:	45aa      	cmp	sl, r5
20007868:	bfb4      	ite	lt
2000786a:	4653      	movlt	r3, sl
2000786c:	462b      	movge	r3, r5
2000786e:	980f      	ldr	r0, [sp, #60]	; 0x3c
20007870:	ebc3 0a0a 	rsb	sl, r3, sl
20007874:	1aed      	subs	r5, r5, r3
20007876:	1ac0      	subs	r0, r0, r3
20007878:	900f      	str	r0, [sp, #60]	; 0x3c
2000787a:	9915      	ldr	r1, [sp, #84]	; 0x54
2000787c:	2900      	cmp	r1, #0
2000787e:	dd1c      	ble.n	200078ba <_dtoa_r+0x74a>
20007880:	9a16      	ldr	r2, [sp, #88]	; 0x58
20007882:	2a00      	cmp	r2, #0
20007884:	f000 82e9 	beq.w	20007e5a <_dtoa_r+0xcea>
20007888:	2f00      	cmp	r7, #0
2000788a:	dd12      	ble.n	200078b2 <_dtoa_r+0x742>
2000788c:	990c      	ldr	r1, [sp, #48]	; 0x30
2000788e:	463a      	mov	r2, r7
20007890:	4620      	mov	r0, r4
20007892:	f001 fc85 	bl	200091a0 <__pow5mult>
20007896:	465a      	mov	r2, fp
20007898:	900c      	str	r0, [sp, #48]	; 0x30
2000789a:	4620      	mov	r0, r4
2000789c:	990c      	ldr	r1, [sp, #48]	; 0x30
2000789e:	f001 fb97 	bl	20008fd0 <__multiply>
200078a2:	4659      	mov	r1, fp
200078a4:	4603      	mov	r3, r0
200078a6:	4620      	mov	r0, r4
200078a8:	9303      	str	r3, [sp, #12]
200078aa:	f001 f9fd 	bl	20008ca8 <_Bfree>
200078ae:	9b03      	ldr	r3, [sp, #12]
200078b0:	469b      	mov	fp, r3
200078b2:	9b15      	ldr	r3, [sp, #84]	; 0x54
200078b4:	1bda      	subs	r2, r3, r7
200078b6:	f040 8311 	bne.w	20007edc <_dtoa_r+0xd6c>
200078ba:	2101      	movs	r1, #1
200078bc:	4620      	mov	r0, r4
200078be:	f001 fc21 	bl	20009104 <__i2b>
200078c2:	9006      	str	r0, [sp, #24]
200078c4:	9817      	ldr	r0, [sp, #92]	; 0x5c
200078c6:	2800      	cmp	r0, #0
200078c8:	dd05      	ble.n	200078d6 <_dtoa_r+0x766>
200078ca:	9906      	ldr	r1, [sp, #24]
200078cc:	4620      	mov	r0, r4
200078ce:	9a17      	ldr	r2, [sp, #92]	; 0x5c
200078d0:	f001 fc66 	bl	200091a0 <__pow5mult>
200078d4:	9006      	str	r0, [sp, #24]
200078d6:	992a      	ldr	r1, [sp, #168]	; 0xa8
200078d8:	2901      	cmp	r1, #1
200078da:	f340 810a 	ble.w	20007af2 <_dtoa_r+0x982>
200078de:	2700      	movs	r7, #0
200078e0:	9b17      	ldr	r3, [sp, #92]	; 0x5c
200078e2:	2b00      	cmp	r3, #0
200078e4:	f040 8261 	bne.w	20007daa <_dtoa_r+0xc3a>
200078e8:	2301      	movs	r3, #1
200078ea:	4453      	add	r3, sl
200078ec:	f013 031f 	ands.w	r3, r3, #31
200078f0:	f040 812a 	bne.w	20007b48 <_dtoa_r+0x9d8>
200078f4:	231c      	movs	r3, #28
200078f6:	9a0f      	ldr	r2, [sp, #60]	; 0x3c
200078f8:	449a      	add	sl, r3
200078fa:	18ed      	adds	r5, r5, r3
200078fc:	18d2      	adds	r2, r2, r3
200078fe:	920f      	str	r2, [sp, #60]	; 0x3c
20007900:	9b0f      	ldr	r3, [sp, #60]	; 0x3c
20007902:	2b00      	cmp	r3, #0
20007904:	dd05      	ble.n	20007912 <_dtoa_r+0x7a2>
20007906:	4659      	mov	r1, fp
20007908:	461a      	mov	r2, r3
2000790a:	4620      	mov	r0, r4
2000790c:	f001 fb02 	bl	20008f14 <__lshift>
20007910:	4683      	mov	fp, r0
20007912:	f1ba 0f00 	cmp.w	sl, #0
20007916:	dd05      	ble.n	20007924 <_dtoa_r+0x7b4>
20007918:	9906      	ldr	r1, [sp, #24]
2000791a:	4652      	mov	r2, sl
2000791c:	4620      	mov	r0, r4
2000791e:	f001 faf9 	bl	20008f14 <__lshift>
20007922:	9006      	str	r0, [sp, #24]
20007924:	9818      	ldr	r0, [sp, #96]	; 0x60
20007926:	2800      	cmp	r0, #0
20007928:	f040 8229 	bne.w	20007d7e <_dtoa_r+0xc0e>
2000792c:	982a      	ldr	r0, [sp, #168]	; 0xa8
2000792e:	9908      	ldr	r1, [sp, #32]
20007930:	2802      	cmp	r0, #2
20007932:	bfd4      	ite	le
20007934:	2300      	movle	r3, #0
20007936:	2301      	movgt	r3, #1
20007938:	2900      	cmp	r1, #0
2000793a:	bfcc      	ite	gt
2000793c:	2300      	movgt	r3, #0
2000793e:	f003 0301 	andle.w	r3, r3, #1
20007942:	2b00      	cmp	r3, #0
20007944:	f000 810c 	beq.w	20007b60 <_dtoa_r+0x9f0>
20007948:	2900      	cmp	r1, #0
2000794a:	f040 808c 	bne.w	20007a66 <_dtoa_r+0x8f6>
2000794e:	2205      	movs	r2, #5
20007950:	9906      	ldr	r1, [sp, #24]
20007952:	9b08      	ldr	r3, [sp, #32]
20007954:	4620      	mov	r0, r4
20007956:	f001 fbdf 	bl	20009118 <__multadd>
2000795a:	9006      	str	r0, [sp, #24]
2000795c:	4658      	mov	r0, fp
2000795e:	9906      	ldr	r1, [sp, #24]
20007960:	f001 f868 	bl	20008a34 <__mcmp>
20007964:	2800      	cmp	r0, #0
20007966:	dd7e      	ble.n	20007a66 <_dtoa_r+0x8f6>
20007968:	9d10      	ldr	r5, [sp, #64]	; 0x40
2000796a:	3601      	adds	r6, #1
2000796c:	2700      	movs	r7, #0
2000796e:	f8dd a030 	ldr.w	sl, [sp, #48]	; 0x30
20007972:	2331      	movs	r3, #49	; 0x31
20007974:	f805 3b01 	strb.w	r3, [r5], #1
20007978:	9906      	ldr	r1, [sp, #24]
2000797a:	4620      	mov	r0, r4
2000797c:	f001 f994 	bl	20008ca8 <_Bfree>
20007980:	f1ba 0f00 	cmp.w	sl, #0
20007984:	f000 80d5 	beq.w	20007b32 <_dtoa_r+0x9c2>
20007988:	1e3b      	subs	r3, r7, #0
2000798a:	bf18      	it	ne
2000798c:	2301      	movne	r3, #1
2000798e:	4557      	cmp	r7, sl
20007990:	bf0c      	ite	eq
20007992:	2300      	moveq	r3, #0
20007994:	f003 0301 	andne.w	r3, r3, #1
20007998:	2b00      	cmp	r3, #0
2000799a:	f040 80d0 	bne.w	20007b3e <_dtoa_r+0x9ce>
2000799e:	4651      	mov	r1, sl
200079a0:	4620      	mov	r0, r4
200079a2:	f001 f981 	bl	20008ca8 <_Bfree>
200079a6:	9612      	str	r6, [sp, #72]	; 0x48
200079a8:	4620      	mov	r0, r4
200079aa:	4659      	mov	r1, fp
200079ac:	f001 f97c 	bl	20008ca8 <_Bfree>
200079b0:	9a12      	ldr	r2, [sp, #72]	; 0x48
200079b2:	1c53      	adds	r3, r2, #1
200079b4:	2200      	movs	r2, #0
200079b6:	702a      	strb	r2, [r5, #0]
200079b8:	982c      	ldr	r0, [sp, #176]	; 0xb0
200079ba:	992e      	ldr	r1, [sp, #184]	; 0xb8
200079bc:	6003      	str	r3, [r0, #0]
200079be:	2900      	cmp	r1, #0
200079c0:	f000 81d4 	beq.w	20007d6c <_dtoa_r+0xbfc>
200079c4:	9a2e      	ldr	r2, [sp, #184]	; 0xb8
200079c6:	9810      	ldr	r0, [sp, #64]	; 0x40
200079c8:	6015      	str	r5, [r2, #0]
200079ca:	e412      	b.n	200071f2 <_dtoa_r+0x82>
200079cc:	2010      	movs	r0, #16
200079ce:	f7f9 ff1b 	bl	20001808 <malloc>
200079d2:	60c6      	str	r6, [r0, #12]
200079d4:	6046      	str	r6, [r0, #4]
200079d6:	6086      	str	r6, [r0, #8]
200079d8:	6006      	str	r6, [r0, #0]
200079da:	4606      	mov	r6, r0
200079dc:	6260      	str	r0, [r4, #36]	; 0x24
200079de:	f7ff bbd2 	b.w	20007186 <_dtoa_r+0x16>
200079e2:	980f      	ldr	r0, [sp, #60]	; 0x3c
200079e4:	4271      	negs	r1, r6
200079e6:	2200      	movs	r2, #0
200079e8:	9115      	str	r1, [sp, #84]	; 0x54
200079ea:	1b80      	subs	r0, r0, r6
200079ec:	9217      	str	r2, [sp, #92]	; 0x5c
200079ee:	900f      	str	r0, [sp, #60]	; 0x3c
200079f0:	e48a      	b.n	20007308 <_dtoa_r+0x198>
200079f2:	2100      	movs	r1, #0
200079f4:	3e01      	subs	r6, #1
200079f6:	9118      	str	r1, [sp, #96]	; 0x60
200079f8:	e472      	b.n	200072e0 <_dtoa_r+0x170>
200079fa:	e9dd 2306 	ldrd	r2, r3, [sp, #24]
200079fe:	f04f 0802 	mov.w	r8, #2
20007a02:	e9cd 2312 	strd	r2, r3, [sp, #72]	; 0x48
20007a06:	e521      	b.n	2000744c <_dtoa_r+0x2dc>
20007a08:	982a      	ldr	r0, [sp, #168]	; 0xa8
20007a0a:	2801      	cmp	r0, #1
20007a0c:	f340 826c 	ble.w	20007ee8 <_dtoa_r+0xd78>
20007a10:	9a08      	ldr	r2, [sp, #32]
20007a12:	9815      	ldr	r0, [sp, #84]	; 0x54
20007a14:	1e53      	subs	r3, r2, #1
20007a16:	4298      	cmp	r0, r3
20007a18:	f2c0 8258 	blt.w	20007ecc <_dtoa_r+0xd5c>
20007a1c:	1ac7      	subs	r7, r0, r3
20007a1e:	9b08      	ldr	r3, [sp, #32]
20007a20:	2b00      	cmp	r3, #0
20007a22:	bfa8      	it	ge
20007a24:	9d0f      	ldrge	r5, [sp, #60]	; 0x3c
20007a26:	f2c0 8273 	blt.w	20007f10 <_dtoa_r+0xda0>
20007a2a:	9a0f      	ldr	r2, [sp, #60]	; 0x3c
20007a2c:	4620      	mov	r0, r4
20007a2e:	2101      	movs	r1, #1
20007a30:	449a      	add	sl, r3
20007a32:	18d2      	adds	r2, r2, r3
20007a34:	920f      	str	r2, [sp, #60]	; 0x3c
20007a36:	f001 fb65 	bl	20009104 <__i2b>
20007a3a:	900c      	str	r0, [sp, #48]	; 0x30
20007a3c:	e708      	b.n	20007850 <_dtoa_r+0x6e0>
20007a3e:	9b08      	ldr	r3, [sp, #32]
20007a40:	b973      	cbnz	r3, 20007a60 <_dtoa_r+0x8f0>
20007a42:	f240 0300 	movw	r3, #0
20007a46:	2200      	movs	r2, #0
20007a48:	f2c4 0314 	movt	r3, #16404	; 0x4014
20007a4c:	e9dd 0104 	ldrd	r0, r1, [sp, #16]
20007a50:	f001 ff98 	bl	20009984 <__aeabi_dmul>
20007a54:	4642      	mov	r2, r8
20007a56:	464b      	mov	r3, r9
20007a58:	f002 fa1a 	bl	20009e90 <__aeabi_dcmpge>
20007a5c:	2800      	cmp	r0, #0
20007a5e:	d06a      	beq.n	20007b36 <_dtoa_r+0x9c6>
20007a60:	2200      	movs	r2, #0
20007a62:	9206      	str	r2, [sp, #24]
20007a64:	920c      	str	r2, [sp, #48]	; 0x30
20007a66:	9b2b      	ldr	r3, [sp, #172]	; 0xac
20007a68:	2700      	movs	r7, #0
20007a6a:	f8dd a030 	ldr.w	sl, [sp, #48]	; 0x30
20007a6e:	43de      	mvns	r6, r3
20007a70:	9d10      	ldr	r5, [sp, #64]	; 0x40
20007a72:	e781      	b.n	20007978 <_dtoa_r+0x808>
20007a74:	2100      	movs	r1, #0
20007a76:	9116      	str	r1, [sp, #88]	; 0x58
20007a78:	982b      	ldr	r0, [sp, #172]	; 0xac
20007a7a:	2800      	cmp	r0, #0
20007a7c:	f340 819f 	ble.w	20007dbe <_dtoa_r+0xc4e>
20007a80:	982b      	ldr	r0, [sp, #172]	; 0xac
20007a82:	4601      	mov	r1, r0
20007a84:	9011      	str	r0, [sp, #68]	; 0x44
20007a86:	9008      	str	r0, [sp, #32]
20007a88:	6a65      	ldr	r5, [r4, #36]	; 0x24
20007a8a:	2200      	movs	r2, #0
20007a8c:	2917      	cmp	r1, #23
20007a8e:	606a      	str	r2, [r5, #4]
20007a90:	f240 82ab 	bls.w	20007fea <_dtoa_r+0xe7a>
20007a94:	2304      	movs	r3, #4
20007a96:	005b      	lsls	r3, r3, #1
20007a98:	3201      	adds	r2, #1
20007a9a:	f103 0014 	add.w	r0, r3, #20
20007a9e:	4288      	cmp	r0, r1
20007aa0:	d9f9      	bls.n	20007a96 <_dtoa_r+0x926>
20007aa2:	9b08      	ldr	r3, [sp, #32]
20007aa4:	606a      	str	r2, [r5, #4]
20007aa6:	2b0e      	cmp	r3, #14
20007aa8:	bf8c      	ite	hi
20007aaa:	2700      	movhi	r7, #0
20007aac:	f007 0701 	andls.w	r7, r7, #1
20007ab0:	e49d      	b.n	200073ee <_dtoa_r+0x27e>
20007ab2:	2201      	movs	r2, #1
20007ab4:	9216      	str	r2, [sp, #88]	; 0x58
20007ab6:	9b2b      	ldr	r3, [sp, #172]	; 0xac
20007ab8:	18f3      	adds	r3, r6, r3
20007aba:	9311      	str	r3, [sp, #68]	; 0x44
20007abc:	1c59      	adds	r1, r3, #1
20007abe:	2900      	cmp	r1, #0
20007ac0:	bfc8      	it	gt
20007ac2:	9108      	strgt	r1, [sp, #32]
20007ac4:	dce0      	bgt.n	20007a88 <_dtoa_r+0x918>
20007ac6:	290e      	cmp	r1, #14
20007ac8:	bf8c      	ite	hi
20007aca:	2700      	movhi	r7, #0
20007acc:	f007 0701 	andls.w	r7, r7, #1
20007ad0:	9108      	str	r1, [sp, #32]
20007ad2:	e489      	b.n	200073e8 <_dtoa_r+0x278>
20007ad4:	2301      	movs	r3, #1
20007ad6:	9316      	str	r3, [sp, #88]	; 0x58
20007ad8:	e7ce      	b.n	20007a78 <_dtoa_r+0x908>
20007ada:	2200      	movs	r2, #0
20007adc:	9216      	str	r2, [sp, #88]	; 0x58
20007ade:	e7ea      	b.n	20007ab6 <_dtoa_r+0x946>
20007ae0:	f04f 33ff 	mov.w	r3, #4294967295
20007ae4:	2700      	movs	r7, #0
20007ae6:	2001      	movs	r0, #1
20007ae8:	9311      	str	r3, [sp, #68]	; 0x44
20007aea:	9016      	str	r0, [sp, #88]	; 0x58
20007aec:	9308      	str	r3, [sp, #32]
20007aee:	972b      	str	r7, [sp, #172]	; 0xac
20007af0:	e47a      	b.n	200073e8 <_dtoa_r+0x278>
20007af2:	f1b8 0f00 	cmp.w	r8, #0
20007af6:	f47f aef2 	bne.w	200078de <_dtoa_r+0x76e>
20007afa:	f029 437f 	bic.w	r3, r9, #4278190080	; 0xff000000
20007afe:	f423 0370 	bic.w	r3, r3, #15728640	; 0xf00000
20007b02:	2b00      	cmp	r3, #0
20007b04:	f47f aeeb 	bne.w	200078de <_dtoa_r+0x76e>
20007b08:	f240 0300 	movw	r3, #0
20007b0c:	f6c7 73f0 	movt	r3, #32752	; 0x7ff0
20007b10:	ea09 0303 	and.w	r3, r9, r3
20007b14:	2b00      	cmp	r3, #0
20007b16:	f43f aee2 	beq.w	200078de <_dtoa_r+0x76e>
20007b1a:	9a0f      	ldr	r2, [sp, #60]	; 0x3c
20007b1c:	f10a 0a01 	add.w	sl, sl, #1
20007b20:	2701      	movs	r7, #1
20007b22:	3201      	adds	r2, #1
20007b24:	920f      	str	r2, [sp, #60]	; 0x3c
20007b26:	e6db      	b.n	200078e0 <_dtoa_r+0x770>
20007b28:	4635      	mov	r5, r6
20007b2a:	465c      	mov	r4, fp
20007b2c:	9e0f      	ldr	r6, [sp, #60]	; 0x3c
20007b2e:	f8dd b02c 	ldr.w	fp, [sp, #44]	; 0x2c
20007b32:	9612      	str	r6, [sp, #72]	; 0x48
20007b34:	e738      	b.n	200079a8 <_dtoa_r+0x838>
20007b36:	2000      	movs	r0, #0
20007b38:	9006      	str	r0, [sp, #24]
20007b3a:	900c      	str	r0, [sp, #48]	; 0x30
20007b3c:	e714      	b.n	20007968 <_dtoa_r+0x7f8>
20007b3e:	4639      	mov	r1, r7
20007b40:	4620      	mov	r0, r4
20007b42:	f001 f8b1 	bl	20008ca8 <_Bfree>
20007b46:	e72a      	b.n	2000799e <_dtoa_r+0x82e>
20007b48:	f1c3 0320 	rsb	r3, r3, #32
20007b4c:	2b04      	cmp	r3, #4
20007b4e:	f340 8254 	ble.w	20007ffa <_dtoa_r+0xe8a>
20007b52:	990f      	ldr	r1, [sp, #60]	; 0x3c
20007b54:	3b04      	subs	r3, #4
20007b56:	449a      	add	sl, r3
20007b58:	18ed      	adds	r5, r5, r3
20007b5a:	18c9      	adds	r1, r1, r3
20007b5c:	910f      	str	r1, [sp, #60]	; 0x3c
20007b5e:	e6cf      	b.n	20007900 <_dtoa_r+0x790>
20007b60:	9916      	ldr	r1, [sp, #88]	; 0x58
20007b62:	2900      	cmp	r1, #0
20007b64:	f000 8131 	beq.w	20007dca <_dtoa_r+0xc5a>
20007b68:	2d00      	cmp	r5, #0
20007b6a:	dd05      	ble.n	20007b78 <_dtoa_r+0xa08>
20007b6c:	990c      	ldr	r1, [sp, #48]	; 0x30
20007b6e:	462a      	mov	r2, r5
20007b70:	4620      	mov	r0, r4
20007b72:	f001 f9cf 	bl	20008f14 <__lshift>
20007b76:	900c      	str	r0, [sp, #48]	; 0x30
20007b78:	2f00      	cmp	r7, #0
20007b7a:	f040 81ea 	bne.w	20007f52 <_dtoa_r+0xde2>
20007b7e:	f8dd a030 	ldr.w	sl, [sp, #48]	; 0x30
20007b82:	9d10      	ldr	r5, [sp, #64]	; 0x40
20007b84:	2301      	movs	r3, #1
20007b86:	f008 0001 	and.w	r0, r8, #1
20007b8a:	9f0c      	ldr	r7, [sp, #48]	; 0x30
20007b8c:	9011      	str	r0, [sp, #68]	; 0x44
20007b8e:	950f      	str	r5, [sp, #60]	; 0x3c
20007b90:	461d      	mov	r5, r3
20007b92:	960c      	str	r6, [sp, #48]	; 0x30
20007b94:	9906      	ldr	r1, [sp, #24]
20007b96:	4658      	mov	r0, fp
20007b98:	f7ff fa5a 	bl	20007050 <quorem>
20007b9c:	4639      	mov	r1, r7
20007b9e:	3030      	adds	r0, #48	; 0x30
20007ba0:	900b      	str	r0, [sp, #44]	; 0x2c
20007ba2:	4658      	mov	r0, fp
20007ba4:	f000 ff46 	bl	20008a34 <__mcmp>
20007ba8:	9906      	ldr	r1, [sp, #24]
20007baa:	4652      	mov	r2, sl
20007bac:	4606      	mov	r6, r0
20007bae:	4620      	mov	r0, r4
20007bb0:	f001 f934 	bl	20008e1c <__mdiff>
20007bb4:	68c3      	ldr	r3, [r0, #12]
20007bb6:	4680      	mov	r8, r0
20007bb8:	2b00      	cmp	r3, #0
20007bba:	d03d      	beq.n	20007c38 <_dtoa_r+0xac8>
20007bbc:	f04f 0901 	mov.w	r9, #1
20007bc0:	4641      	mov	r1, r8
20007bc2:	4620      	mov	r0, r4
20007bc4:	f001 f870 	bl	20008ca8 <_Bfree>
20007bc8:	992a      	ldr	r1, [sp, #168]	; 0xa8
20007bca:	ea59 0101 	orrs.w	r1, r9, r1
20007bce:	d103      	bne.n	20007bd8 <_dtoa_r+0xa68>
20007bd0:	9a11      	ldr	r2, [sp, #68]	; 0x44
20007bd2:	2a00      	cmp	r2, #0
20007bd4:	f000 81eb 	beq.w	20007fae <_dtoa_r+0xe3e>
20007bd8:	2e00      	cmp	r6, #0
20007bda:	f2c0 819e 	blt.w	20007f1a <_dtoa_r+0xdaa>
20007bde:	9a2a      	ldr	r2, [sp, #168]	; 0xa8
20007be0:	4332      	orrs	r2, r6
20007be2:	d103      	bne.n	20007bec <_dtoa_r+0xa7c>
20007be4:	9b11      	ldr	r3, [sp, #68]	; 0x44
20007be6:	2b00      	cmp	r3, #0
20007be8:	f000 8197 	beq.w	20007f1a <_dtoa_r+0xdaa>
20007bec:	f1b9 0f00 	cmp.w	r9, #0
20007bf0:	f300 81ce 	bgt.w	20007f90 <_dtoa_r+0xe20>
20007bf4:	990f      	ldr	r1, [sp, #60]	; 0x3c
20007bf6:	9a0b      	ldr	r2, [sp, #44]	; 0x2c
20007bf8:	f801 2b01 	strb.w	r2, [r1], #1
20007bfc:	9b08      	ldr	r3, [sp, #32]
20007bfe:	910f      	str	r1, [sp, #60]	; 0x3c
20007c00:	429d      	cmp	r5, r3
20007c02:	f000 81c2 	beq.w	20007f8a <_dtoa_r+0xe1a>
20007c06:	4659      	mov	r1, fp
20007c08:	220a      	movs	r2, #10
20007c0a:	2300      	movs	r3, #0
20007c0c:	4620      	mov	r0, r4
20007c0e:	f001 fa83 	bl	20009118 <__multadd>
20007c12:	4557      	cmp	r7, sl
20007c14:	4639      	mov	r1, r7
20007c16:	4683      	mov	fp, r0
20007c18:	d014      	beq.n	20007c44 <_dtoa_r+0xad4>
20007c1a:	220a      	movs	r2, #10
20007c1c:	2300      	movs	r3, #0
20007c1e:	4620      	mov	r0, r4
20007c20:	3501      	adds	r5, #1
20007c22:	f001 fa79 	bl	20009118 <__multadd>
20007c26:	4651      	mov	r1, sl
20007c28:	220a      	movs	r2, #10
20007c2a:	2300      	movs	r3, #0
20007c2c:	4607      	mov	r7, r0
20007c2e:	4620      	mov	r0, r4
20007c30:	f001 fa72 	bl	20009118 <__multadd>
20007c34:	4682      	mov	sl, r0
20007c36:	e7ad      	b.n	20007b94 <_dtoa_r+0xa24>
20007c38:	4658      	mov	r0, fp
20007c3a:	4641      	mov	r1, r8
20007c3c:	f000 fefa 	bl	20008a34 <__mcmp>
20007c40:	4681      	mov	r9, r0
20007c42:	e7bd      	b.n	20007bc0 <_dtoa_r+0xa50>
20007c44:	4620      	mov	r0, r4
20007c46:	220a      	movs	r2, #10
20007c48:	2300      	movs	r3, #0
20007c4a:	3501      	adds	r5, #1
20007c4c:	f001 fa64 	bl	20009118 <__multadd>
20007c50:	4607      	mov	r7, r0
20007c52:	4682      	mov	sl, r0
20007c54:	e79e      	b.n	20007b94 <_dtoa_r+0xa24>
20007c56:	9612      	str	r6, [sp, #72]	; 0x48
20007c58:	f8dd c020 	ldr.w	ip, [sp, #32]
20007c5c:	e459      	b.n	20007512 <_dtoa_r+0x3a2>
20007c5e:	4275      	negs	r5, r6
20007c60:	2d00      	cmp	r5, #0
20007c62:	f040 8101 	bne.w	20007e68 <_dtoa_r+0xcf8>
20007c66:	e9dd 0106 	ldrd	r0, r1, [sp, #24]
20007c6a:	f04f 0802 	mov.w	r8, #2
20007c6e:	e9cd 010c 	strd	r0, r1, [sp, #48]	; 0x30
20007c72:	e40c      	b.n	2000748e <_dtoa_r+0x31e>
20007c74:	f64a 2190 	movw	r1, #43664	; 0xaa90
20007c78:	4642      	mov	r2, r8
20007c7a:	f2c2 0100 	movt	r1, #8192	; 0x2000
20007c7e:	464b      	mov	r3, r9
20007c80:	eb01 01cc 	add.w	r1, r1, ip, lsl #3
20007c84:	f8cd c00c 	str.w	ip, [sp, #12]
20007c88:	9d10      	ldr	r5, [sp, #64]	; 0x40
20007c8a:	e951 0102 	ldrd	r0, r1, [r1, #-8]
20007c8e:	f001 fe79 	bl	20009984 <__aeabi_dmul>
20007c92:	e9cd 011a 	strd	r0, r1, [sp, #104]	; 0x68
20007c96:	e9dd 010c 	ldrd	r0, r1, [sp, #48]	; 0x30
20007c9a:	f002 f90d 	bl	20009eb8 <__aeabi_d2iz>
20007c9e:	4607      	mov	r7, r0
20007ca0:	f001 fe0a 	bl	200098b8 <__aeabi_i2d>
20007ca4:	460b      	mov	r3, r1
20007ca6:	4602      	mov	r2, r0
20007ca8:	e9dd 010c 	ldrd	r0, r1, [sp, #48]	; 0x30
20007cac:	f001 fcb6 	bl	2000961c <__aeabi_dsub>
20007cb0:	f107 0330 	add.w	r3, r7, #48	; 0x30
20007cb4:	e9cd 010c 	strd	r0, r1, [sp, #48]	; 0x30
20007cb8:	f805 3b01 	strb.w	r3, [r5], #1
20007cbc:	f8dd c00c 	ldr.w	ip, [sp, #12]
20007cc0:	f1bc 0f01 	cmp.w	ip, #1
20007cc4:	d029      	beq.n	20007d1a <_dtoa_r+0xbaa>
20007cc6:	46d1      	mov	r9, sl
20007cc8:	e9dd 010c 	ldrd	r0, r1, [sp, #48]	; 0x30
20007ccc:	46b2      	mov	sl, r6
20007cce:	9e10      	ldr	r6, [sp, #64]	; 0x40
20007cd0:	951c      	str	r5, [sp, #112]	; 0x70
20007cd2:	2701      	movs	r7, #1
20007cd4:	4665      	mov	r5, ip
20007cd6:	46a0      	mov	r8, r4
20007cd8:	f240 0300 	movw	r3, #0
20007cdc:	2200      	movs	r2, #0
20007cde:	f2c4 0324 	movt	r3, #16420	; 0x4024
20007ce2:	f001 fe4f 	bl	20009984 <__aeabi_dmul>
20007ce6:	e9cd 010c 	strd	r0, r1, [sp, #48]	; 0x30
20007cea:	f002 f8e5 	bl	20009eb8 <__aeabi_d2iz>
20007cee:	4604      	mov	r4, r0
20007cf0:	f001 fde2 	bl	200098b8 <__aeabi_i2d>
20007cf4:	3430      	adds	r4, #48	; 0x30
20007cf6:	4602      	mov	r2, r0
20007cf8:	460b      	mov	r3, r1
20007cfa:	e9dd 010c 	ldrd	r0, r1, [sp, #48]	; 0x30
20007cfe:	f001 fc8d 	bl	2000961c <__aeabi_dsub>
20007d02:	55f4      	strb	r4, [r6, r7]
20007d04:	3701      	adds	r7, #1
20007d06:	42af      	cmp	r7, r5
20007d08:	d1e6      	bne.n	20007cd8 <_dtoa_r+0xb68>
20007d0a:	9d1c      	ldr	r5, [sp, #112]	; 0x70
20007d0c:	3f01      	subs	r7, #1
20007d0e:	4656      	mov	r6, sl
20007d10:	4644      	mov	r4, r8
20007d12:	46ca      	mov	sl, r9
20007d14:	19ed      	adds	r5, r5, r7
20007d16:	e9cd 010c 	strd	r0, r1, [sp, #48]	; 0x30
20007d1a:	f240 0300 	movw	r3, #0
20007d1e:	2200      	movs	r2, #0
20007d20:	f6c3 73e0 	movt	r3, #16352	; 0x3fe0
20007d24:	e9dd 011a 	ldrd	r0, r1, [sp, #104]	; 0x68
20007d28:	f001 fc7a 	bl	20009620 <__adddf3>
20007d2c:	4602      	mov	r2, r0
20007d2e:	460b      	mov	r3, r1
20007d30:	e9dd 010c 	ldrd	r0, r1, [sp, #48]	; 0x30
20007d34:	f002 f8b6 	bl	20009ea4 <__aeabi_dcmpgt>
20007d38:	b9f0      	cbnz	r0, 20007d78 <_dtoa_r+0xc08>
20007d3a:	f240 0100 	movw	r1, #0
20007d3e:	e9dd 231a 	ldrd	r2, r3, [sp, #104]	; 0x68
20007d42:	2000      	movs	r0, #0
20007d44:	f6c3 71e0 	movt	r1, #16352	; 0x3fe0
20007d48:	f001 fc68 	bl	2000961c <__aeabi_dsub>
20007d4c:	4602      	mov	r2, r0
20007d4e:	460b      	mov	r3, r1
20007d50:	e9dd 010c 	ldrd	r0, r1, [sp, #48]	; 0x30
20007d54:	f002 f888 	bl	20009e68 <__aeabi_dcmplt>
20007d58:	2800      	cmp	r0, #0
20007d5a:	f43f acac 	beq.w	200076b6 <_dtoa_r+0x546>
20007d5e:	462b      	mov	r3, r5
20007d60:	461d      	mov	r5, r3
20007d62:	f813 2d01 	ldrb.w	r2, [r3, #-1]!
20007d66:	2a30      	cmp	r2, #48	; 0x30
20007d68:	d0fa      	beq.n	20007d60 <_dtoa_r+0xbf0>
20007d6a:	e61d      	b.n	200079a8 <_dtoa_r+0x838>
20007d6c:	9810      	ldr	r0, [sp, #64]	; 0x40
20007d6e:	f7ff ba40 	b.w	200071f2 <_dtoa_r+0x82>
20007d72:	f8dd b068 	ldr.w	fp, [sp, #104]	; 0x68
20007d76:	9c0c      	ldr	r4, [sp, #48]	; 0x30
20007d78:	9e12      	ldr	r6, [sp, #72]	; 0x48
20007d7a:	9910      	ldr	r1, [sp, #64]	; 0x40
20007d7c:	e550      	b.n	20007820 <_dtoa_r+0x6b0>
20007d7e:	4658      	mov	r0, fp
20007d80:	9906      	ldr	r1, [sp, #24]
20007d82:	f000 fe57 	bl	20008a34 <__mcmp>
20007d86:	2800      	cmp	r0, #0
20007d88:	f6bf add0 	bge.w	2000792c <_dtoa_r+0x7bc>
20007d8c:	4659      	mov	r1, fp
20007d8e:	4620      	mov	r0, r4
20007d90:	220a      	movs	r2, #10
20007d92:	2300      	movs	r3, #0
20007d94:	f001 f9c0 	bl	20009118 <__multadd>
20007d98:	9916      	ldr	r1, [sp, #88]	; 0x58
20007d9a:	3e01      	subs	r6, #1
20007d9c:	4683      	mov	fp, r0
20007d9e:	2900      	cmp	r1, #0
20007da0:	f040 8119 	bne.w	20007fd6 <_dtoa_r+0xe66>
20007da4:	9a11      	ldr	r2, [sp, #68]	; 0x44
20007da6:	9208      	str	r2, [sp, #32]
20007da8:	e5c0      	b.n	2000792c <_dtoa_r+0x7bc>
20007daa:	9806      	ldr	r0, [sp, #24]
20007dac:	6903      	ldr	r3, [r0, #16]
20007dae:	eb00 0383 	add.w	r3, r0, r3, lsl #2
20007db2:	6918      	ldr	r0, [r3, #16]
20007db4:	f000 fdec 	bl	20008990 <__hi0bits>
20007db8:	f1c0 0320 	rsb	r3, r0, #32
20007dbc:	e595      	b.n	200078ea <_dtoa_r+0x77a>
20007dbe:	2101      	movs	r1, #1
20007dc0:	9111      	str	r1, [sp, #68]	; 0x44
20007dc2:	9108      	str	r1, [sp, #32]
20007dc4:	912b      	str	r1, [sp, #172]	; 0xac
20007dc6:	f7ff bb0f 	b.w	200073e8 <_dtoa_r+0x278>
20007dca:	9d10      	ldr	r5, [sp, #64]	; 0x40
20007dcc:	46b1      	mov	r9, r6
20007dce:	9f16      	ldr	r7, [sp, #88]	; 0x58
20007dd0:	46aa      	mov	sl, r5
20007dd2:	f8dd 8018 	ldr.w	r8, [sp, #24]
20007dd6:	9e08      	ldr	r6, [sp, #32]
20007dd8:	e002      	b.n	20007de0 <_dtoa_r+0xc70>
20007dda:	f001 f99d 	bl	20009118 <__multadd>
20007dde:	4683      	mov	fp, r0
20007de0:	4641      	mov	r1, r8
20007de2:	4658      	mov	r0, fp
20007de4:	f7ff f934 	bl	20007050 <quorem>
20007de8:	3501      	adds	r5, #1
20007dea:	220a      	movs	r2, #10
20007dec:	2300      	movs	r3, #0
20007dee:	4659      	mov	r1, fp
20007df0:	f100 0c30 	add.w	ip, r0, #48	; 0x30
20007df4:	f80a c007 	strb.w	ip, [sl, r7]
20007df8:	3701      	adds	r7, #1
20007dfa:	4620      	mov	r0, r4
20007dfc:	42be      	cmp	r6, r7
20007dfe:	dcec      	bgt.n	20007dda <_dtoa_r+0xc6a>
20007e00:	f8dd a030 	ldr.w	sl, [sp, #48]	; 0x30
20007e04:	464e      	mov	r6, r9
20007e06:	2700      	movs	r7, #0
20007e08:	f8cd c02c 	str.w	ip, [sp, #44]	; 0x2c
20007e0c:	4659      	mov	r1, fp
20007e0e:	2201      	movs	r2, #1
20007e10:	4620      	mov	r0, r4
20007e12:	f001 f87f 	bl	20008f14 <__lshift>
20007e16:	9906      	ldr	r1, [sp, #24]
20007e18:	4683      	mov	fp, r0
20007e1a:	f000 fe0b 	bl	20008a34 <__mcmp>
20007e1e:	2800      	cmp	r0, #0
20007e20:	dd0f      	ble.n	20007e42 <_dtoa_r+0xcd2>
20007e22:	9910      	ldr	r1, [sp, #64]	; 0x40
20007e24:	e000      	b.n	20007e28 <_dtoa_r+0xcb8>
20007e26:	461d      	mov	r5, r3
20007e28:	f815 2c01 	ldrb.w	r2, [r5, #-1]
20007e2c:	1e6b      	subs	r3, r5, #1
20007e2e:	2a39      	cmp	r2, #57	; 0x39
20007e30:	f040 808c 	bne.w	20007f4c <_dtoa_r+0xddc>
20007e34:	428b      	cmp	r3, r1
20007e36:	d1f6      	bne.n	20007e26 <_dtoa_r+0xcb6>
20007e38:	9910      	ldr	r1, [sp, #64]	; 0x40
20007e3a:	2331      	movs	r3, #49	; 0x31
20007e3c:	3601      	adds	r6, #1
20007e3e:	700b      	strb	r3, [r1, #0]
20007e40:	e59a      	b.n	20007978 <_dtoa_r+0x808>
20007e42:	d103      	bne.n	20007e4c <_dtoa_r+0xcdc>
20007e44:	980b      	ldr	r0, [sp, #44]	; 0x2c
20007e46:	f010 0f01 	tst.w	r0, #1
20007e4a:	d1ea      	bne.n	20007e22 <_dtoa_r+0xcb2>
20007e4c:	462b      	mov	r3, r5
20007e4e:	461d      	mov	r5, r3
20007e50:	f813 2d01 	ldrb.w	r2, [r3, #-1]!
20007e54:	2a30      	cmp	r2, #48	; 0x30
20007e56:	d0fa      	beq.n	20007e4e <_dtoa_r+0xcde>
20007e58:	e58e      	b.n	20007978 <_dtoa_r+0x808>
20007e5a:	4659      	mov	r1, fp
20007e5c:	9a15      	ldr	r2, [sp, #84]	; 0x54
20007e5e:	4620      	mov	r0, r4
20007e60:	f001 f99e 	bl	200091a0 <__pow5mult>
20007e64:	4683      	mov	fp, r0
20007e66:	e528      	b.n	200078ba <_dtoa_r+0x74a>
20007e68:	f005 030f 	and.w	r3, r5, #15
20007e6c:	f64a 2290 	movw	r2, #43664	; 0xaa90
20007e70:	f2c2 0200 	movt	r2, #8192	; 0x2000
20007e74:	e9dd 0106 	ldrd	r0, r1, [sp, #24]
20007e78:	eb02 03c3 	add.w	r3, r2, r3, lsl #3
20007e7c:	e9d3 2300 	ldrd	r2, r3, [r3]
20007e80:	f001 fd80 	bl	20009984 <__aeabi_dmul>
20007e84:	112d      	asrs	r5, r5, #4
20007e86:	bf08      	it	eq
20007e88:	f04f 0802 	moveq.w	r8, #2
20007e8c:	e9cd 010c 	strd	r0, r1, [sp, #48]	; 0x30
20007e90:	f43f aafd 	beq.w	2000748e <_dtoa_r+0x31e>
20007e94:	f64a 3768 	movw	r7, #43880	; 0xab68
20007e98:	e9dd 230c 	ldrd	r2, r3, [sp, #48]	; 0x30
20007e9c:	f04f 0802 	mov.w	r8, #2
20007ea0:	f2c2 0700 	movt	r7, #8192	; 0x2000
20007ea4:	f015 0f01 	tst.w	r5, #1
20007ea8:	4610      	mov	r0, r2
20007eaa:	4619      	mov	r1, r3
20007eac:	d007      	beq.n	20007ebe <_dtoa_r+0xd4e>
20007eae:	e9d7 2300 	ldrd	r2, r3, [r7]
20007eb2:	f108 0801 	add.w	r8, r8, #1
20007eb6:	f001 fd65 	bl	20009984 <__aeabi_dmul>
20007eba:	4602      	mov	r2, r0
20007ebc:	460b      	mov	r3, r1
20007ebe:	3708      	adds	r7, #8
20007ec0:	106d      	asrs	r5, r5, #1
20007ec2:	d1ef      	bne.n	20007ea4 <_dtoa_r+0xd34>
20007ec4:	e9cd 230c 	strd	r2, r3, [sp, #48]	; 0x30
20007ec8:	f7ff bae1 	b.w	2000748e <_dtoa_r+0x31e>
20007ecc:	9915      	ldr	r1, [sp, #84]	; 0x54
20007ece:	9a17      	ldr	r2, [sp, #92]	; 0x5c
20007ed0:	1a5b      	subs	r3, r3, r1
20007ed2:	18c9      	adds	r1, r1, r3
20007ed4:	18d2      	adds	r2, r2, r3
20007ed6:	9115      	str	r1, [sp, #84]	; 0x54
20007ed8:	9217      	str	r2, [sp, #92]	; 0x5c
20007eda:	e5a0      	b.n	20007a1e <_dtoa_r+0x8ae>
20007edc:	4659      	mov	r1, fp
20007ede:	4620      	mov	r0, r4
20007ee0:	f001 f95e 	bl	200091a0 <__pow5mult>
20007ee4:	4683      	mov	fp, r0
20007ee6:	e4e8      	b.n	200078ba <_dtoa_r+0x74a>
20007ee8:	9919      	ldr	r1, [sp, #100]	; 0x64
20007eea:	2900      	cmp	r1, #0
20007eec:	d047      	beq.n	20007f7e <_dtoa_r+0xe0e>
20007eee:	f503 6386 	add.w	r3, r3, #1072	; 0x430
20007ef2:	9f15      	ldr	r7, [sp, #84]	; 0x54
20007ef4:	3303      	adds	r3, #3
20007ef6:	9d0f      	ldr	r5, [sp, #60]	; 0x3c
20007ef8:	e597      	b.n	20007a2a <_dtoa_r+0x8ba>
20007efa:	3201      	adds	r2, #1
20007efc:	b2d2      	uxtb	r2, r2
20007efe:	e49d      	b.n	2000783c <_dtoa_r+0x6cc>
20007f00:	f8dd b068 	ldr.w	fp, [sp, #104]	; 0x68
20007f04:	f8dd a070 	ldr.w	sl, [sp, #112]	; 0x70
20007f08:	9e1d      	ldr	r6, [sp, #116]	; 0x74
20007f0a:	9c0c      	ldr	r4, [sp, #48]	; 0x30
20007f0c:	f7ff bbd3 	b.w	200076b6 <_dtoa_r+0x546>
20007f10:	990f      	ldr	r1, [sp, #60]	; 0x3c
20007f12:	2300      	movs	r3, #0
20007f14:	9808      	ldr	r0, [sp, #32]
20007f16:	1a0d      	subs	r5, r1, r0
20007f18:	e587      	b.n	20007a2a <_dtoa_r+0x8ba>
20007f1a:	f1b9 0f00 	cmp.w	r9, #0
20007f1e:	9d0f      	ldr	r5, [sp, #60]	; 0x3c
20007f20:	9e0c      	ldr	r6, [sp, #48]	; 0x30
20007f22:	dd0f      	ble.n	20007f44 <_dtoa_r+0xdd4>
20007f24:	4659      	mov	r1, fp
20007f26:	2201      	movs	r2, #1
20007f28:	4620      	mov	r0, r4
20007f2a:	f000 fff3 	bl	20008f14 <__lshift>
20007f2e:	9906      	ldr	r1, [sp, #24]
20007f30:	4683      	mov	fp, r0
20007f32:	f000 fd7f 	bl	20008a34 <__mcmp>
20007f36:	2800      	cmp	r0, #0
20007f38:	dd47      	ble.n	20007fca <_dtoa_r+0xe5a>
20007f3a:	990b      	ldr	r1, [sp, #44]	; 0x2c
20007f3c:	2939      	cmp	r1, #57	; 0x39
20007f3e:	d031      	beq.n	20007fa4 <_dtoa_r+0xe34>
20007f40:	3101      	adds	r1, #1
20007f42:	910b      	str	r1, [sp, #44]	; 0x2c
20007f44:	9a0b      	ldr	r2, [sp, #44]	; 0x2c
20007f46:	f805 2b01 	strb.w	r2, [r5], #1
20007f4a:	e515      	b.n	20007978 <_dtoa_r+0x808>
20007f4c:	3201      	adds	r2, #1
20007f4e:	701a      	strb	r2, [r3, #0]
20007f50:	e512      	b.n	20007978 <_dtoa_r+0x808>
20007f52:	9a0c      	ldr	r2, [sp, #48]	; 0x30
20007f54:	4620      	mov	r0, r4
20007f56:	6851      	ldr	r1, [r2, #4]
20007f58:	f000 fec2 	bl	20008ce0 <_Balloc>
20007f5c:	9b0c      	ldr	r3, [sp, #48]	; 0x30
20007f5e:	f103 010c 	add.w	r1, r3, #12
20007f62:	691a      	ldr	r2, [r3, #16]
20007f64:	3202      	adds	r2, #2
20007f66:	0092      	lsls	r2, r2, #2
20007f68:	4605      	mov	r5, r0
20007f6a:	300c      	adds	r0, #12
20007f6c:	f7fb fd60 	bl	20003a30 <memcpy>
20007f70:	4620      	mov	r0, r4
20007f72:	4629      	mov	r1, r5
20007f74:	2201      	movs	r2, #1
20007f76:	f000 ffcd 	bl	20008f14 <__lshift>
20007f7a:	4682      	mov	sl, r0
20007f7c:	e601      	b.n	20007b82 <_dtoa_r+0xa12>
20007f7e:	9b1f      	ldr	r3, [sp, #124]	; 0x7c
20007f80:	9f15      	ldr	r7, [sp, #84]	; 0x54
20007f82:	9d0f      	ldr	r5, [sp, #60]	; 0x3c
20007f84:	f1c3 0336 	rsb	r3, r3, #54	; 0x36
20007f88:	e54f      	b.n	20007a2a <_dtoa_r+0x8ba>
20007f8a:	9d0f      	ldr	r5, [sp, #60]	; 0x3c
20007f8c:	9e0c      	ldr	r6, [sp, #48]	; 0x30
20007f8e:	e73d      	b.n	20007e0c <_dtoa_r+0xc9c>
20007f90:	9b0b      	ldr	r3, [sp, #44]	; 0x2c
20007f92:	9d0f      	ldr	r5, [sp, #60]	; 0x3c
20007f94:	2b39      	cmp	r3, #57	; 0x39
20007f96:	9e0c      	ldr	r6, [sp, #48]	; 0x30
20007f98:	d004      	beq.n	20007fa4 <_dtoa_r+0xe34>
20007f9a:	980b      	ldr	r0, [sp, #44]	; 0x2c
20007f9c:	1c43      	adds	r3, r0, #1
20007f9e:	f805 3b01 	strb.w	r3, [r5], #1
20007fa2:	e4e9      	b.n	20007978 <_dtoa_r+0x808>
20007fa4:	2339      	movs	r3, #57	; 0x39
20007fa6:	f805 3b01 	strb.w	r3, [r5], #1
20007faa:	9910      	ldr	r1, [sp, #64]	; 0x40
20007fac:	e73c      	b.n	20007e28 <_dtoa_r+0xcb8>
20007fae:	980b      	ldr	r0, [sp, #44]	; 0x2c
20007fb0:	4633      	mov	r3, r6
20007fb2:	9d0f      	ldr	r5, [sp, #60]	; 0x3c
20007fb4:	2839      	cmp	r0, #57	; 0x39
20007fb6:	9e0c      	ldr	r6, [sp, #48]	; 0x30
20007fb8:	d0f4      	beq.n	20007fa4 <_dtoa_r+0xe34>
20007fba:	2b00      	cmp	r3, #0
20007fbc:	dd01      	ble.n	20007fc2 <_dtoa_r+0xe52>
20007fbe:	3001      	adds	r0, #1
20007fc0:	900b      	str	r0, [sp, #44]	; 0x2c
20007fc2:	990b      	ldr	r1, [sp, #44]	; 0x2c
20007fc4:	f805 1b01 	strb.w	r1, [r5], #1
20007fc8:	e4d6      	b.n	20007978 <_dtoa_r+0x808>
20007fca:	d1bb      	bne.n	20007f44 <_dtoa_r+0xdd4>
20007fcc:	980b      	ldr	r0, [sp, #44]	; 0x2c
20007fce:	f010 0f01 	tst.w	r0, #1
20007fd2:	d0b7      	beq.n	20007f44 <_dtoa_r+0xdd4>
20007fd4:	e7b1      	b.n	20007f3a <_dtoa_r+0xdca>
20007fd6:	2300      	movs	r3, #0
20007fd8:	990c      	ldr	r1, [sp, #48]	; 0x30
20007fda:	4620      	mov	r0, r4
20007fdc:	220a      	movs	r2, #10
20007fde:	f001 f89b 	bl	20009118 <__multadd>
20007fe2:	9b11      	ldr	r3, [sp, #68]	; 0x44
20007fe4:	9308      	str	r3, [sp, #32]
20007fe6:	900c      	str	r0, [sp, #48]	; 0x30
20007fe8:	e4a0      	b.n	2000792c <_dtoa_r+0x7bc>
20007fea:	9908      	ldr	r1, [sp, #32]
20007fec:	290e      	cmp	r1, #14
20007fee:	bf8c      	ite	hi
20007ff0:	2700      	movhi	r7, #0
20007ff2:	f007 0701 	andls.w	r7, r7, #1
20007ff6:	f7ff b9fa 	b.w	200073ee <_dtoa_r+0x27e>
20007ffa:	f43f ac81 	beq.w	20007900 <_dtoa_r+0x790>
20007ffe:	331c      	adds	r3, #28
20008000:	e479      	b.n	200078f6 <_dtoa_r+0x786>
20008002:	2701      	movs	r7, #1
20008004:	f7ff b98a 	b.w	2000731c <_dtoa_r+0x1ac>

20008008 <_fclose_r>:
20008008:	b570      	push	{r4, r5, r6, lr}
2000800a:	4605      	mov	r5, r0
2000800c:	460c      	mov	r4, r1
2000800e:	2900      	cmp	r1, #0
20008010:	d04b      	beq.n	200080aa <_fclose_r+0xa2>
20008012:	f7fb fa13 	bl	2000343c <__sfp_lock_acquire>
20008016:	b115      	cbz	r5, 2000801e <_fclose_r+0x16>
20008018:	69ab      	ldr	r3, [r5, #24]
2000801a:	2b00      	cmp	r3, #0
2000801c:	d048      	beq.n	200080b0 <_fclose_r+0xa8>
2000801e:	f64a 1324 	movw	r3, #43300	; 0xa924
20008022:	f2c2 0300 	movt	r3, #8192	; 0x2000
20008026:	429c      	cmp	r4, r3
20008028:	bf08      	it	eq
2000802a:	686c      	ldreq	r4, [r5, #4]
2000802c:	d00e      	beq.n	2000804c <_fclose_r+0x44>
2000802e:	f64a 1344 	movw	r3, #43332	; 0xa944
20008032:	f2c2 0300 	movt	r3, #8192	; 0x2000
20008036:	429c      	cmp	r4, r3
20008038:	bf08      	it	eq
2000803a:	68ac      	ldreq	r4, [r5, #8]
2000803c:	d006      	beq.n	2000804c <_fclose_r+0x44>
2000803e:	f64a 1364 	movw	r3, #43364	; 0xa964
20008042:	f2c2 0300 	movt	r3, #8192	; 0x2000
20008046:	429c      	cmp	r4, r3
20008048:	bf08      	it	eq
2000804a:	68ec      	ldreq	r4, [r5, #12]
2000804c:	f9b4 600c 	ldrsh.w	r6, [r4, #12]
20008050:	b33e      	cbz	r6, 200080a2 <_fclose_r+0x9a>
20008052:	4628      	mov	r0, r5
20008054:	4621      	mov	r1, r4
20008056:	f7fb f935 	bl	200032c4 <_fflush_r>
2000805a:	6b23      	ldr	r3, [r4, #48]	; 0x30
2000805c:	4606      	mov	r6, r0
2000805e:	b13b      	cbz	r3, 20008070 <_fclose_r+0x68>
20008060:	4628      	mov	r0, r5
20008062:	6a21      	ldr	r1, [r4, #32]
20008064:	4798      	blx	r3
20008066:	ea36 0620 	bics.w	r6, r6, r0, asr #32
2000806a:	bf28      	it	cs
2000806c:	f04f 36ff 	movcs.w	r6, #4294967295
20008070:	89a3      	ldrh	r3, [r4, #12]
20008072:	f013 0f80 	tst.w	r3, #128	; 0x80
20008076:	d11f      	bne.n	200080b8 <_fclose_r+0xb0>
20008078:	6b61      	ldr	r1, [r4, #52]	; 0x34
2000807a:	b141      	cbz	r1, 2000808e <_fclose_r+0x86>
2000807c:	f104 0344 	add.w	r3, r4, #68	; 0x44
20008080:	4299      	cmp	r1, r3
20008082:	d002      	beq.n	2000808a <_fclose_r+0x82>
20008084:	4628      	mov	r0, r5
20008086:	f7fb fb11 	bl	200036ac <_free_r>
2000808a:	2300      	movs	r3, #0
2000808c:	6363      	str	r3, [r4, #52]	; 0x34
2000808e:	6ca1      	ldr	r1, [r4, #72]	; 0x48
20008090:	b121      	cbz	r1, 2000809c <_fclose_r+0x94>
20008092:	4628      	mov	r0, r5
20008094:	f7fb fb0a 	bl	200036ac <_free_r>
20008098:	2300      	movs	r3, #0
2000809a:	64a3      	str	r3, [r4, #72]	; 0x48
2000809c:	f04f 0300 	mov.w	r3, #0
200080a0:	81a3      	strh	r3, [r4, #12]
200080a2:	f7fb f9cd 	bl	20003440 <__sfp_lock_release>
200080a6:	4630      	mov	r0, r6
200080a8:	bd70      	pop	{r4, r5, r6, pc}
200080aa:	460e      	mov	r6, r1
200080ac:	4630      	mov	r0, r6
200080ae:	bd70      	pop	{r4, r5, r6, pc}
200080b0:	4628      	mov	r0, r5
200080b2:	f7fb fa77 	bl	200035a4 <__sinit>
200080b6:	e7b2      	b.n	2000801e <_fclose_r+0x16>
200080b8:	4628      	mov	r0, r5
200080ba:	6921      	ldr	r1, [r4, #16]
200080bc:	f7fb faf6 	bl	200036ac <_free_r>
200080c0:	e7da      	b.n	20008078 <_fclose_r+0x70>
200080c2:	bf00      	nop

200080c4 <fclose>:
200080c4:	f64a 33fc 	movw	r3, #44028	; 0xabfc
200080c8:	4601      	mov	r1, r0
200080ca:	f2c2 0300 	movt	r3, #8192	; 0x2000
200080ce:	6818      	ldr	r0, [r3, #0]
200080d0:	e79a      	b.n	20008008 <_fclose_r>
200080d2:	bf00      	nop

200080d4 <__hexdig_init>:
200080d4:	f64a 2084 	movw	r0, #43652	; 0xaa84
200080d8:	f24b 13e0 	movw	r3, #45536	; 0xb1e0
200080dc:	f2c2 0000 	movt	r0, #8192	; 0x2000
200080e0:	f2c2 0300 	movt	r3, #8192	; 0x2000
200080e4:	2110      	movs	r1, #16
200080e6:	2230      	movs	r2, #48	; 0x30
200080e8:	54d1      	strb	r1, [r2, r3]
200080ea:	3101      	adds	r1, #1
200080ec:	f810 2f01 	ldrb.w	r2, [r0, #1]!
200080f0:	b2c9      	uxtb	r1, r1
200080f2:	2a00      	cmp	r2, #0
200080f4:	d1f8      	bne.n	200080e8 <__hexdig_init+0x14>
200080f6:	f64a 207c 	movw	r0, #43644	; 0xaa7c
200080fa:	211a      	movs	r1, #26
200080fc:	f2c2 0000 	movt	r0, #8192	; 0x2000
20008100:	2261      	movs	r2, #97	; 0x61
20008102:	54d1      	strb	r1, [r2, r3]
20008104:	3101      	adds	r1, #1
20008106:	f810 2f01 	ldrb.w	r2, [r0, #1]!
2000810a:	b2c9      	uxtb	r1, r1
2000810c:	2a00      	cmp	r2, #0
2000810e:	d1f8      	bne.n	20008102 <__hexdig_init+0x2e>
20008110:	f64a 2074 	movw	r0, #43636	; 0xaa74
20008114:	211a      	movs	r1, #26
20008116:	f2c2 0000 	movt	r0, #8192	; 0x2000
2000811a:	2241      	movs	r2, #65	; 0x41
2000811c:	54d1      	strb	r1, [r2, r3]
2000811e:	3101      	adds	r1, #1
20008120:	f810 2f01 	ldrb.w	r2, [r0, #1]!
20008124:	b2c9      	uxtb	r1, r1
20008126:	2a00      	cmp	r2, #0
20008128:	d1f8      	bne.n	2000811c <__hexdig_init+0x48>
2000812a:	4770      	bx	lr

2000812c <rshift>:
2000812c:	e92d 01f0 	stmdb	sp!, {r4, r5, r6, r7, r8}
20008130:	6904      	ldr	r4, [r0, #16]
20008132:	114b      	asrs	r3, r1, #5
20008134:	f100 0214 	add.w	r2, r0, #20
20008138:	42a3      	cmp	r3, r4
2000813a:	4617      	mov	r7, r2
2000813c:	da27      	bge.n	2000818e <rshift+0x62>
2000813e:	3304      	adds	r3, #4
20008140:	eb00 0484 	add.w	r4, r0, r4, lsl #2
20008144:	3414      	adds	r4, #20
20008146:	eb00 0383 	add.w	r3, r0, r3, lsl #2
2000814a:	1d1d      	adds	r5, r3, #4
2000814c:	f011 011f 	ands.w	r1, r1, #31
20008150:	d025      	beq.n	2000819e <rshift+0x72>
20008152:	685e      	ldr	r6, [r3, #4]
20008154:	1d2b      	adds	r3, r5, #4
20008156:	f1c1 0820 	rsb	r8, r1, #32
2000815a:	40ce      	lsrs	r6, r1
2000815c:	429c      	cmp	r4, r3
2000815e:	d914      	bls.n	2000818a <rshift+0x5e>
20008160:	f04f 0c00 	mov.w	ip, #0
20008164:	681f      	ldr	r7, [r3, #0]
20008166:	fa07 f708 	lsl.w	r7, r7, r8
2000816a:	433e      	orrs	r6, r7
2000816c:	f842 600c 	str.w	r6, [r2, ip]
20008170:	f853 6b04 	ldr.w	r6, [r3], #4
20008174:	f10c 0c04 	add.w	ip, ip, #4
20008178:	40ce      	lsrs	r6, r1
2000817a:	429c      	cmp	r4, r3
2000817c:	d8f2      	bhi.n	20008164 <rshift+0x38>
2000817e:	1b67      	subs	r7, r4, r5
20008180:	3f05      	subs	r7, #5
20008182:	f027 0703 	bic.w	r7, r7, #3
20008186:	19c7      	adds	r7, r0, r7
20008188:	3718      	adds	r7, #24
2000818a:	603e      	str	r6, [r7, #0]
2000818c:	b9b6      	cbnz	r6, 200081bc <rshift+0x90>
2000818e:	1aba      	subs	r2, r7, r2
20008190:	1092      	asrs	r2, r2, #2
20008192:	6102      	str	r2, [r0, #16]
20008194:	b902      	cbnz	r2, 20008198 <rshift+0x6c>
20008196:	6142      	str	r2, [r0, #20]
20008198:	e8bd 01f0 	ldmia.w	sp!, {r4, r5, r6, r7, r8}
2000819c:	4770      	bx	lr
2000819e:	42ac      	cmp	r4, r5
200081a0:	d9f5      	bls.n	2000818e <rshift+0x62>
200081a2:	586b      	ldr	r3, [r5, r1]
200081a4:	5053      	str	r3, [r2, r1]
200081a6:	3104      	adds	r1, #4
200081a8:	194b      	adds	r3, r1, r5
200081aa:	429c      	cmp	r4, r3
200081ac:	d8f9      	bhi.n	200081a2 <rshift+0x76>
200081ae:	43ef      	mvns	r7, r5
200081b0:	193f      	adds	r7, r7, r4
200081b2:	f027 0703 	bic.w	r7, r7, #3
200081b6:	19c7      	adds	r7, r0, r7
200081b8:	3718      	adds	r7, #24
200081ba:	e7e8      	b.n	2000818e <rshift+0x62>
200081bc:	3704      	adds	r7, #4
200081be:	e7e6      	b.n	2000818e <rshift+0x62>

200081c0 <__gethex>:
200081c0:	e92d 4ff0 	stmdb	sp!, {r4, r5, r6, r7, r8, r9, sl, fp, lr}
200081c4:	f24b 14e0 	movw	r4, #45536	; 0xb1e0
200081c8:	b085      	sub	sp, #20
200081ca:	f2c2 0400 	movt	r4, #8192	; 0x2000
200081ce:	4693      	mov	fp, r2
200081d0:	9302      	str	r3, [sp, #8]
200081d2:	f894 3030 	ldrb.w	r3, [r4, #48]	; 0x30
200081d6:	9001      	str	r0, [sp, #4]
200081d8:	2b00      	cmp	r3, #0
200081da:	f000 8105 	beq.w	200083e8 <__gethex+0x228>
200081de:	680b      	ldr	r3, [r1, #0]
200081e0:	1c9e      	adds	r6, r3, #2
200081e2:	f893 c002 	ldrb.w	ip, [r3, #2]
200081e6:	f1bc 0f30 	cmp.w	ip, #48	; 0x30
200081ea:	f040 81cc 	bne.w	20008586 <__gethex+0x3c6>
200081ee:	3303      	adds	r3, #3
200081f0:	2000      	movs	r0, #0
200081f2:	461e      	mov	r6, r3
200081f4:	f813 cb01 	ldrb.w	ip, [r3], #1
200081f8:	3001      	adds	r0, #1
200081fa:	f1bc 0f30 	cmp.w	ip, #48	; 0x30
200081fe:	d0f8      	beq.n	200081f2 <__gethex+0x32>
20008200:	f814 500c 	ldrb.w	r5, [r4, ip]
20008204:	f24b 12e0 	movw	r2, #45536	; 0xb1e0
20008208:	f2c2 0200 	movt	r2, #8192	; 0x2000
2000820c:	2d00      	cmp	r5, #0
2000820e:	d03a      	beq.n	20008286 <__gethex+0xc6>
20008210:	f04f 0800 	mov.w	r8, #0
20008214:	4633      	mov	r3, r6
20008216:	4645      	mov	r5, r8
20008218:	7832      	ldrb	r2, [r6, #0]
2000821a:	e001      	b.n	20008220 <__gethex+0x60>
2000821c:	f813 2f01 	ldrb.w	r2, [r3, #1]!
20008220:	5ca7      	ldrb	r7, [r4, r2]
20008222:	2f00      	cmp	r7, #0
20008224:	d1fa      	bne.n	2000821c <__gethex+0x5c>
20008226:	f1d5 0c01 	rsbs	ip, r5, #1
2000822a:	bf38      	it	cc
2000822c:	f04f 0c00 	movcc.w	ip, #0
20008230:	2a2e      	cmp	r2, #46	; 0x2e
20008232:	bf14      	ite	ne
20008234:	2200      	movne	r2, #0
20008236:	f00c 0201 	andeq.w	r2, ip, #1
2000823a:	b162      	cbz	r2, 20008256 <__gethex+0x96>
2000823c:	785a      	ldrb	r2, [r3, #1]
2000823e:	1c5f      	adds	r7, r3, #1
20008240:	5ca3      	ldrb	r3, [r4, r2]
20008242:	2b00      	cmp	r3, #0
20008244:	f000 81e0 	beq.w	20008608 <__gethex+0x448>
20008248:	463b      	mov	r3, r7
2000824a:	f813 2f01 	ldrb.w	r2, [r3, #1]!
2000824e:	5ca2      	ldrb	r2, [r4, r2]
20008250:	2a00      	cmp	r2, #0
20008252:	d1fa      	bne.n	2000824a <__gethex+0x8a>
20008254:	463d      	mov	r5, r7
20008256:	461f      	mov	r7, r3
20008258:	2d00      	cmp	r5, #0
2000825a:	f000 8159 	beq.w	20008510 <__gethex+0x350>
2000825e:	1bed      	subs	r5, r5, r7
20008260:	783b      	ldrb	r3, [r7, #0]
20008262:	00ad      	lsls	r5, r5, #2
20008264:	2b50      	cmp	r3, #80	; 0x50
20008266:	d018      	beq.n	2000829a <__gethex+0xda>
20008268:	2b70      	cmp	r3, #112	; 0x70
2000826a:	d016      	beq.n	2000829a <__gethex+0xda>
2000826c:	463a      	mov	r2, r7
2000826e:	600a      	str	r2, [r1, #0]
20008270:	f1b8 0f00 	cmp.w	r8, #0
20008274:	d04d      	beq.n	20008312 <__gethex+0x152>
20008276:	2800      	cmp	r0, #0
20008278:	bf0c      	ite	eq
2000827a:	2406      	moveq	r4, #6
2000827c:	2400      	movne	r4, #0
2000827e:	4620      	mov	r0, r4
20008280:	b005      	add	sp, #20
20008282:	e8bd 8ff0 	ldmia.w	sp!, {r4, r5, r6, r7, r8, r9, sl, fp, pc}
20008286:	f1bc 0f2e 	cmp.w	ip, #46	; 0x2e
2000828a:	f000 812c 	beq.w	200084e6 <__gethex+0x326>
2000828e:	7833      	ldrb	r3, [r6, #0]
20008290:	4637      	mov	r7, r6
20008292:	f04f 0801 	mov.w	r8, #1
20008296:	2b50      	cmp	r3, #80	; 0x50
20008298:	d1e6      	bne.n	20008268 <__gethex+0xa8>
2000829a:	787b      	ldrb	r3, [r7, #1]
2000829c:	f107 0901 	add.w	r9, r7, #1
200082a0:	2b2b      	cmp	r3, #43	; 0x2b
200082a2:	f000 8149 	beq.w	20008538 <__gethex+0x378>
200082a6:	2b2d      	cmp	r3, #45	; 0x2d
200082a8:	f000 8141 	beq.w	2000852e <__gethex+0x36e>
200082ac:	2200      	movs	r2, #0
200082ae:	9203      	str	r2, [sp, #12]
200082b0:	f814 c003 	ldrb.w	ip, [r4, r3]
200082b4:	f24b 13e0 	movw	r3, #45536	; 0xb1e0
200082b8:	f2c2 0300 	movt	r3, #8192	; 0x2000
200082bc:	f1bc 0f00 	cmp.w	ip, #0
200082c0:	d0d4      	beq.n	2000826c <__gethex+0xac>
200082c2:	f1bc 0f19 	cmp.w	ip, #25
200082c6:	dcd1      	bgt.n	2000826c <__gethex+0xac>
200082c8:	f899 a001 	ldrb.w	sl, [r9, #1]
200082cc:	f1ac 0c10 	sub.w	ip, ip, #16
200082d0:	f109 0201 	add.w	r2, r9, #1
200082d4:	f813 300a 	ldrb.w	r3, [r3, sl]
200082d8:	b193      	cbz	r3, 20008300 <__gethex+0x140>
200082da:	2b19      	cmp	r3, #25
200082dc:	dc10      	bgt.n	20008300 <__gethex+0x140>
200082de:	46a9      	mov	r9, r5
200082e0:	e001      	b.n	200082e6 <__gethex+0x126>
200082e2:	2b19      	cmp	r3, #25
200082e4:	dc0b      	bgt.n	200082fe <__gethex+0x13e>
200082e6:	f812 af01 	ldrb.w	sl, [r2, #1]!
200082ea:	f1a3 0510 	sub.w	r5, r3, #16
200082ee:	eb0c 0c8c 	add.w	ip, ip, ip, lsl #2
200082f2:	f814 300a 	ldrb.w	r3, [r4, sl]
200082f6:	eb05 0c4c 	add.w	ip, r5, ip, lsl #1
200082fa:	2b00      	cmp	r3, #0
200082fc:	d1f1      	bne.n	200082e2 <__gethex+0x122>
200082fe:	464d      	mov	r5, r9
20008300:	9b03      	ldr	r3, [sp, #12]
20008302:	b10b      	cbz	r3, 20008308 <__gethex+0x148>
20008304:	f1cc 0c00 	rsb	ip, ip, #0
20008308:	4465      	add	r5, ip
2000830a:	600a      	str	r2, [r1, #0]
2000830c:	f1b8 0f00 	cmp.w	r8, #0
20008310:	d1b1      	bne.n	20008276 <__gethex+0xb6>
20008312:	1e7b      	subs	r3, r7, #1
20008314:	4641      	mov	r1, r8
20008316:	1b9b      	subs	r3, r3, r6
20008318:	2b07      	cmp	r3, #7
2000831a:	dd03      	ble.n	20008324 <__gethex+0x164>
2000831c:	105b      	asrs	r3, r3, #1
2000831e:	3101      	adds	r1, #1
20008320:	2b07      	cmp	r3, #7
20008322:	dcfb      	bgt.n	2000831c <__gethex+0x15c>
20008324:	9801      	ldr	r0, [sp, #4]
20008326:	f000 fcdb 	bl	20008ce0 <_Balloc>
2000832a:	42be      	cmp	r6, r7
2000832c:	4680      	mov	r8, r0
2000832e:	f100 0a14 	add.w	sl, r0, #20
20008332:	f080 8164 	bcs.w	200085fe <__gethex+0x43e>
20008336:	2300      	movs	r3, #0
20008338:	46ac      	mov	ip, r5
2000833a:	461a      	mov	r2, r3
2000833c:	4655      	mov	r5, sl
2000833e:	e009      	b.n	20008354 <__gethex+0x194>
20008340:	5c61      	ldrb	r1, [r4, r1]
20008342:	f001 010f 	and.w	r1, r1, #15
20008346:	fa11 f202 	lsls.w	r2, r1, r2
2000834a:	4313      	orrs	r3, r2
2000834c:	3f01      	subs	r7, #1
2000834e:	4602      	mov	r2, r0
20008350:	42be      	cmp	r6, r7
20008352:	d210      	bcs.n	20008376 <__gethex+0x1b6>
20008354:	f817 1c01 	ldrb.w	r1, [r7, #-1]
20008358:	1d10      	adds	r0, r2, #4
2000835a:	292e      	cmp	r1, #46	; 0x2e
2000835c:	bf08      	it	eq
2000835e:	4610      	moveq	r0, r2
20008360:	d0f4      	beq.n	2000834c <__gethex+0x18c>
20008362:	2a20      	cmp	r2, #32
20008364:	d1ec      	bne.n	20008340 <__gethex+0x180>
20008366:	f845 3b04 	str.w	r3, [r5], #4
2000836a:	2300      	movs	r3, #0
2000836c:	f817 1c01 	ldrb.w	r1, [r7, #-1]
20008370:	461a      	mov	r2, r3
20008372:	2004      	movs	r0, #4
20008374:	e7e4      	b.n	20008340 <__gethex+0x180>
20008376:	462a      	mov	r2, r5
20008378:	4665      	mov	r5, ip
2000837a:	4694      	mov	ip, r2
2000837c:	4662      	mov	r2, ip
2000837e:	4618      	mov	r0, r3
20008380:	f842 3b04 	str.w	r3, [r2], #4
20008384:	ebca 0402 	rsb	r4, sl, r2
20008388:	10a4      	asrs	r4, r4, #2
2000838a:	f8c8 4010 	str.w	r4, [r8, #16]
2000838e:	f000 faff 	bl	20008990 <__hi0bits>
20008392:	f8db 6000 	ldr.w	r6, [fp]
20008396:	0164      	lsls	r4, r4, #5
20008398:	1a24      	subs	r4, r4, r0
2000839a:	42b4      	cmp	r4, r6
2000839c:	f300 80d1 	bgt.w	20008542 <__gethex+0x382>
200083a0:	f2c0 80ab 	blt.w	200084fa <__gethex+0x33a>
200083a4:	2700      	movs	r7, #0
200083a6:	f8db 3008 	ldr.w	r3, [fp, #8]
200083aa:	429d      	cmp	r5, r3
200083ac:	f300 8092 	bgt.w	200084d4 <__gethex+0x314>
200083b0:	f8db 3004 	ldr.w	r3, [fp, #4]
200083b4:	429d      	cmp	r5, r3
200083b6:	f280 809e 	bge.w	200084f6 <__gethex+0x336>
200083ba:	1b5c      	subs	r4, r3, r5
200083bc:	42a6      	cmp	r6, r4
200083be:	dc18      	bgt.n	200083f2 <__gethex+0x232>
200083c0:	f8db 200c 	ldr.w	r2, [fp, #12]
200083c4:	2a02      	cmp	r2, #2
200083c6:	f000 80f9 	beq.w	200085bc <__gethex+0x3fc>
200083ca:	2a03      	cmp	r2, #3
200083cc:	f000 8135 	beq.w	2000863a <__gethex+0x47a>
200083d0:	2a01      	cmp	r2, #1
200083d2:	f000 8123 	beq.w	2000861c <__gethex+0x45c>
200083d6:	9801      	ldr	r0, [sp, #4]
200083d8:	4641      	mov	r1, r8
200083da:	f000 fc65 	bl	20008ca8 <_Bfree>
200083de:	9a0e      	ldr	r2, [sp, #56]	; 0x38
200083e0:	2300      	movs	r3, #0
200083e2:	2450      	movs	r4, #80	; 0x50
200083e4:	6013      	str	r3, [r2, #0]
200083e6:	e74a      	b.n	2000827e <__gethex+0xbe>
200083e8:	9100      	str	r1, [sp, #0]
200083ea:	f7ff fe73 	bl	200080d4 <__hexdig_init>
200083ee:	9900      	ldr	r1, [sp, #0]
200083f0:	e6f5      	b.n	200081de <__gethex+0x1e>
200083f2:	1e65      	subs	r5, r4, #1
200083f4:	2f00      	cmp	r7, #0
200083f6:	f040 80d9 	bne.w	200085ac <__gethex+0x3ec>
200083fa:	2d00      	cmp	r5, #0
200083fc:	dd04      	ble.n	20008408 <__gethex+0x248>
200083fe:	4640      	mov	r0, r8
20008400:	4629      	mov	r1, r5
20008402:	f000 fc25 	bl	20008c50 <__any_on>
20008406:	4607      	mov	r7, r0
20008408:	116b      	asrs	r3, r5, #5
2000840a:	2201      	movs	r2, #1
2000840c:	f005 051f 	and.w	r5, r5, #31
20008410:	4621      	mov	r1, r4
20008412:	f85a 3023 	ldr.w	r3, [sl, r3, lsl #2]
20008416:	40aa      	lsls	r2, r5
20008418:	4640      	mov	r0, r8
2000841a:	421a      	tst	r2, r3
2000841c:	bf18      	it	ne
2000841e:	f047 0702 	orrne.w	r7, r7, #2
20008422:	f7ff fe83 	bl	2000812c <rshift>
20008426:	f8db 5004 	ldr.w	r5, [fp, #4]
2000842a:	1b36      	subs	r6, r6, r4
2000842c:	2402      	movs	r4, #2
2000842e:	2f00      	cmp	r7, #0
20008430:	d077      	beq.n	20008522 <__gethex+0x362>
20008432:	f8db 300c 	ldr.w	r3, [fp, #12]
20008436:	2b02      	cmp	r3, #2
20008438:	d06c      	beq.n	20008514 <__gethex+0x354>
2000843a:	2b03      	cmp	r3, #3
2000843c:	f000 80e9 	beq.w	20008612 <__gethex+0x452>
20008440:	2b01      	cmp	r3, #1
20008442:	d16c      	bne.n	2000851e <__gethex+0x35e>
20008444:	f017 0f02 	tst.w	r7, #2
20008448:	d069      	beq.n	2000851e <__gethex+0x35e>
2000844a:	f8da 3000 	ldr.w	r3, [sl]
2000844e:	431f      	orrs	r7, r3
20008450:	f017 0f01 	tst.w	r7, #1
20008454:	d063      	beq.n	2000851e <__gethex+0x35e>
20008456:	f8d8 7010 	ldr.w	r7, [r8, #16]
2000845a:	4653      	mov	r3, sl
2000845c:	2000      	movs	r0, #0
2000845e:	eb08 0187 	add.w	r1, r8, r7, lsl #2
20008462:	3114      	adds	r1, #20
20008464:	681a      	ldr	r2, [r3, #0]
20008466:	f1b2 3fff 	cmp.w	r2, #4294967295
2000846a:	f040 80ed 	bne.w	20008648 <__gethex+0x488>
2000846e:	f843 0b04 	str.w	r0, [r3], #4
20008472:	4299      	cmp	r1, r3
20008474:	d8f6      	bhi.n	20008464 <__gethex+0x2a4>
20008476:	f8d8 2008 	ldr.w	r2, [r8, #8]
2000847a:	463b      	mov	r3, r7
2000847c:	4297      	cmp	r7, r2
2000847e:	bfb8      	it	lt
20008480:	46c2      	movlt	sl, r8
20008482:	f280 80e4 	bge.w	2000864e <__gethex+0x48e>
20008486:	eb0a 0283 	add.w	r2, sl, r3, lsl #2
2000848a:	46d0      	mov	r8, sl
2000848c:	3301      	adds	r3, #1
2000848e:	f8ca 3010 	str.w	r3, [sl, #16]
20008492:	2301      	movs	r3, #1
20008494:	6153      	str	r3, [r2, #20]
20008496:	2c02      	cmp	r4, #2
20008498:	f000 80a0 	beq.w	200085dc <__gethex+0x41c>
2000849c:	f8d8 3010 	ldr.w	r3, [r8, #16]
200084a0:	429f      	cmp	r7, r3
200084a2:	db0d      	blt.n	200084c0 <__gethex+0x300>
200084a4:	f016 061f 	ands.w	r6, r6, #31
200084a8:	f000 80a7 	beq.w	200085fa <__gethex+0x43a>
200084ac:	eb08 0787 	add.w	r7, r8, r7, lsl #2
200084b0:	f1c6 0620 	rsb	r6, r6, #32
200084b4:	6938      	ldr	r0, [r7, #16]
200084b6:	f000 fa6b 	bl	20008990 <__hi0bits>
200084ba:	42b0      	cmp	r0, r6
200084bc:	f280 809d 	bge.w	200085fa <__gethex+0x43a>
200084c0:	2101      	movs	r1, #1
200084c2:	4640      	mov	r0, r8
200084c4:	f7ff fe32 	bl	2000812c <rshift>
200084c8:	f8db 3008 	ldr.w	r3, [fp, #8]
200084cc:	3501      	adds	r5, #1
200084ce:	429d      	cmp	r5, r3
200084d0:	f340 8093 	ble.w	200085fa <__gethex+0x43a>
200084d4:	9801      	ldr	r0, [sp, #4]
200084d6:	4641      	mov	r1, r8
200084d8:	f000 fbe6 	bl	20008ca8 <_Bfree>
200084dc:	9a0e      	ldr	r2, [sp, #56]	; 0x38
200084de:	2300      	movs	r3, #0
200084e0:	24a3      	movs	r4, #163	; 0xa3
200084e2:	6013      	str	r3, [r2, #0]
200084e4:	e6cb      	b.n	2000827e <__gethex+0xbe>
200084e6:	7873      	ldrb	r3, [r6, #1]
200084e8:	1c77      	adds	r7, r6, #1
200084ea:	5cd5      	ldrb	r5, [r2, r3]
200084ec:	2d00      	cmp	r5, #0
200084ee:	d14c      	bne.n	2000858a <__gethex+0x3ca>
200084f0:	f04f 0801 	mov.w	r8, #1
200084f4:	e6b6      	b.n	20008264 <__gethex+0xa4>
200084f6:	2401      	movs	r4, #1
200084f8:	e799      	b.n	2000842e <__gethex+0x26e>
200084fa:	1b34      	subs	r4, r6, r4
200084fc:	4641      	mov	r1, r8
200084fe:	9801      	ldr	r0, [sp, #4]
20008500:	4622      	mov	r2, r4
20008502:	f000 fd07 	bl	20008f14 <__lshift>
20008506:	1b2d      	subs	r5, r5, r4
20008508:	4680      	mov	r8, r0
2000850a:	f100 0a14 	add.w	sl, r0, #20
2000850e:	e749      	b.n	200083a4 <__gethex+0x1e4>
20008510:	783b      	ldrb	r3, [r7, #0]
20008512:	e6a7      	b.n	20008264 <__gethex+0xa4>
20008514:	9a0f      	ldr	r2, [sp, #60]	; 0x3c
20008516:	f1c2 0301 	rsb	r3, r2, #1
2000851a:	2b00      	cmp	r3, #0
2000851c:	d19b      	bne.n	20008456 <__gethex+0x296>
2000851e:	f044 0410 	orr.w	r4, r4, #16
20008522:	9b0e      	ldr	r3, [sp, #56]	; 0x38
20008524:	9a02      	ldr	r2, [sp, #8]
20008526:	f8c3 8000 	str.w	r8, [r3]
2000852a:	6015      	str	r5, [r2, #0]
2000852c:	e6a7      	b.n	2000827e <__gethex+0xbe>
2000852e:	2201      	movs	r2, #1
20008530:	9203      	str	r2, [sp, #12]
20008532:	f819 3f01 	ldrb.w	r3, [r9, #1]!
20008536:	e6bb      	b.n	200082b0 <__gethex+0xf0>
20008538:	2300      	movs	r3, #0
2000853a:	9303      	str	r3, [sp, #12]
2000853c:	f819 3f01 	ldrb.w	r3, [r9, #1]!
20008540:	e6b6      	b.n	200082b0 <__gethex+0xf0>
20008542:	1ba4      	subs	r4, r4, r6
20008544:	4640      	mov	r0, r8
20008546:	4621      	mov	r1, r4
20008548:	f000 fb82 	bl	20008c50 <__any_on>
2000854c:	4607      	mov	r7, r0
2000854e:	b1a0      	cbz	r0, 2000857a <__gethex+0x3ba>
20008550:	1e61      	subs	r1, r4, #1
20008552:	2701      	movs	r7, #1
20008554:	f001 021f 	and.w	r2, r1, #31
20008558:	114b      	asrs	r3, r1, #5
2000855a:	fa17 f202 	lsls.w	r2, r7, r2
2000855e:	eb08 0383 	add.w	r3, r8, r3, lsl #2
20008562:	695b      	ldr	r3, [r3, #20]
20008564:	421a      	tst	r2, r3
20008566:	d008      	beq.n	2000857a <__gethex+0x3ba>
20008568:	42b9      	cmp	r1, r7
2000856a:	dd4b      	ble.n	20008604 <__gethex+0x444>
2000856c:	3901      	subs	r1, #1
2000856e:	4640      	mov	r0, r8
20008570:	f000 fb6e 	bl	20008c50 <__any_on>
20008574:	2800      	cmp	r0, #0
20008576:	d045      	beq.n	20008604 <__gethex+0x444>
20008578:	3702      	adds	r7, #2
2000857a:	4640      	mov	r0, r8
2000857c:	4621      	mov	r1, r4
2000857e:	f7ff fdd5 	bl	2000812c <rshift>
20008582:	192d      	adds	r5, r5, r4
20008584:	e70f      	b.n	200083a6 <__gethex+0x1e6>
20008586:	2000      	movs	r0, #0
20008588:	e63a      	b.n	20008200 <__gethex+0x40>
2000858a:	2b30      	cmp	r3, #48	; 0x30
2000858c:	463b      	mov	r3, r7
2000858e:	bf18      	it	ne
20008590:	783a      	ldrbne	r2, [r7, #0]
20008592:	d10d      	bne.n	200085b0 <__gethex+0x3f0>
20008594:	f813 2f01 	ldrb.w	r2, [r3, #1]!
20008598:	2a30      	cmp	r2, #48	; 0x30
2000859a:	d0fb      	beq.n	20008594 <__gethex+0x3d4>
2000859c:	5ca0      	ldrb	r0, [r4, r2]
2000859e:	b938      	cbnz	r0, 200085b0 <__gethex+0x3f0>
200085a0:	f04f 0801 	mov.w	r8, #1
200085a4:	463d      	mov	r5, r7
200085a6:	461e      	mov	r6, r3
200085a8:	4640      	mov	r0, r8
200085aa:	e639      	b.n	20008220 <__gethex+0x60>
200085ac:	2701      	movs	r7, #1
200085ae:	e72b      	b.n	20008408 <__gethex+0x248>
200085b0:	463d      	mov	r5, r7
200085b2:	461e      	mov	r6, r3
200085b4:	f04f 0800 	mov.w	r8, #0
200085b8:	2001      	movs	r0, #1
200085ba:	e631      	b.n	20008220 <__gethex+0x60>
200085bc:	9a0f      	ldr	r2, [sp, #60]	; 0x3c
200085be:	2a00      	cmp	r2, #0
200085c0:	f47f af09 	bne.w	200083d6 <__gethex+0x216>
200085c4:	9a02      	ldr	r2, [sp, #8]
200085c6:	2462      	movs	r4, #98	; 0x62
200085c8:	6013      	str	r3, [r2, #0]
200085ca:	2301      	movs	r3, #1
200085cc:	9a0e      	ldr	r2, [sp, #56]	; 0x38
200085ce:	f8ca 3000 	str.w	r3, [sl]
200085d2:	f8c8 3010 	str.w	r3, [r8, #16]
200085d6:	f8c2 8000 	str.w	r8, [r2]
200085da:	e650      	b.n	2000827e <__gethex+0xbe>
200085dc:	f8db 3000 	ldr.w	r3, [fp]
200085e0:	3b01      	subs	r3, #1
200085e2:	42b3      	cmp	r3, r6
200085e4:	d12e      	bne.n	20008644 <__gethex+0x484>
200085e6:	1173      	asrs	r3, r6, #5
200085e8:	2201      	movs	r2, #1
200085ea:	f006 061f 	and.w	r6, r6, #31
200085ee:	eb08 0383 	add.w	r3, r8, r3, lsl #2
200085f2:	40b2      	lsls	r2, r6
200085f4:	695b      	ldr	r3, [r3, #20]
200085f6:	421a      	tst	r2, r3
200085f8:	d024      	beq.n	20008644 <__gethex+0x484>
200085fa:	2421      	movs	r4, #33	; 0x21
200085fc:	e791      	b.n	20008522 <__gethex+0x362>
200085fe:	46d4      	mov	ip, sl
20008600:	2300      	movs	r3, #0
20008602:	e6bb      	b.n	2000837c <__gethex+0x1bc>
20008604:	2702      	movs	r7, #2
20008606:	e7b8      	b.n	2000857a <__gethex+0x3ba>
20008608:	463d      	mov	r5, r7
2000860a:	2d00      	cmp	r5, #0
2000860c:	f47f ae27 	bne.w	2000825e <__gethex+0x9e>
20008610:	e77e      	b.n	20008510 <__gethex+0x350>
20008612:	9b0f      	ldr	r3, [sp, #60]	; 0x3c
20008614:	2b00      	cmp	r3, #0
20008616:	f47f af1e 	bne.w	20008456 <__gethex+0x296>
2000861a:	e780      	b.n	2000851e <__gethex+0x35e>
2000861c:	42b4      	cmp	r4, r6
2000861e:	f47f aeda 	bne.w	200083d6 <__gethex+0x216>
20008622:	2e01      	cmp	r6, #1
20008624:	ddce      	ble.n	200085c4 <__gethex+0x404>
20008626:	1e71      	subs	r1, r6, #1
20008628:	4640      	mov	r0, r8
2000862a:	f000 fb11 	bl	20008c50 <__any_on>
2000862e:	2800      	cmp	r0, #0
20008630:	f43f aed1 	beq.w	200083d6 <__gethex+0x216>
20008634:	f8db 3004 	ldr.w	r3, [fp, #4]
20008638:	e7c4      	b.n	200085c4 <__gethex+0x404>
2000863a:	9a0f      	ldr	r2, [sp, #60]	; 0x3c
2000863c:	2a00      	cmp	r2, #0
2000863e:	f43f aeca 	beq.w	200083d6 <__gethex+0x216>
20008642:	e7bf      	b.n	200085c4 <__gethex+0x404>
20008644:	2422      	movs	r4, #34	; 0x22
20008646:	e76c      	b.n	20008522 <__gethex+0x362>
20008648:	3201      	adds	r2, #1
2000864a:	601a      	str	r2, [r3, #0]
2000864c:	e723      	b.n	20008496 <__gethex+0x2d6>
2000864e:	f8d8 1004 	ldr.w	r1, [r8, #4]
20008652:	9801      	ldr	r0, [sp, #4]
20008654:	3101      	adds	r1, #1
20008656:	f000 fb43 	bl	20008ce0 <_Balloc>
2000865a:	f8d8 2010 	ldr.w	r2, [r8, #16]
2000865e:	f108 010c 	add.w	r1, r8, #12
20008662:	3202      	adds	r2, #2
20008664:	0092      	lsls	r2, r2, #2
20008666:	4682      	mov	sl, r0
20008668:	300c      	adds	r0, #12
2000866a:	f7fb f9e1 	bl	20003a30 <memcpy>
2000866e:	9801      	ldr	r0, [sp, #4]
20008670:	4641      	mov	r1, r8
20008672:	f000 fb19 	bl	20008ca8 <_Bfree>
20008676:	f8da 3010 	ldr.w	r3, [sl, #16]
2000867a:	e704      	b.n	20008486 <__gethex+0x2c6>

2000867c <__hexnan>:
2000867c:	e92d 4ff0 	stmdb	sp!, {r4, r5, r6, r7, r8, r9, sl, fp, lr}
20008680:	f24b 14e0 	movw	r4, #45536	; 0xb1e0
20008684:	f2c2 0400 	movt	r4, #8192	; 0x2000
20008688:	b085      	sub	sp, #20
2000868a:	460d      	mov	r5, r1
2000868c:	4691      	mov	r9, r2
2000868e:	f894 3030 	ldrb.w	r3, [r4, #48]	; 0x30
20008692:	9002      	str	r0, [sp, #8]
20008694:	2b00      	cmp	r3, #0
20008696:	f000 80af 	beq.w	200087f8 <__hexnan+0x17c>
2000869a:	682a      	ldr	r2, [r5, #0]
2000869c:	9902      	ldr	r1, [sp, #8]
2000869e:	1153      	asrs	r3, r2, #5
200086a0:	f012 021f 	ands.w	r2, r2, #31
200086a4:	9203      	str	r2, [sp, #12]
200086a6:	eb09 0383 	add.w	r3, r9, r3, lsl #2
200086aa:	680e      	ldr	r6, [r1, #0]
200086ac:	bf18      	it	ne
200086ae:	3304      	addne	r3, #4
200086b0:	2200      	movs	r2, #0
200086b2:	1f18      	subs	r0, r3, #4
200086b4:	4692      	mov	sl, r2
200086b6:	4680      	mov	r8, r0
200086b8:	4601      	mov	r1, r0
200086ba:	4693      	mov	fp, r2
200086bc:	4617      	mov	r7, r2
200086be:	9001      	str	r0, [sp, #4]
200086c0:	f843 2c04 	str.w	r2, [r3, #-4]
200086c4:	f816 3f01 	ldrb.w	r3, [r6, #1]!
200086c8:	2b00      	cmp	r3, #0
200086ca:	d035      	beq.n	20008738 <__hexnan+0xbc>
200086cc:	5ce2      	ldrb	r2, [r4, r3]
200086ce:	2a00      	cmp	r2, #0
200086d0:	d175      	bne.n	200087be <__hexnan+0x142>
200086d2:	2b20      	cmp	r3, #32
200086d4:	f200 808a 	bhi.w	200087ec <__hexnan+0x170>
200086d8:	455f      	cmp	r7, fp
200086da:	ddf3      	ble.n	200086c4 <__hexnan+0x48>
200086dc:	4541      	cmp	r1, r8
200086de:	bf2c      	ite	cs
200086e0:	2300      	movcs	r3, #0
200086e2:	2301      	movcc	r3, #1
200086e4:	f1ba 0f07 	cmp.w	sl, #7
200086e8:	bfcc      	ite	gt
200086ea:	2300      	movgt	r3, #0
200086ec:	f003 0301 	andle.w	r3, r3, #1
200086f0:	b19b      	cbz	r3, 2000871a <__hexnan+0x9e>
200086f2:	f1ca 0508 	rsb	r5, sl, #8
200086f6:	680a      	ldr	r2, [r1, #0]
200086f8:	460b      	mov	r3, r1
200086fa:	468c      	mov	ip, r1
200086fc:	00ad      	lsls	r5, r5, #2
200086fe:	f1c5 0a20 	rsb	sl, r5, #32
20008702:	6859      	ldr	r1, [r3, #4]
20008704:	fa01 f00a 	lsl.w	r0, r1, sl
20008708:	4302      	orrs	r2, r0
2000870a:	601a      	str	r2, [r3, #0]
2000870c:	fa31 f205 	lsrs.w	r2, r1, r5
20008710:	f843 2f04 	str.w	r2, [r3, #4]!
20008714:	4598      	cmp	r8, r3
20008716:	d8f4      	bhi.n	20008702 <__hexnan+0x86>
20008718:	4661      	mov	r1, ip
2000871a:	4549      	cmp	r1, r9
2000871c:	bf98      	it	ls
2000871e:	f04f 0a08 	movls.w	sl, #8
20008722:	d9cf      	bls.n	200086c4 <__hexnan+0x48>
20008724:	2200      	movs	r2, #0
20008726:	f841 2d04 	str.w	r2, [r1, #-4]!
2000872a:	f816 3f01 	ldrb.w	r3, [r6, #1]!
2000872e:	46bb      	mov	fp, r7
20008730:	4688      	mov	r8, r1
20008732:	4692      	mov	sl, r2
20008734:	2b00      	cmp	r3, #0
20008736:	d1c9      	bne.n	200086cc <__hexnan+0x50>
20008738:	2f00      	cmp	r7, #0
2000873a:	d059      	beq.n	200087f0 <__hexnan+0x174>
2000873c:	4541      	cmp	r1, r8
2000873e:	bf2c      	ite	cs
20008740:	2300      	movcs	r3, #0
20008742:	2301      	movcc	r3, #1
20008744:	f1ba 0f07 	cmp.w	sl, #7
20008748:	bfcc      	ite	gt
2000874a:	2300      	movgt	r3, #0
2000874c:	f003 0301 	andle.w	r3, r3, #1
20008750:	b19b      	cbz	r3, 2000877a <__hexnan+0xfe>
20008752:	f1ca 0a08 	rsb	sl, sl, #8
20008756:	680a      	ldr	r2, [r1, #0]
20008758:	460b      	mov	r3, r1
2000875a:	ea4f 0a8a 	mov.w	sl, sl, lsl #2
2000875e:	f1ca 0420 	rsb	r4, sl, #32
20008762:	6858      	ldr	r0, [r3, #4]
20008764:	fa00 fc04 	lsl.w	ip, r0, r4
20008768:	ea42 020c 	orr.w	r2, r2, ip
2000876c:	601a      	str	r2, [r3, #0]
2000876e:	fa20 f20a 	lsr.w	r2, r0, sl
20008772:	f843 2f04 	str.w	r2, [r3, #4]!
20008776:	4598      	cmp	r8, r3
20008778:	d8f3      	bhi.n	20008762 <__hexnan+0xe6>
2000877a:	4589      	cmp	r9, r1
2000877c:	d23f      	bcs.n	200087fe <__hexnan+0x182>
2000877e:	9801      	ldr	r0, [sp, #4]
20008780:	464b      	mov	r3, r9
20008782:	f851 2b04 	ldr.w	r2, [r1], #4
20008786:	4288      	cmp	r0, r1
20008788:	f843 2b04 	str.w	r2, [r3], #4
2000878c:	d2f9      	bcs.n	20008782 <__hexnan+0x106>
2000878e:	9901      	ldr	r1, [sp, #4]
20008790:	2200      	movs	r2, #0
20008792:	f843 2b04 	str.w	r2, [r3], #4
20008796:	4299      	cmp	r1, r3
20008798:	d2fb      	bcs.n	20008792 <__hexnan+0x116>
2000879a:	9801      	ldr	r0, [sp, #4]
2000879c:	6803      	ldr	r3, [r0, #0]
2000879e:	b963      	cbnz	r3, 200087ba <__hexnan+0x13e>
200087a0:	9901      	ldr	r1, [sp, #4]
200087a2:	4589      	cmp	r9, r1
200087a4:	bf18      	it	ne
200087a6:	9b01      	ldrne	r3, [sp, #4]
200087a8:	d102      	bne.n	200087b0 <__hexnan+0x134>
200087aa:	e037      	b.n	2000881c <__hexnan+0x1a0>
200087ac:	4599      	cmp	r9, r3
200087ae:	d035      	beq.n	2000881c <__hexnan+0x1a0>
200087b0:	f853 2c04 	ldr.w	r2, [r3, #-4]
200087b4:	3b04      	subs	r3, #4
200087b6:	2a00      	cmp	r2, #0
200087b8:	d0f8      	beq.n	200087ac <__hexnan+0x130>
200087ba:	2005      	movs	r0, #5
200087bc:	e019      	b.n	200087f2 <__hexnan+0x176>
200087be:	f10a 0a01 	add.w	sl, sl, #1
200087c2:	3701      	adds	r7, #1
200087c4:	f1ba 0f08 	cmp.w	sl, #8
200087c8:	dc07      	bgt.n	200087da <__hexnan+0x15e>
200087ca:	680b      	ldr	r3, [r1, #0]
200087cc:	011b      	lsls	r3, r3, #4
200087ce:	f002 020f 	and.w	r2, r2, #15
200087d2:	ea43 0202 	orr.w	r2, r3, r2
200087d6:	600a      	str	r2, [r1, #0]
200087d8:	e774      	b.n	200086c4 <__hexnan+0x48>
200087da:	4549      	cmp	r1, r9
200087dc:	f67f af72 	bls.w	200086c4 <__hexnan+0x48>
200087e0:	2300      	movs	r3, #0
200087e2:	f04f 0a01 	mov.w	sl, #1
200087e6:	f841 3d04 	str.w	r3, [r1, #-4]!
200087ea:	e7f0      	b.n	200087ce <__hexnan+0x152>
200087ec:	2b29      	cmp	r3, #41	; 0x29
200087ee:	d01d      	beq.n	2000882c <__hexnan+0x1b0>
200087f0:	2004      	movs	r0, #4
200087f2:	b005      	add	sp, #20
200087f4:	e8bd 8ff0 	ldmia.w	sp!, {r4, r5, r6, r7, r8, r9, sl, fp, pc}
200087f8:	f7ff fc6c 	bl	200080d4 <__hexdig_init>
200087fc:	e74d      	b.n	2000869a <__hexnan+0x1e>
200087fe:	9903      	ldr	r1, [sp, #12]
20008800:	b189      	cbz	r1, 20008826 <__hexnan+0x1aa>
20008802:	9801      	ldr	r0, [sp, #4]
20008804:	f04f 31ff 	mov.w	r1, #4294967295
20008808:	9b03      	ldr	r3, [sp, #12]
2000880a:	f1c3 0220 	rsb	r2, r3, #32
2000880e:	6803      	ldr	r3, [r0, #0]
20008810:	fa31 f202 	lsrs.w	r2, r1, r2
20008814:	ea02 0303 	and.w	r3, r2, r3
20008818:	6003      	str	r3, [r0, #0]
2000881a:	e7c0      	b.n	2000879e <__hexnan+0x122>
2000881c:	2301      	movs	r3, #1
2000881e:	2005      	movs	r0, #5
20008820:	f8c9 3000 	str.w	r3, [r9]
20008824:	e7e5      	b.n	200087f2 <__hexnan+0x176>
20008826:	9a01      	ldr	r2, [sp, #4]
20008828:	6813      	ldr	r3, [r2, #0]
2000882a:	e7b8      	b.n	2000879e <__hexnan+0x122>
2000882c:	9b02      	ldr	r3, [sp, #8]
2000882e:	3601      	adds	r6, #1
20008830:	601e      	str	r6, [r3, #0]
20008832:	2f00      	cmp	r7, #0
20008834:	d182      	bne.n	2000873c <__hexnan+0xc0>
20008836:	e7db      	b.n	200087f0 <__hexnan+0x174>

20008838 <_lseek_r>:
20008838:	b538      	push	{r3, r4, r5, lr}
2000883a:	f24b 14dc 	movw	r4, #45532	; 0xb1dc
2000883e:	f2c2 0400 	movt	r4, #8192	; 0x2000
20008842:	4605      	mov	r5, r0
20008844:	4608      	mov	r0, r1
20008846:	4611      	mov	r1, r2
20008848:	461a      	mov	r2, r3
2000884a:	2300      	movs	r3, #0
2000884c:	6023      	str	r3, [r4, #0]
2000884e:	f7f8 fa3f 	bl	20000cd0 <_lseek>
20008852:	f1b0 3fff 	cmp.w	r0, #4294967295
20008856:	d000      	beq.n	2000885a <_lseek_r+0x22>
20008858:	bd38      	pop	{r3, r4, r5, pc}
2000885a:	6823      	ldr	r3, [r4, #0]
2000885c:	2b00      	cmp	r3, #0
2000885e:	d0fb      	beq.n	20008858 <_lseek_r+0x20>
20008860:	602b      	str	r3, [r5, #0]
20008862:	bd38      	pop	{r3, r4, r5, pc}

20008864 <memchr>:
20008864:	f010 0f03 	tst.w	r0, #3
20008868:	b2c9      	uxtb	r1, r1
2000886a:	b410      	push	{r4}
2000886c:	d010      	beq.n	20008890 <memchr+0x2c>
2000886e:	2a00      	cmp	r2, #0
20008870:	d02f      	beq.n	200088d2 <memchr+0x6e>
20008872:	7803      	ldrb	r3, [r0, #0]
20008874:	428b      	cmp	r3, r1
20008876:	d02a      	beq.n	200088ce <memchr+0x6a>
20008878:	3a01      	subs	r2, #1
2000887a:	e005      	b.n	20008888 <memchr+0x24>
2000887c:	2a00      	cmp	r2, #0
2000887e:	d028      	beq.n	200088d2 <memchr+0x6e>
20008880:	7803      	ldrb	r3, [r0, #0]
20008882:	3a01      	subs	r2, #1
20008884:	428b      	cmp	r3, r1
20008886:	d022      	beq.n	200088ce <memchr+0x6a>
20008888:	3001      	adds	r0, #1
2000888a:	f010 0f03 	tst.w	r0, #3
2000888e:	d1f5      	bne.n	2000887c <memchr+0x18>
20008890:	2a03      	cmp	r2, #3
20008892:	d911      	bls.n	200088b8 <memchr+0x54>
20008894:	ea41 2401 	orr.w	r4, r1, r1, lsl #8
20008898:	ea44 4404 	orr.w	r4, r4, r4, lsl #16
2000889c:	6803      	ldr	r3, [r0, #0]
2000889e:	ea84 0303 	eor.w	r3, r4, r3
200088a2:	f1a3 3c01 	sub.w	ip, r3, #16843009	; 0x1010101
200088a6:	ea2c 0303 	bic.w	r3, ip, r3
200088aa:	f013 3f80 	tst.w	r3, #2155905152	; 0x80808080
200088ae:	d103      	bne.n	200088b8 <memchr+0x54>
200088b0:	3a04      	subs	r2, #4
200088b2:	3004      	adds	r0, #4
200088b4:	2a03      	cmp	r2, #3
200088b6:	d8f1      	bhi.n	2000889c <memchr+0x38>
200088b8:	b15a      	cbz	r2, 200088d2 <memchr+0x6e>
200088ba:	7803      	ldrb	r3, [r0, #0]
200088bc:	428b      	cmp	r3, r1
200088be:	d006      	beq.n	200088ce <memchr+0x6a>
200088c0:	3a01      	subs	r2, #1
200088c2:	b132      	cbz	r2, 200088d2 <memchr+0x6e>
200088c4:	f810 3f01 	ldrb.w	r3, [r0, #1]!
200088c8:	3a01      	subs	r2, #1
200088ca:	428b      	cmp	r3, r1
200088cc:	d1f9      	bne.n	200088c2 <memchr+0x5e>
200088ce:	bc10      	pop	{r4}
200088d0:	4770      	bx	lr
200088d2:	2000      	movs	r0, #0
200088d4:	e7fb      	b.n	200088ce <memchr+0x6a>
200088d6:	bf00      	nop

200088d8 <memmove>:
200088d8:	4288      	cmp	r0, r1
200088da:	468c      	mov	ip, r1
200088dc:	b470      	push	{r4, r5, r6}
200088de:	4605      	mov	r5, r0
200088e0:	4614      	mov	r4, r2
200088e2:	d90e      	bls.n	20008902 <memmove+0x2a>
200088e4:	188b      	adds	r3, r1, r2
200088e6:	4298      	cmp	r0, r3
200088e8:	d20b      	bcs.n	20008902 <memmove+0x2a>
200088ea:	b142      	cbz	r2, 200088fe <memmove+0x26>
200088ec:	ebc2 0c03 	rsb	ip, r2, r3
200088f0:	4601      	mov	r1, r0
200088f2:	1e53      	subs	r3, r2, #1
200088f4:	f81c 2003 	ldrb.w	r2, [ip, r3]
200088f8:	54ca      	strb	r2, [r1, r3]
200088fa:	3b01      	subs	r3, #1
200088fc:	d2fa      	bcs.n	200088f4 <memmove+0x1c>
200088fe:	bc70      	pop	{r4, r5, r6}
20008900:	4770      	bx	lr
20008902:	2a0f      	cmp	r2, #15
20008904:	d809      	bhi.n	2000891a <memmove+0x42>
20008906:	2c00      	cmp	r4, #0
20008908:	d0f9      	beq.n	200088fe <memmove+0x26>
2000890a:	2300      	movs	r3, #0
2000890c:	f81c 2003 	ldrb.w	r2, [ip, r3]
20008910:	54ea      	strb	r2, [r5, r3]
20008912:	3301      	adds	r3, #1
20008914:	42a3      	cmp	r3, r4
20008916:	d1f9      	bne.n	2000890c <memmove+0x34>
20008918:	e7f1      	b.n	200088fe <memmove+0x26>
2000891a:	ea41 0300 	orr.w	r3, r1, r0
2000891e:	f013 0f03 	tst.w	r3, #3
20008922:	d1f0      	bne.n	20008906 <memmove+0x2e>
20008924:	4694      	mov	ip, r2
20008926:	460c      	mov	r4, r1
20008928:	4603      	mov	r3, r0
2000892a:	6825      	ldr	r5, [r4, #0]
2000892c:	f1ac 0c10 	sub.w	ip, ip, #16
20008930:	601d      	str	r5, [r3, #0]
20008932:	6865      	ldr	r5, [r4, #4]
20008934:	605d      	str	r5, [r3, #4]
20008936:	68a5      	ldr	r5, [r4, #8]
20008938:	609d      	str	r5, [r3, #8]
2000893a:	68e5      	ldr	r5, [r4, #12]
2000893c:	3410      	adds	r4, #16
2000893e:	60dd      	str	r5, [r3, #12]
20008940:	3310      	adds	r3, #16
20008942:	f1bc 0f0f 	cmp.w	ip, #15
20008946:	d8f0      	bhi.n	2000892a <memmove+0x52>
20008948:	3a10      	subs	r2, #16
2000894a:	ea4f 1c12 	mov.w	ip, r2, lsr #4
2000894e:	f10c 0501 	add.w	r5, ip, #1
20008952:	ebcc 7c0c 	rsb	ip, ip, ip, lsl #28
20008956:	012d      	lsls	r5, r5, #4
20008958:	eb02 160c 	add.w	r6, r2, ip, lsl #4
2000895c:	eb01 0c05 	add.w	ip, r1, r5
20008960:	1945      	adds	r5, r0, r5
20008962:	2e03      	cmp	r6, #3
20008964:	4634      	mov	r4, r6
20008966:	d9ce      	bls.n	20008906 <memmove+0x2e>
20008968:	2300      	movs	r3, #0
2000896a:	f85c 2003 	ldr.w	r2, [ip, r3]
2000896e:	50ea      	str	r2, [r5, r3]
20008970:	3304      	adds	r3, #4
20008972:	1af2      	subs	r2, r6, r3
20008974:	2a03      	cmp	r2, #3
20008976:	d8f8      	bhi.n	2000896a <memmove+0x92>
20008978:	3e04      	subs	r6, #4
2000897a:	08b3      	lsrs	r3, r6, #2
2000897c:	1c5a      	adds	r2, r3, #1
2000897e:	ebc3 7383 	rsb	r3, r3, r3, lsl #30
20008982:	0092      	lsls	r2, r2, #2
20008984:	4494      	add	ip, r2
20008986:	eb06 0483 	add.w	r4, r6, r3, lsl #2
2000898a:	18ad      	adds	r5, r5, r2
2000898c:	e7bb      	b.n	20008906 <memmove+0x2e>
2000898e:	bf00      	nop

20008990 <__hi0bits>:
20008990:	0c02      	lsrs	r2, r0, #16
20008992:	4603      	mov	r3, r0
20008994:	0412      	lsls	r2, r2, #16
20008996:	b1b2      	cbz	r2, 200089c6 <__hi0bits+0x36>
20008998:	2000      	movs	r0, #0
2000899a:	f013 4f7f 	tst.w	r3, #4278190080	; 0xff000000
2000899e:	d101      	bne.n	200089a4 <__hi0bits+0x14>
200089a0:	3008      	adds	r0, #8
200089a2:	021b      	lsls	r3, r3, #8
200089a4:	f013 4f70 	tst.w	r3, #4026531840	; 0xf0000000
200089a8:	d101      	bne.n	200089ae <__hi0bits+0x1e>
200089aa:	3004      	adds	r0, #4
200089ac:	011b      	lsls	r3, r3, #4
200089ae:	f013 4f40 	tst.w	r3, #3221225472	; 0xc0000000
200089b2:	d101      	bne.n	200089b8 <__hi0bits+0x28>
200089b4:	3002      	adds	r0, #2
200089b6:	009b      	lsls	r3, r3, #2
200089b8:	2b00      	cmp	r3, #0
200089ba:	db03      	blt.n	200089c4 <__hi0bits+0x34>
200089bc:	f013 4f80 	tst.w	r3, #1073741824	; 0x40000000
200089c0:	d004      	beq.n	200089cc <__hi0bits+0x3c>
200089c2:	3001      	adds	r0, #1
200089c4:	4770      	bx	lr
200089c6:	0403      	lsls	r3, r0, #16
200089c8:	2010      	movs	r0, #16
200089ca:	e7e6      	b.n	2000899a <__hi0bits+0xa>
200089cc:	2020      	movs	r0, #32
200089ce:	4770      	bx	lr

200089d0 <__lo0bits>:
200089d0:	6803      	ldr	r3, [r0, #0]
200089d2:	4602      	mov	r2, r0
200089d4:	f013 0007 	ands.w	r0, r3, #7
200089d8:	d009      	beq.n	200089ee <__lo0bits+0x1e>
200089da:	f013 0f01 	tst.w	r3, #1
200089de:	d121      	bne.n	20008a24 <__lo0bits+0x54>
200089e0:	f013 0f02 	tst.w	r3, #2
200089e4:	d122      	bne.n	20008a2c <__lo0bits+0x5c>
200089e6:	089b      	lsrs	r3, r3, #2
200089e8:	2002      	movs	r0, #2
200089ea:	6013      	str	r3, [r2, #0]
200089ec:	4770      	bx	lr
200089ee:	b299      	uxth	r1, r3
200089f0:	b909      	cbnz	r1, 200089f6 <__lo0bits+0x26>
200089f2:	0c1b      	lsrs	r3, r3, #16
200089f4:	2010      	movs	r0, #16
200089f6:	f013 0fff 	tst.w	r3, #255	; 0xff
200089fa:	d101      	bne.n	20008a00 <__lo0bits+0x30>
200089fc:	3008      	adds	r0, #8
200089fe:	0a1b      	lsrs	r3, r3, #8
20008a00:	f013 0f0f 	tst.w	r3, #15
20008a04:	d101      	bne.n	20008a0a <__lo0bits+0x3a>
20008a06:	3004      	adds	r0, #4
20008a08:	091b      	lsrs	r3, r3, #4
20008a0a:	f013 0f03 	tst.w	r3, #3
20008a0e:	d101      	bne.n	20008a14 <__lo0bits+0x44>
20008a10:	3002      	adds	r0, #2
20008a12:	089b      	lsrs	r3, r3, #2
20008a14:	f013 0f01 	tst.w	r3, #1
20008a18:	d102      	bne.n	20008a20 <__lo0bits+0x50>
20008a1a:	085b      	lsrs	r3, r3, #1
20008a1c:	d004      	beq.n	20008a28 <__lo0bits+0x58>
20008a1e:	3001      	adds	r0, #1
20008a20:	6013      	str	r3, [r2, #0]
20008a22:	4770      	bx	lr
20008a24:	2000      	movs	r0, #0
20008a26:	4770      	bx	lr
20008a28:	2020      	movs	r0, #32
20008a2a:	4770      	bx	lr
20008a2c:	085b      	lsrs	r3, r3, #1
20008a2e:	2001      	movs	r0, #1
20008a30:	6013      	str	r3, [r2, #0]
20008a32:	4770      	bx	lr

20008a34 <__mcmp>:
20008a34:	4603      	mov	r3, r0
20008a36:	690a      	ldr	r2, [r1, #16]
20008a38:	6900      	ldr	r0, [r0, #16]
20008a3a:	b410      	push	{r4}
20008a3c:	1a80      	subs	r0, r0, r2
20008a3e:	d111      	bne.n	20008a64 <__mcmp+0x30>
20008a40:	3204      	adds	r2, #4
20008a42:	f103 0c14 	add.w	ip, r3, #20
20008a46:	0092      	lsls	r2, r2, #2
20008a48:	189b      	adds	r3, r3, r2
20008a4a:	1889      	adds	r1, r1, r2
20008a4c:	3104      	adds	r1, #4
20008a4e:	3304      	adds	r3, #4
20008a50:	f853 4c04 	ldr.w	r4, [r3, #-4]
20008a54:	3b04      	subs	r3, #4
20008a56:	f851 2c04 	ldr.w	r2, [r1, #-4]
20008a5a:	3904      	subs	r1, #4
20008a5c:	4294      	cmp	r4, r2
20008a5e:	d103      	bne.n	20008a68 <__mcmp+0x34>
20008a60:	459c      	cmp	ip, r3
20008a62:	d3f5      	bcc.n	20008a50 <__mcmp+0x1c>
20008a64:	bc10      	pop	{r4}
20008a66:	4770      	bx	lr
20008a68:	bf38      	it	cc
20008a6a:	f04f 30ff 	movcc.w	r0, #4294967295
20008a6e:	d3f9      	bcc.n	20008a64 <__mcmp+0x30>
20008a70:	2001      	movs	r0, #1
20008a72:	e7f7      	b.n	20008a64 <__mcmp+0x30>

20008a74 <__ulp>:
20008a74:	f240 0300 	movw	r3, #0
20008a78:	f6c7 73f0 	movt	r3, #32752	; 0x7ff0
20008a7c:	ea01 0303 	and.w	r3, r1, r3
20008a80:	f1a3 7350 	sub.w	r3, r3, #54525952	; 0x3400000
20008a84:	2b00      	cmp	r3, #0
20008a86:	dd02      	ble.n	20008a8e <__ulp+0x1a>
20008a88:	4619      	mov	r1, r3
20008a8a:	2000      	movs	r0, #0
20008a8c:	4770      	bx	lr
20008a8e:	425b      	negs	r3, r3
20008a90:	151b      	asrs	r3, r3, #20
20008a92:	2b13      	cmp	r3, #19
20008a94:	dd0e      	ble.n	20008ab4 <__ulp+0x40>
20008a96:	3b14      	subs	r3, #20
20008a98:	2b1e      	cmp	r3, #30
20008a9a:	dd03      	ble.n	20008aa4 <__ulp+0x30>
20008a9c:	2301      	movs	r3, #1
20008a9e:	2100      	movs	r1, #0
20008aa0:	4618      	mov	r0, r3
20008aa2:	4770      	bx	lr
20008aa4:	2201      	movs	r2, #1
20008aa6:	f1c3 031f 	rsb	r3, r3, #31
20008aaa:	2100      	movs	r1, #0
20008aac:	fa12 f303 	lsls.w	r3, r2, r3
20008ab0:	4618      	mov	r0, r3
20008ab2:	4770      	bx	lr
20008ab4:	f44f 2200 	mov.w	r2, #524288	; 0x80000
20008ab8:	2000      	movs	r0, #0
20008aba:	fa52 f103 	asrs.w	r1, r2, r3
20008abe:	4770      	bx	lr

20008ac0 <__b2d>:
20008ac0:	e92d 41f0 	stmdb	sp!, {r4, r5, r6, r7, r8, lr}
20008ac4:	6904      	ldr	r4, [r0, #16]
20008ac6:	f100 0614 	add.w	r6, r0, #20
20008aca:	460f      	mov	r7, r1
20008acc:	3404      	adds	r4, #4
20008ace:	f850 5024 	ldr.w	r5, [r0, r4, lsl #2]
20008ad2:	eb00 0484 	add.w	r4, r0, r4, lsl #2
20008ad6:	46a0      	mov	r8, r4
20008ad8:	4628      	mov	r0, r5
20008ada:	f7ff ff59 	bl	20008990 <__hi0bits>
20008ade:	280a      	cmp	r0, #10
20008ae0:	f1c0 0320 	rsb	r3, r0, #32
20008ae4:	603b      	str	r3, [r7, #0]
20008ae6:	dc14      	bgt.n	20008b12 <__b2d+0x52>
20008ae8:	42a6      	cmp	r6, r4
20008aea:	f1c0 030b 	rsb	r3, r0, #11
20008aee:	d237      	bcs.n	20008b60 <__b2d+0xa0>
20008af0:	f854 1c04 	ldr.w	r1, [r4, #-4]
20008af4:	40d9      	lsrs	r1, r3
20008af6:	fa25 fc03 	lsr.w	ip, r5, r3
20008afa:	3015      	adds	r0, #21
20008afc:	f04c 537e 	orr.w	r3, ip, #1065353216	; 0x3f800000
20008b00:	4085      	lsls	r5, r0
20008b02:	f443 03e0 	orr.w	r3, r3, #7340032	; 0x700000
20008b06:	ea41 0205 	orr.w	r2, r1, r5
20008b0a:	4610      	mov	r0, r2
20008b0c:	4619      	mov	r1, r3
20008b0e:	e8bd 81f0 	ldmia.w	sp!, {r4, r5, r6, r7, r8, pc}
20008b12:	42a6      	cmp	r6, r4
20008b14:	d320      	bcc.n	20008b58 <__b2d+0x98>
20008b16:	2100      	movs	r1, #0
20008b18:	380b      	subs	r0, #11
20008b1a:	bf02      	ittt	eq
20008b1c:	f045 537e 	orreq.w	r3, r5, #1065353216	; 0x3f800000
20008b20:	460a      	moveq	r2, r1
20008b22:	f443 03e0 	orreq.w	r3, r3, #7340032	; 0x700000
20008b26:	d0f0      	beq.n	20008b0a <__b2d+0x4a>
20008b28:	42b4      	cmp	r4, r6
20008b2a:	f1c0 0320 	rsb	r3, r0, #32
20008b2e:	d919      	bls.n	20008b64 <__b2d+0xa4>
20008b30:	f854 4c04 	ldr.w	r4, [r4, #-4]
20008b34:	40dc      	lsrs	r4, r3
20008b36:	4085      	lsls	r5, r0
20008b38:	fa21 fc03 	lsr.w	ip, r1, r3
20008b3c:	f045 557e 	orr.w	r5, r5, #1065353216	; 0x3f800000
20008b40:	fa11 f000 	lsls.w	r0, r1, r0
20008b44:	f445 05e0 	orr.w	r5, r5, #7340032	; 0x700000
20008b48:	ea44 0200 	orr.w	r2, r4, r0
20008b4c:	ea45 030c 	orr.w	r3, r5, ip
20008b50:	4610      	mov	r0, r2
20008b52:	4619      	mov	r1, r3
20008b54:	e8bd 81f0 	ldmia.w	sp!, {r4, r5, r6, r7, r8, pc}
20008b58:	f854 1c04 	ldr.w	r1, [r4, #-4]
20008b5c:	3c04      	subs	r4, #4
20008b5e:	e7db      	b.n	20008b18 <__b2d+0x58>
20008b60:	2100      	movs	r1, #0
20008b62:	e7c8      	b.n	20008af6 <__b2d+0x36>
20008b64:	2400      	movs	r4, #0
20008b66:	e7e6      	b.n	20008b36 <__b2d+0x76>

20008b68 <__ratio>:
20008b68:	e92d 43f0 	stmdb	sp!, {r4, r5, r6, r7, r8, r9, lr}
20008b6c:	b083      	sub	sp, #12
20008b6e:	460e      	mov	r6, r1
20008b70:	a901      	add	r1, sp, #4
20008b72:	4607      	mov	r7, r0
20008b74:	f7ff ffa4 	bl	20008ac0 <__b2d>
20008b78:	460d      	mov	r5, r1
20008b7a:	4604      	mov	r4, r0
20008b7c:	4669      	mov	r1, sp
20008b7e:	4630      	mov	r0, r6
20008b80:	f7ff ff9e 	bl	20008ac0 <__b2d>
20008b84:	f8dd c004 	ldr.w	ip, [sp, #4]
20008b88:	46a9      	mov	r9, r5
20008b8a:	46a0      	mov	r8, r4
20008b8c:	460b      	mov	r3, r1
20008b8e:	4602      	mov	r2, r0
20008b90:	6931      	ldr	r1, [r6, #16]
20008b92:	4616      	mov	r6, r2
20008b94:	6938      	ldr	r0, [r7, #16]
20008b96:	461f      	mov	r7, r3
20008b98:	1a40      	subs	r0, r0, r1
20008b9a:	9900      	ldr	r1, [sp, #0]
20008b9c:	ebc1 010c 	rsb	r1, r1, ip
20008ba0:	eb01 1140 	add.w	r1, r1, r0, lsl #5
20008ba4:	2900      	cmp	r1, #0
20008ba6:	bfc9      	itett	gt
20008ba8:	eb05 5901 	addgt.w	r9, r5, r1, lsl #20
20008bac:	eba3 5701 	suble.w	r7, r3, r1, lsl #20
20008bb0:	4624      	movgt	r4, r4
20008bb2:	464d      	movgt	r5, r9
20008bb4:	bfdc      	itt	le
20008bb6:	4612      	movle	r2, r2
20008bb8:	463b      	movle	r3, r7
20008bba:	4620      	mov	r0, r4
20008bbc:	4629      	mov	r1, r5
20008bbe:	f001 f80b 	bl	20009bd8 <__aeabi_ddiv>
20008bc2:	b003      	add	sp, #12
20008bc4:	e8bd 83f0 	ldmia.w	sp!, {r4, r5, r6, r7, r8, r9, pc}

20008bc8 <_mprec_log10>:
20008bc8:	2817      	cmp	r0, #23
20008bca:	b510      	push	{r4, lr}
20008bcc:	4604      	mov	r4, r0
20008bce:	dd0e      	ble.n	20008bee <_mprec_log10+0x26>
20008bd0:	f240 0100 	movw	r1, #0
20008bd4:	2000      	movs	r0, #0
20008bd6:	f6c3 71f0 	movt	r1, #16368	; 0x3ff0
20008bda:	f240 0300 	movw	r3, #0
20008bde:	2200      	movs	r2, #0
20008be0:	f2c4 0324 	movt	r3, #16420	; 0x4024
20008be4:	f000 fece 	bl	20009984 <__aeabi_dmul>
20008be8:	3c01      	subs	r4, #1
20008bea:	d1f6      	bne.n	20008bda <_mprec_log10+0x12>
20008bec:	bd10      	pop	{r4, pc}
20008bee:	f64a 2390 	movw	r3, #43664	; 0xaa90
20008bf2:	f2c2 0300 	movt	r3, #8192	; 0x2000
20008bf6:	eb03 03c0 	add.w	r3, r3, r0, lsl #3
20008bfa:	e9d3 0100 	ldrd	r0, r1, [r3]
20008bfe:	bd10      	pop	{r4, pc}

20008c00 <__copybits>:
20008c00:	6913      	ldr	r3, [r2, #16]
20008c02:	3901      	subs	r1, #1
20008c04:	f102 0c14 	add.w	ip, r2, #20
20008c08:	b410      	push	{r4}
20008c0a:	eb02 0283 	add.w	r2, r2, r3, lsl #2
20008c0e:	114c      	asrs	r4, r1, #5
20008c10:	3214      	adds	r2, #20
20008c12:	3401      	adds	r4, #1
20008c14:	4594      	cmp	ip, r2
20008c16:	eb00 0484 	add.w	r4, r0, r4, lsl #2
20008c1a:	d20f      	bcs.n	20008c3c <__copybits+0x3c>
20008c1c:	2300      	movs	r3, #0
20008c1e:	f85c 1003 	ldr.w	r1, [ip, r3]
20008c22:	50c1      	str	r1, [r0, r3]
20008c24:	3304      	adds	r3, #4
20008c26:	eb03 010c 	add.w	r1, r3, ip
20008c2a:	428a      	cmp	r2, r1
20008c2c:	d8f7      	bhi.n	20008c1e <__copybits+0x1e>
20008c2e:	ea6f 0c0c 	mvn.w	ip, ip
20008c32:	4462      	add	r2, ip
20008c34:	f022 0203 	bic.w	r2, r2, #3
20008c38:	3204      	adds	r2, #4
20008c3a:	1880      	adds	r0, r0, r2
20008c3c:	4284      	cmp	r4, r0
20008c3e:	d904      	bls.n	20008c4a <__copybits+0x4a>
20008c40:	2300      	movs	r3, #0
20008c42:	f840 3b04 	str.w	r3, [r0], #4
20008c46:	4284      	cmp	r4, r0
20008c48:	d8fb      	bhi.n	20008c42 <__copybits+0x42>
20008c4a:	bc10      	pop	{r4}
20008c4c:	4770      	bx	lr
20008c4e:	bf00      	nop

20008c50 <__any_on>:
20008c50:	6902      	ldr	r2, [r0, #16]
20008c52:	114b      	asrs	r3, r1, #5
20008c54:	429a      	cmp	r2, r3
20008c56:	db10      	blt.n	20008c7a <__any_on+0x2a>
20008c58:	dd0e      	ble.n	20008c78 <__any_on+0x28>
20008c5a:	f011 011f 	ands.w	r1, r1, #31
20008c5e:	d00b      	beq.n	20008c78 <__any_on+0x28>
20008c60:	461a      	mov	r2, r3
20008c62:	eb00 0383 	add.w	r3, r0, r3, lsl #2
20008c66:	695b      	ldr	r3, [r3, #20]
20008c68:	fa23 fc01 	lsr.w	ip, r3, r1
20008c6c:	fa0c f101 	lsl.w	r1, ip, r1
20008c70:	4299      	cmp	r1, r3
20008c72:	d002      	beq.n	20008c7a <__any_on+0x2a>
20008c74:	2001      	movs	r0, #1
20008c76:	4770      	bx	lr
20008c78:	461a      	mov	r2, r3
20008c7a:	3204      	adds	r2, #4
20008c7c:	f100 0114 	add.w	r1, r0, #20
20008c80:	eb00 0382 	add.w	r3, r0, r2, lsl #2
20008c84:	f103 0c04 	add.w	ip, r3, #4
20008c88:	4561      	cmp	r1, ip
20008c8a:	d20b      	bcs.n	20008ca4 <__any_on+0x54>
20008c8c:	f850 2022 	ldr.w	r2, [r0, r2, lsl #2]
20008c90:	2a00      	cmp	r2, #0
20008c92:	d1ef      	bne.n	20008c74 <__any_on+0x24>
20008c94:	4299      	cmp	r1, r3
20008c96:	d205      	bcs.n	20008ca4 <__any_on+0x54>
20008c98:	f853 2d04 	ldr.w	r2, [r3, #-4]!
20008c9c:	2a00      	cmp	r2, #0
20008c9e:	d1e9      	bne.n	20008c74 <__any_on+0x24>
20008ca0:	4299      	cmp	r1, r3
20008ca2:	d3f9      	bcc.n	20008c98 <__any_on+0x48>
20008ca4:	2000      	movs	r0, #0
20008ca6:	4770      	bx	lr

20008ca8 <_Bfree>:
20008ca8:	b530      	push	{r4, r5, lr}
20008caa:	6a45      	ldr	r5, [r0, #36]	; 0x24
20008cac:	b083      	sub	sp, #12
20008cae:	4604      	mov	r4, r0
20008cb0:	b155      	cbz	r5, 20008cc8 <_Bfree+0x20>
20008cb2:	b139      	cbz	r1, 20008cc4 <_Bfree+0x1c>
20008cb4:	6a63      	ldr	r3, [r4, #36]	; 0x24
20008cb6:	684a      	ldr	r2, [r1, #4]
20008cb8:	68db      	ldr	r3, [r3, #12]
20008cba:	f853 0022 	ldr.w	r0, [r3, r2, lsl #2]
20008cbe:	6008      	str	r0, [r1, #0]
20008cc0:	f843 1022 	str.w	r1, [r3, r2, lsl #2]
20008cc4:	b003      	add	sp, #12
20008cc6:	bd30      	pop	{r4, r5, pc}
20008cc8:	2010      	movs	r0, #16
20008cca:	9101      	str	r1, [sp, #4]
20008ccc:	f7f8 fd9c 	bl	20001808 <malloc>
20008cd0:	9901      	ldr	r1, [sp, #4]
20008cd2:	6260      	str	r0, [r4, #36]	; 0x24
20008cd4:	60c5      	str	r5, [r0, #12]
20008cd6:	6045      	str	r5, [r0, #4]
20008cd8:	6085      	str	r5, [r0, #8]
20008cda:	6005      	str	r5, [r0, #0]
20008cdc:	e7e9      	b.n	20008cb2 <_Bfree+0xa>
20008cde:	bf00      	nop

20008ce0 <_Balloc>:
20008ce0:	b570      	push	{r4, r5, r6, lr}
20008ce2:	6a44      	ldr	r4, [r0, #36]	; 0x24
20008ce4:	4606      	mov	r6, r0
20008ce6:	460d      	mov	r5, r1
20008ce8:	b164      	cbz	r4, 20008d04 <_Balloc+0x24>
20008cea:	68e2      	ldr	r2, [r4, #12]
20008cec:	b1a2      	cbz	r2, 20008d18 <_Balloc+0x38>
20008cee:	f852 3025 	ldr.w	r3, [r2, r5, lsl #2]
20008cf2:	b1eb      	cbz	r3, 20008d30 <_Balloc+0x50>
20008cf4:	6819      	ldr	r1, [r3, #0]
20008cf6:	f842 1025 	str.w	r1, [r2, r5, lsl #2]
20008cfa:	2200      	movs	r2, #0
20008cfc:	60da      	str	r2, [r3, #12]
20008cfe:	611a      	str	r2, [r3, #16]
20008d00:	4618      	mov	r0, r3
20008d02:	bd70      	pop	{r4, r5, r6, pc}
20008d04:	2010      	movs	r0, #16
20008d06:	f7f8 fd7f 	bl	20001808 <malloc>
20008d0a:	2300      	movs	r3, #0
20008d0c:	4604      	mov	r4, r0
20008d0e:	6270      	str	r0, [r6, #36]	; 0x24
20008d10:	60c3      	str	r3, [r0, #12]
20008d12:	6043      	str	r3, [r0, #4]
20008d14:	6083      	str	r3, [r0, #8]
20008d16:	6003      	str	r3, [r0, #0]
20008d18:	2210      	movs	r2, #16
20008d1a:	4630      	mov	r0, r6
20008d1c:	2104      	movs	r1, #4
20008d1e:	f000 fb0b 	bl	20009338 <_calloc_r>
20008d22:	6a73      	ldr	r3, [r6, #36]	; 0x24
20008d24:	60e0      	str	r0, [r4, #12]
20008d26:	68da      	ldr	r2, [r3, #12]
20008d28:	2a00      	cmp	r2, #0
20008d2a:	d1e0      	bne.n	20008cee <_Balloc+0xe>
20008d2c:	4613      	mov	r3, r2
20008d2e:	e7e7      	b.n	20008d00 <_Balloc+0x20>
20008d30:	2401      	movs	r4, #1
20008d32:	4630      	mov	r0, r6
20008d34:	4621      	mov	r1, r4
20008d36:	40ac      	lsls	r4, r5
20008d38:	1d62      	adds	r2, r4, #5
20008d3a:	0092      	lsls	r2, r2, #2
20008d3c:	f000 fafc 	bl	20009338 <_calloc_r>
20008d40:	4603      	mov	r3, r0
20008d42:	2800      	cmp	r0, #0
20008d44:	d0dc      	beq.n	20008d00 <_Balloc+0x20>
20008d46:	6045      	str	r5, [r0, #4]
20008d48:	6084      	str	r4, [r0, #8]
20008d4a:	e7d6      	b.n	20008cfa <_Balloc+0x1a>

20008d4c <__d2b>:
20008d4c:	e92d 45f0 	stmdb	sp!, {r4, r5, r6, r7, r8, sl, lr}
20008d50:	b083      	sub	sp, #12
20008d52:	2101      	movs	r1, #1
20008d54:	461d      	mov	r5, r3
20008d56:	4614      	mov	r4, r2
20008d58:	9f0a      	ldr	r7, [sp, #40]	; 0x28
20008d5a:	9e0b      	ldr	r6, [sp, #44]	; 0x2c
20008d5c:	f7ff ffc0 	bl	20008ce0 <_Balloc>
20008d60:	f025 4200 	bic.w	r2, r5, #2147483648	; 0x80000000
20008d64:	f025 437f 	bic.w	r3, r5, #4278190080	; 0xff000000
20008d68:	f423 0370 	bic.w	r3, r3, #15728640	; 0xf00000
20008d6c:	4615      	mov	r5, r2
20008d6e:	ea5f 5a12 	movs.w	sl, r2, lsr #20
20008d72:	9300      	str	r3, [sp, #0]
20008d74:	bf1c      	itt	ne
20008d76:	f443 1380 	orrne.w	r3, r3, #1048576	; 0x100000
20008d7a:	9300      	strne	r3, [sp, #0]
20008d7c:	4680      	mov	r8, r0
20008d7e:	2c00      	cmp	r4, #0
20008d80:	d023      	beq.n	20008dca <__d2b+0x7e>
20008d82:	a802      	add	r0, sp, #8
20008d84:	f840 4d04 	str.w	r4, [r0, #-4]!
20008d88:	f7ff fe22 	bl	200089d0 <__lo0bits>
20008d8c:	4603      	mov	r3, r0
20008d8e:	2800      	cmp	r0, #0
20008d90:	d137      	bne.n	20008e02 <__d2b+0xb6>
20008d92:	9901      	ldr	r1, [sp, #4]
20008d94:	9a00      	ldr	r2, [sp, #0]
20008d96:	f8c8 1014 	str.w	r1, [r8, #20]
20008d9a:	2a00      	cmp	r2, #0
20008d9c:	bf14      	ite	ne
20008d9e:	2402      	movne	r4, #2
20008da0:	2401      	moveq	r4, #1
20008da2:	f8c8 2018 	str.w	r2, [r8, #24]
20008da6:	f8c8 4010 	str.w	r4, [r8, #16]
20008daa:	f1ba 0f00 	cmp.w	sl, #0
20008dae:	d01b      	beq.n	20008de8 <__d2b+0x9c>
20008db0:	f5aa 6a86 	sub.w	sl, sl, #1072	; 0x430
20008db4:	f1c3 0235 	rsb	r2, r3, #53	; 0x35
20008db8:	f1aa 0a03 	sub.w	sl, sl, #3
20008dbc:	4453      	add	r3, sl
20008dbe:	603b      	str	r3, [r7, #0]
20008dc0:	6032      	str	r2, [r6, #0]
20008dc2:	4640      	mov	r0, r8
20008dc4:	b003      	add	sp, #12
20008dc6:	e8bd 85f0 	ldmia.w	sp!, {r4, r5, r6, r7, r8, sl, pc}
20008dca:	4668      	mov	r0, sp
20008dcc:	f7ff fe00 	bl	200089d0 <__lo0bits>
20008dd0:	2301      	movs	r3, #1
20008dd2:	461c      	mov	r4, r3
20008dd4:	f8c8 3010 	str.w	r3, [r8, #16]
20008dd8:	9b00      	ldr	r3, [sp, #0]
20008dda:	f8c8 3014 	str.w	r3, [r8, #20]
20008dde:	f100 0320 	add.w	r3, r0, #32
20008de2:	f1ba 0f00 	cmp.w	sl, #0
20008de6:	d1e3      	bne.n	20008db0 <__d2b+0x64>
20008de8:	eb08 0284 	add.w	r2, r8, r4, lsl #2
20008dec:	f5a3 6386 	sub.w	r3, r3, #1072	; 0x430
20008df0:	3b02      	subs	r3, #2
20008df2:	603b      	str	r3, [r7, #0]
20008df4:	6910      	ldr	r0, [r2, #16]
20008df6:	f7ff fdcb 	bl	20008990 <__hi0bits>
20008dfa:	ebc0 1044 	rsb	r0, r0, r4, lsl #5
20008dfe:	6030      	str	r0, [r6, #0]
20008e00:	e7df      	b.n	20008dc2 <__d2b+0x76>
20008e02:	9a00      	ldr	r2, [sp, #0]
20008e04:	f1c0 0120 	rsb	r1, r0, #32
20008e08:	fa12 f101 	lsls.w	r1, r2, r1
20008e0c:	40c2      	lsrs	r2, r0
20008e0e:	9801      	ldr	r0, [sp, #4]
20008e10:	4301      	orrs	r1, r0
20008e12:	f8c8 1014 	str.w	r1, [r8, #20]
20008e16:	9200      	str	r2, [sp, #0]
20008e18:	e7bf      	b.n	20008d9a <__d2b+0x4e>
20008e1a:	bf00      	nop

20008e1c <__mdiff>:
20008e1c:	e92d 4ff8 	stmdb	sp!, {r3, r4, r5, r6, r7, r8, r9, sl, fp, lr}
20008e20:	6913      	ldr	r3, [r2, #16]
20008e22:	690f      	ldr	r7, [r1, #16]
20008e24:	460c      	mov	r4, r1
20008e26:	4615      	mov	r5, r2
20008e28:	1aff      	subs	r7, r7, r3
20008e2a:	2f00      	cmp	r7, #0
20008e2c:	d04f      	beq.n	20008ece <__mdiff+0xb2>
20008e2e:	db6a      	blt.n	20008f06 <__mdiff+0xea>
20008e30:	2700      	movs	r7, #0
20008e32:	f101 0614 	add.w	r6, r1, #20
20008e36:	6861      	ldr	r1, [r4, #4]
20008e38:	f7ff ff52 	bl	20008ce0 <_Balloc>
20008e3c:	f8d5 8010 	ldr.w	r8, [r5, #16]
20008e40:	f8d4 c010 	ldr.w	ip, [r4, #16]
20008e44:	f105 0114 	add.w	r1, r5, #20
20008e48:	2200      	movs	r2, #0
20008e4a:	eb05 0588 	add.w	r5, r5, r8, lsl #2
20008e4e:	eb04 048c 	add.w	r4, r4, ip, lsl #2
20008e52:	f105 0814 	add.w	r8, r5, #20
20008e56:	3414      	adds	r4, #20
20008e58:	f100 0314 	add.w	r3, r0, #20
20008e5c:	60c7      	str	r7, [r0, #12]
20008e5e:	f851 7b04 	ldr.w	r7, [r1], #4
20008e62:	f856 5b04 	ldr.w	r5, [r6], #4
20008e66:	46bb      	mov	fp, r7
20008e68:	fa1f fa87 	uxth.w	sl, r7
20008e6c:	0c3f      	lsrs	r7, r7, #16
20008e6e:	fa1f f985 	uxth.w	r9, r5
20008e72:	ebc7 4715 	rsb	r7, r7, r5, lsr #16
20008e76:	ebca 0a09 	rsb	sl, sl, r9
20008e7a:	4452      	add	r2, sl
20008e7c:	eb07 4722 	add.w	r7, r7, r2, asr #16
20008e80:	b292      	uxth	r2, r2
20008e82:	ea42 4207 	orr.w	r2, r2, r7, lsl #16
20008e86:	f843 2b04 	str.w	r2, [r3], #4
20008e8a:	143a      	asrs	r2, r7, #16
20008e8c:	4588      	cmp	r8, r1
20008e8e:	d8e6      	bhi.n	20008e5e <__mdiff+0x42>
20008e90:	42a6      	cmp	r6, r4
20008e92:	d20e      	bcs.n	20008eb2 <__mdiff+0x96>
20008e94:	f856 1b04 	ldr.w	r1, [r6], #4
20008e98:	b28d      	uxth	r5, r1
20008e9a:	0c09      	lsrs	r1, r1, #16
20008e9c:	1952      	adds	r2, r2, r5
20008e9e:	eb01 4122 	add.w	r1, r1, r2, asr #16
20008ea2:	b292      	uxth	r2, r2
20008ea4:	ea42 4201 	orr.w	r2, r2, r1, lsl #16
20008ea8:	f843 2b04 	str.w	r2, [r3], #4
20008eac:	140a      	asrs	r2, r1, #16
20008eae:	42b4      	cmp	r4, r6
20008eb0:	d8f0      	bhi.n	20008e94 <__mdiff+0x78>
20008eb2:	f853 2c04 	ldr.w	r2, [r3, #-4]
20008eb6:	b932      	cbnz	r2, 20008ec6 <__mdiff+0xaa>
20008eb8:	f853 2c08 	ldr.w	r2, [r3, #-8]
20008ebc:	f10c 3cff 	add.w	ip, ip, #4294967295
20008ec0:	3b04      	subs	r3, #4
20008ec2:	2a00      	cmp	r2, #0
20008ec4:	d0f8      	beq.n	20008eb8 <__mdiff+0x9c>
20008ec6:	f8c0 c010 	str.w	ip, [r0, #16]
20008eca:	e8bd 8ff8 	ldmia.w	sp!, {r3, r4, r5, r6, r7, r8, r9, sl, fp, pc}
20008ece:	3304      	adds	r3, #4
20008ed0:	f101 0614 	add.w	r6, r1, #20
20008ed4:	009b      	lsls	r3, r3, #2
20008ed6:	18d2      	adds	r2, r2, r3
20008ed8:	18cb      	adds	r3, r1, r3
20008eda:	3304      	adds	r3, #4
20008edc:	3204      	adds	r2, #4
20008ede:	f853 cc04 	ldr.w	ip, [r3, #-4]
20008ee2:	3b04      	subs	r3, #4
20008ee4:	f852 1c04 	ldr.w	r1, [r2, #-4]
20008ee8:	3a04      	subs	r2, #4
20008eea:	458c      	cmp	ip, r1
20008eec:	d10a      	bne.n	20008f04 <__mdiff+0xe8>
20008eee:	429e      	cmp	r6, r3
20008ef0:	d3f5      	bcc.n	20008ede <__mdiff+0xc2>
20008ef2:	2100      	movs	r1, #0
20008ef4:	f7ff fef4 	bl	20008ce0 <_Balloc>
20008ef8:	2301      	movs	r3, #1
20008efa:	6103      	str	r3, [r0, #16]
20008efc:	2300      	movs	r3, #0
20008efe:	6143      	str	r3, [r0, #20]
20008f00:	e8bd 8ff8 	ldmia.w	sp!, {r3, r4, r5, r6, r7, r8, r9, sl, fp, pc}
20008f04:	d297      	bcs.n	20008e36 <__mdiff+0x1a>
20008f06:	4623      	mov	r3, r4
20008f08:	462c      	mov	r4, r5
20008f0a:	2701      	movs	r7, #1
20008f0c:	461d      	mov	r5, r3
20008f0e:	f104 0614 	add.w	r6, r4, #20
20008f12:	e790      	b.n	20008e36 <__mdiff+0x1a>

20008f14 <__lshift>:
20008f14:	e92d 45f8 	stmdb	sp!, {r3, r4, r5, r6, r7, r8, sl, lr}
20008f18:	690d      	ldr	r5, [r1, #16]
20008f1a:	688b      	ldr	r3, [r1, #8]
20008f1c:	1156      	asrs	r6, r2, #5
20008f1e:	3501      	adds	r5, #1
20008f20:	460c      	mov	r4, r1
20008f22:	19ad      	adds	r5, r5, r6
20008f24:	4690      	mov	r8, r2
20008f26:	429d      	cmp	r5, r3
20008f28:	4682      	mov	sl, r0
20008f2a:	6849      	ldr	r1, [r1, #4]
20008f2c:	dd03      	ble.n	20008f36 <__lshift+0x22>
20008f2e:	005b      	lsls	r3, r3, #1
20008f30:	3101      	adds	r1, #1
20008f32:	429d      	cmp	r5, r3
20008f34:	dcfb      	bgt.n	20008f2e <__lshift+0x1a>
20008f36:	4650      	mov	r0, sl
20008f38:	f7ff fed2 	bl	20008ce0 <_Balloc>
20008f3c:	2e00      	cmp	r6, #0
20008f3e:	4607      	mov	r7, r0
20008f40:	f100 0214 	add.w	r2, r0, #20
20008f44:	dd0a      	ble.n	20008f5c <__lshift+0x48>
20008f46:	2300      	movs	r3, #0
20008f48:	4619      	mov	r1, r3
20008f4a:	f842 1023 	str.w	r1, [r2, r3, lsl #2]
20008f4e:	3301      	adds	r3, #1
20008f50:	42b3      	cmp	r3, r6
20008f52:	d1fa      	bne.n	20008f4a <__lshift+0x36>
20008f54:	eb07 0383 	add.w	r3, r7, r3, lsl #2
20008f58:	f103 0214 	add.w	r2, r3, #20
20008f5c:	6920      	ldr	r0, [r4, #16]
20008f5e:	f104 0314 	add.w	r3, r4, #20
20008f62:	eb04 0080 	add.w	r0, r4, r0, lsl #2
20008f66:	3014      	adds	r0, #20
20008f68:	f018 081f 	ands.w	r8, r8, #31
20008f6c:	d01b      	beq.n	20008fa6 <__lshift+0x92>
20008f6e:	f1c8 0e20 	rsb	lr, r8, #32
20008f72:	2100      	movs	r1, #0
20008f74:	681e      	ldr	r6, [r3, #0]
20008f76:	fa06 fc08 	lsl.w	ip, r6, r8
20008f7a:	ea41 010c 	orr.w	r1, r1, ip
20008f7e:	f842 1b04 	str.w	r1, [r2], #4
20008f82:	f853 1b04 	ldr.w	r1, [r3], #4
20008f86:	4298      	cmp	r0, r3
20008f88:	fa21 f10e 	lsr.w	r1, r1, lr
20008f8c:	d8f2      	bhi.n	20008f74 <__lshift+0x60>
20008f8e:	6011      	str	r1, [r2, #0]
20008f90:	b101      	cbz	r1, 20008f94 <__lshift+0x80>
20008f92:	3501      	adds	r5, #1
20008f94:	4650      	mov	r0, sl
20008f96:	3d01      	subs	r5, #1
20008f98:	4621      	mov	r1, r4
20008f9a:	613d      	str	r5, [r7, #16]
20008f9c:	f7ff fe84 	bl	20008ca8 <_Bfree>
20008fa0:	4638      	mov	r0, r7
20008fa2:	e8bd 85f8 	ldmia.w	sp!, {r3, r4, r5, r6, r7, r8, sl, pc}
20008fa6:	f853 1008 	ldr.w	r1, [r3, r8]
20008faa:	f842 1008 	str.w	r1, [r2, r8]
20008fae:	f108 0804 	add.w	r8, r8, #4
20008fb2:	eb08 0103 	add.w	r1, r8, r3
20008fb6:	4288      	cmp	r0, r1
20008fb8:	d9ec      	bls.n	20008f94 <__lshift+0x80>
20008fba:	f853 1008 	ldr.w	r1, [r3, r8]
20008fbe:	f842 1008 	str.w	r1, [r2, r8]
20008fc2:	f108 0804 	add.w	r8, r8, #4
20008fc6:	eb08 0103 	add.w	r1, r8, r3
20008fca:	4288      	cmp	r0, r1
20008fcc:	d8eb      	bhi.n	20008fa6 <__lshift+0x92>
20008fce:	e7e1      	b.n	20008f94 <__lshift+0x80>

20008fd0 <__multiply>:
20008fd0:	e92d 4ff0 	stmdb	sp!, {r4, r5, r6, r7, r8, r9, sl, fp, lr}
20008fd4:	f8d1 8010 	ldr.w	r8, [r1, #16]
20008fd8:	6917      	ldr	r7, [r2, #16]
20008fda:	460d      	mov	r5, r1
20008fdc:	4616      	mov	r6, r2
20008fde:	b087      	sub	sp, #28
20008fe0:	45b8      	cmp	r8, r7
20008fe2:	bfb5      	itete	lt
20008fe4:	4615      	movlt	r5, r2
20008fe6:	463b      	movge	r3, r7
20008fe8:	460b      	movlt	r3, r1
20008fea:	4647      	movge	r7, r8
20008fec:	bfb4      	ite	lt
20008fee:	461e      	movlt	r6, r3
20008ff0:	4698      	movge	r8, r3
20008ff2:	68ab      	ldr	r3, [r5, #8]
20008ff4:	eb08 0407 	add.w	r4, r8, r7
20008ff8:	6869      	ldr	r1, [r5, #4]
20008ffa:	429c      	cmp	r4, r3
20008ffc:	bfc8      	it	gt
20008ffe:	3101      	addgt	r1, #1
20009000:	f7ff fe6e 	bl	20008ce0 <_Balloc>
20009004:	eb00 0384 	add.w	r3, r0, r4, lsl #2
20009008:	f100 0b14 	add.w	fp, r0, #20
2000900c:	3314      	adds	r3, #20
2000900e:	9003      	str	r0, [sp, #12]
20009010:	459b      	cmp	fp, r3
20009012:	9304      	str	r3, [sp, #16]
20009014:	d206      	bcs.n	20009024 <__multiply+0x54>
20009016:	9904      	ldr	r1, [sp, #16]
20009018:	465b      	mov	r3, fp
2000901a:	2200      	movs	r2, #0
2000901c:	f843 2b04 	str.w	r2, [r3], #4
20009020:	4299      	cmp	r1, r3
20009022:	d8fb      	bhi.n	2000901c <__multiply+0x4c>
20009024:	eb06 0888 	add.w	r8, r6, r8, lsl #2
20009028:	f106 0914 	add.w	r9, r6, #20
2000902c:	f108 0814 	add.w	r8, r8, #20
20009030:	eb05 0c87 	add.w	ip, r5, r7, lsl #2
20009034:	3514      	adds	r5, #20
20009036:	45c1      	cmp	r9, r8
20009038:	f8cd 8004 	str.w	r8, [sp, #4]
2000903c:	f10c 0c14 	add.w	ip, ip, #20
20009040:	9502      	str	r5, [sp, #8]
20009042:	d24b      	bcs.n	200090dc <__multiply+0x10c>
20009044:	f04f 0a00 	mov.w	sl, #0
20009048:	9405      	str	r4, [sp, #20]
2000904a:	f859 400a 	ldr.w	r4, [r9, sl]
2000904e:	eb0a 080b 	add.w	r8, sl, fp
20009052:	b2a0      	uxth	r0, r4
20009054:	b1d8      	cbz	r0, 2000908e <__multiply+0xbe>
20009056:	9a02      	ldr	r2, [sp, #8]
20009058:	4643      	mov	r3, r8
2000905a:	2400      	movs	r4, #0
2000905c:	f852 5b04 	ldr.w	r5, [r2], #4
20009060:	6819      	ldr	r1, [r3, #0]
20009062:	b2af      	uxth	r7, r5
20009064:	0c2d      	lsrs	r5, r5, #16
20009066:	b28e      	uxth	r6, r1
20009068:	0c09      	lsrs	r1, r1, #16
2000906a:	fb00 6607 	mla	r6, r0, r7, r6
2000906e:	fb00 1105 	mla	r1, r0, r5, r1
20009072:	1936      	adds	r6, r6, r4
20009074:	eb01 4116 	add.w	r1, r1, r6, lsr #16
20009078:	b2b6      	uxth	r6, r6
2000907a:	0c0c      	lsrs	r4, r1, #16
2000907c:	4594      	cmp	ip, r2
2000907e:	ea46 4601 	orr.w	r6, r6, r1, lsl #16
20009082:	f843 6b04 	str.w	r6, [r3], #4
20009086:	d8e9      	bhi.n	2000905c <__multiply+0x8c>
20009088:	601c      	str	r4, [r3, #0]
2000908a:	f859 400a 	ldr.w	r4, [r9, sl]
2000908e:	0c24      	lsrs	r4, r4, #16
20009090:	d01c      	beq.n	200090cc <__multiply+0xfc>
20009092:	f85b 200a 	ldr.w	r2, [fp, sl]
20009096:	4641      	mov	r1, r8
20009098:	9b02      	ldr	r3, [sp, #8]
2000909a:	2500      	movs	r5, #0
2000909c:	4610      	mov	r0, r2
2000909e:	881e      	ldrh	r6, [r3, #0]
200090a0:	b297      	uxth	r7, r2
200090a2:	fb06 5504 	mla	r5, r6, r4, r5
200090a6:	eb05 4510 	add.w	r5, r5, r0, lsr #16
200090aa:	ea47 4705 	orr.w	r7, r7, r5, lsl #16
200090ae:	600f      	str	r7, [r1, #0]
200090b0:	f851 0f04 	ldr.w	r0, [r1, #4]!
200090b4:	f853 2b04 	ldr.w	r2, [r3], #4
200090b8:	b286      	uxth	r6, r0
200090ba:	0c12      	lsrs	r2, r2, #16
200090bc:	fb02 6204 	mla	r2, r2, r4, r6
200090c0:	eb02 4215 	add.w	r2, r2, r5, lsr #16
200090c4:	0c15      	lsrs	r5, r2, #16
200090c6:	459c      	cmp	ip, r3
200090c8:	d8e9      	bhi.n	2000909e <__multiply+0xce>
200090ca:	600a      	str	r2, [r1, #0]
200090cc:	f10a 0a04 	add.w	sl, sl, #4
200090d0:	9a01      	ldr	r2, [sp, #4]
200090d2:	eb0a 0309 	add.w	r3, sl, r9
200090d6:	429a      	cmp	r2, r3
200090d8:	d8b7      	bhi.n	2000904a <__multiply+0x7a>
200090da:	9c05      	ldr	r4, [sp, #20]
200090dc:	2c00      	cmp	r4, #0
200090de:	dd0b      	ble.n	200090f8 <__multiply+0x128>
200090e0:	9a04      	ldr	r2, [sp, #16]
200090e2:	f852 3c04 	ldr.w	r3, [r2, #-4]
200090e6:	b93b      	cbnz	r3, 200090f8 <__multiply+0x128>
200090e8:	4613      	mov	r3, r2
200090ea:	e003      	b.n	200090f4 <__multiply+0x124>
200090ec:	f853 2c08 	ldr.w	r2, [r3, #-8]
200090f0:	3b04      	subs	r3, #4
200090f2:	b90a      	cbnz	r2, 200090f8 <__multiply+0x128>
200090f4:	3c01      	subs	r4, #1
200090f6:	d1f9      	bne.n	200090ec <__multiply+0x11c>
200090f8:	9b03      	ldr	r3, [sp, #12]
200090fa:	4618      	mov	r0, r3
200090fc:	611c      	str	r4, [r3, #16]
200090fe:	b007      	add	sp, #28
20009100:	e8bd 8ff0 	ldmia.w	sp!, {r4, r5, r6, r7, r8, r9, sl, fp, pc}

20009104 <__i2b>:
20009104:	b510      	push	{r4, lr}
20009106:	460c      	mov	r4, r1
20009108:	2101      	movs	r1, #1
2000910a:	f7ff fde9 	bl	20008ce0 <_Balloc>
2000910e:	2201      	movs	r2, #1
20009110:	6144      	str	r4, [r0, #20]
20009112:	6102      	str	r2, [r0, #16]
20009114:	bd10      	pop	{r4, pc}
20009116:	bf00      	nop

20009118 <__multadd>:
20009118:	e92d 45f0 	stmdb	sp!, {r4, r5, r6, r7, r8, sl, lr}
2000911c:	460d      	mov	r5, r1
2000911e:	2100      	movs	r1, #0
20009120:	4606      	mov	r6, r0
20009122:	692c      	ldr	r4, [r5, #16]
20009124:	b083      	sub	sp, #12
20009126:	f105 0814 	add.w	r8, r5, #20
2000912a:	4608      	mov	r0, r1
2000912c:	f858 7001 	ldr.w	r7, [r8, r1]
20009130:	3001      	adds	r0, #1
20009132:	fa1f fa87 	uxth.w	sl, r7
20009136:	ea4f 4c17 	mov.w	ip, r7, lsr #16
2000913a:	fb0a 3302 	mla	r3, sl, r2, r3
2000913e:	fb0c fc02 	mul.w	ip, ip, r2
20009142:	eb0c 4c13 	add.w	ip, ip, r3, lsr #16
20009146:	b29b      	uxth	r3, r3
20009148:	eb03 430c 	add.w	r3, r3, ip, lsl #16
2000914c:	f848 3001 	str.w	r3, [r8, r1]
20009150:	3104      	adds	r1, #4
20009152:	4284      	cmp	r4, r0
20009154:	ea4f 431c 	mov.w	r3, ip, lsr #16
20009158:	dce8      	bgt.n	2000912c <__multadd+0x14>
2000915a:	b13b      	cbz	r3, 2000916c <__multadd+0x54>
2000915c:	68aa      	ldr	r2, [r5, #8]
2000915e:	4294      	cmp	r4, r2
20009160:	da08      	bge.n	20009174 <__multadd+0x5c>
20009162:	eb05 0284 	add.w	r2, r5, r4, lsl #2
20009166:	3401      	adds	r4, #1
20009168:	612c      	str	r4, [r5, #16]
2000916a:	6153      	str	r3, [r2, #20]
2000916c:	4628      	mov	r0, r5
2000916e:	b003      	add	sp, #12
20009170:	e8bd 85f0 	ldmia.w	sp!, {r4, r5, r6, r7, r8, sl, pc}
20009174:	6869      	ldr	r1, [r5, #4]
20009176:	4630      	mov	r0, r6
20009178:	9301      	str	r3, [sp, #4]
2000917a:	3101      	adds	r1, #1
2000917c:	f7ff fdb0 	bl	20008ce0 <_Balloc>
20009180:	692a      	ldr	r2, [r5, #16]
20009182:	f105 010c 	add.w	r1, r5, #12
20009186:	3202      	adds	r2, #2
20009188:	0092      	lsls	r2, r2, #2
2000918a:	4607      	mov	r7, r0
2000918c:	300c      	adds	r0, #12
2000918e:	f7fa fc4f 	bl	20003a30 <memcpy>
20009192:	4629      	mov	r1, r5
20009194:	4630      	mov	r0, r6
20009196:	463d      	mov	r5, r7
20009198:	f7ff fd86 	bl	20008ca8 <_Bfree>
2000919c:	9b01      	ldr	r3, [sp, #4]
2000919e:	e7e0      	b.n	20009162 <__multadd+0x4a>

200091a0 <__pow5mult>:
200091a0:	e92d 41f0 	stmdb	sp!, {r4, r5, r6, r7, r8, lr}
200091a4:	4615      	mov	r5, r2
200091a6:	f012 0203 	ands.w	r2, r2, #3
200091aa:	4604      	mov	r4, r0
200091ac:	4688      	mov	r8, r1
200091ae:	d12c      	bne.n	2000920a <__pow5mult+0x6a>
200091b0:	10ad      	asrs	r5, r5, #2
200091b2:	d01e      	beq.n	200091f2 <__pow5mult+0x52>
200091b4:	6a66      	ldr	r6, [r4, #36]	; 0x24
200091b6:	2e00      	cmp	r6, #0
200091b8:	d034      	beq.n	20009224 <__pow5mult+0x84>
200091ba:	68b7      	ldr	r7, [r6, #8]
200091bc:	2f00      	cmp	r7, #0
200091be:	d03b      	beq.n	20009238 <__pow5mult+0x98>
200091c0:	f015 0f01 	tst.w	r5, #1
200091c4:	d108      	bne.n	200091d8 <__pow5mult+0x38>
200091c6:	106d      	asrs	r5, r5, #1
200091c8:	d013      	beq.n	200091f2 <__pow5mult+0x52>
200091ca:	683e      	ldr	r6, [r7, #0]
200091cc:	b1a6      	cbz	r6, 200091f8 <__pow5mult+0x58>
200091ce:	4630      	mov	r0, r6
200091d0:	4607      	mov	r7, r0
200091d2:	f015 0f01 	tst.w	r5, #1
200091d6:	d0f6      	beq.n	200091c6 <__pow5mult+0x26>
200091d8:	4641      	mov	r1, r8
200091da:	463a      	mov	r2, r7
200091dc:	4620      	mov	r0, r4
200091de:	f7ff fef7 	bl	20008fd0 <__multiply>
200091e2:	4641      	mov	r1, r8
200091e4:	4606      	mov	r6, r0
200091e6:	4620      	mov	r0, r4
200091e8:	f7ff fd5e 	bl	20008ca8 <_Bfree>
200091ec:	106d      	asrs	r5, r5, #1
200091ee:	46b0      	mov	r8, r6
200091f0:	d1eb      	bne.n	200091ca <__pow5mult+0x2a>
200091f2:	4640      	mov	r0, r8
200091f4:	e8bd 81f0 	ldmia.w	sp!, {r4, r5, r6, r7, r8, pc}
200091f8:	4639      	mov	r1, r7
200091fa:	463a      	mov	r2, r7
200091fc:	4620      	mov	r0, r4
200091fe:	f7ff fee7 	bl	20008fd0 <__multiply>
20009202:	6038      	str	r0, [r7, #0]
20009204:	4607      	mov	r7, r0
20009206:	6006      	str	r6, [r0, #0]
20009208:	e7e3      	b.n	200091d2 <__pow5mult+0x32>
2000920a:	f64a 2c90 	movw	ip, #43664	; 0xaa90
2000920e:	2300      	movs	r3, #0
20009210:	f2c2 0c00 	movt	ip, #8192	; 0x2000
20009214:	eb0c 0282 	add.w	r2, ip, r2, lsl #2
20009218:	f8d2 20c4 	ldr.w	r2, [r2, #196]	; 0xc4
2000921c:	f7ff ff7c 	bl	20009118 <__multadd>
20009220:	4680      	mov	r8, r0
20009222:	e7c5      	b.n	200091b0 <__pow5mult+0x10>
20009224:	2010      	movs	r0, #16
20009226:	f7f8 faef 	bl	20001808 <malloc>
2000922a:	2300      	movs	r3, #0
2000922c:	4606      	mov	r6, r0
2000922e:	6260      	str	r0, [r4, #36]	; 0x24
20009230:	60c3      	str	r3, [r0, #12]
20009232:	6043      	str	r3, [r0, #4]
20009234:	6083      	str	r3, [r0, #8]
20009236:	6003      	str	r3, [r0, #0]
20009238:	4620      	mov	r0, r4
2000923a:	f240 2171 	movw	r1, #625	; 0x271
2000923e:	f7ff ff61 	bl	20009104 <__i2b>
20009242:	2300      	movs	r3, #0
20009244:	60b0      	str	r0, [r6, #8]
20009246:	4607      	mov	r7, r0
20009248:	6003      	str	r3, [r0, #0]
2000924a:	e7b9      	b.n	200091c0 <__pow5mult+0x20>

2000924c <__s2b>:
2000924c:	e92d 45f8 	stmdb	sp!, {r3, r4, r5, r6, r7, r8, sl, lr}
20009250:	461e      	mov	r6, r3
20009252:	f648 6339 	movw	r3, #36409	; 0x8e39
20009256:	f106 0c08 	add.w	ip, r6, #8
2000925a:	f6c3 03e3 	movt	r3, #14563	; 0x38e3
2000925e:	4688      	mov	r8, r1
20009260:	4605      	mov	r5, r0
20009262:	4617      	mov	r7, r2
20009264:	fb83 130c 	smull	r1, r3, r3, ip
20009268:	ea4f 7cec 	mov.w	ip, ip, asr #31
2000926c:	ebcc 0c63 	rsb	ip, ip, r3, asr #1
20009270:	f1bc 0f01 	cmp.w	ip, #1
20009274:	dd35      	ble.n	200092e2 <__s2b+0x96>
20009276:	2100      	movs	r1, #0
20009278:	2201      	movs	r2, #1
2000927a:	0052      	lsls	r2, r2, #1
2000927c:	3101      	adds	r1, #1
2000927e:	4594      	cmp	ip, r2
20009280:	dcfb      	bgt.n	2000927a <__s2b+0x2e>
20009282:	4628      	mov	r0, r5
20009284:	f7ff fd2c 	bl	20008ce0 <_Balloc>
20009288:	9b08      	ldr	r3, [sp, #32]
2000928a:	6143      	str	r3, [r0, #20]
2000928c:	2301      	movs	r3, #1
2000928e:	2f09      	cmp	r7, #9
20009290:	6103      	str	r3, [r0, #16]
20009292:	dd22      	ble.n	200092da <__s2b+0x8e>
20009294:	f108 0a09 	add.w	sl, r8, #9
20009298:	2409      	movs	r4, #9
2000929a:	f818 3004 	ldrb.w	r3, [r8, r4]
2000929e:	4601      	mov	r1, r0
200092a0:	220a      	movs	r2, #10
200092a2:	3401      	adds	r4, #1
200092a4:	3b30      	subs	r3, #48	; 0x30
200092a6:	4628      	mov	r0, r5
200092a8:	f7ff ff36 	bl	20009118 <__multadd>
200092ac:	42a7      	cmp	r7, r4
200092ae:	dcf4      	bgt.n	2000929a <__s2b+0x4e>
200092b0:	eb0a 0807 	add.w	r8, sl, r7
200092b4:	f1a8 0808 	sub.w	r8, r8, #8
200092b8:	42be      	cmp	r6, r7
200092ba:	dd0c      	ble.n	200092d6 <__s2b+0x8a>
200092bc:	2400      	movs	r4, #0
200092be:	f818 3004 	ldrb.w	r3, [r8, r4]
200092c2:	4601      	mov	r1, r0
200092c4:	3401      	adds	r4, #1
200092c6:	220a      	movs	r2, #10
200092c8:	3b30      	subs	r3, #48	; 0x30
200092ca:	4628      	mov	r0, r5
200092cc:	f7ff ff24 	bl	20009118 <__multadd>
200092d0:	19e3      	adds	r3, r4, r7
200092d2:	429e      	cmp	r6, r3
200092d4:	dcf3      	bgt.n	200092be <__s2b+0x72>
200092d6:	e8bd 85f8 	ldmia.w	sp!, {r3, r4, r5, r6, r7, r8, sl, pc}
200092da:	f108 080a 	add.w	r8, r8, #10
200092de:	2709      	movs	r7, #9
200092e0:	e7ea      	b.n	200092b8 <__s2b+0x6c>
200092e2:	2100      	movs	r1, #0
200092e4:	e7cd      	b.n	20009282 <__s2b+0x36>
200092e6:	bf00      	nop

200092e8 <_read_r>:
200092e8:	b538      	push	{r3, r4, r5, lr}
200092ea:	f24b 14dc 	movw	r4, #45532	; 0xb1dc
200092ee:	f2c2 0400 	movt	r4, #8192	; 0x2000
200092f2:	4605      	mov	r5, r0
200092f4:	4608      	mov	r0, r1
200092f6:	4611      	mov	r1, r2
200092f8:	461a      	mov	r2, r3
200092fa:	2300      	movs	r3, #0
200092fc:	6023      	str	r3, [r4, #0]
200092fe:	f7f7 fcf5 	bl	20000cec <_read>
20009302:	f1b0 3fff 	cmp.w	r0, #4294967295
20009306:	d000      	beq.n	2000930a <_read_r+0x22>
20009308:	bd38      	pop	{r3, r4, r5, pc}
2000930a:	6823      	ldr	r3, [r4, #0]
2000930c:	2b00      	cmp	r3, #0
2000930e:	d0fb      	beq.n	20009308 <_read_r+0x20>
20009310:	602b      	str	r3, [r5, #0]
20009312:	bd38      	pop	{r3, r4, r5, pc}

20009314 <__isinfd>:
20009314:	4602      	mov	r2, r0
20009316:	4240      	negs	r0, r0
20009318:	ea40 0302 	orr.w	r3, r0, r2
2000931c:	f021 4100 	bic.w	r1, r1, #2147483648	; 0x80000000
20009320:	ea41 73d3 	orr.w	r3, r1, r3, lsr #31
20009324:	f1c3 43fe 	rsb	r3, r3, #2130706432	; 0x7f000000
20009328:	f503 0370 	add.w	r3, r3, #15728640	; 0xf00000
2000932c:	4258      	negs	r0, r3
2000932e:	ea40 0303 	orr.w	r3, r0, r3
20009332:	17d8      	asrs	r0, r3, #31
20009334:	3001      	adds	r0, #1
20009336:	4770      	bx	lr

20009338 <_calloc_r>:
20009338:	b538      	push	{r3, r4, r5, lr}
2000933a:	fb01 f102 	mul.w	r1, r1, r2
2000933e:	f7f8 fa6b 	bl	20001818 <_malloc_r>
20009342:	4604      	mov	r4, r0
20009344:	b1f8      	cbz	r0, 20009386 <_calloc_r+0x4e>
20009346:	f850 2c04 	ldr.w	r2, [r0, #-4]
2000934a:	f022 0203 	bic.w	r2, r2, #3
2000934e:	3a04      	subs	r2, #4
20009350:	2a24      	cmp	r2, #36	; 0x24
20009352:	d81a      	bhi.n	2000938a <_calloc_r+0x52>
20009354:	2a13      	cmp	r2, #19
20009356:	4603      	mov	r3, r0
20009358:	d90f      	bls.n	2000937a <_calloc_r+0x42>
2000935a:	2100      	movs	r1, #0
2000935c:	f840 1b04 	str.w	r1, [r0], #4
20009360:	1d03      	adds	r3, r0, #4
20009362:	2a1b      	cmp	r2, #27
20009364:	6061      	str	r1, [r4, #4]
20009366:	d908      	bls.n	2000937a <_calloc_r+0x42>
20009368:	1d1d      	adds	r5, r3, #4
2000936a:	6041      	str	r1, [r0, #4]
2000936c:	6059      	str	r1, [r3, #4]
2000936e:	1d2b      	adds	r3, r5, #4
20009370:	2a24      	cmp	r2, #36	; 0x24
20009372:	bf02      	ittt	eq
20009374:	6069      	streq	r1, [r5, #4]
20009376:	6059      	streq	r1, [r3, #4]
20009378:	3308      	addeq	r3, #8
2000937a:	461a      	mov	r2, r3
2000937c:	2100      	movs	r1, #0
2000937e:	f842 1b04 	str.w	r1, [r2], #4
20009382:	6059      	str	r1, [r3, #4]
20009384:	6051      	str	r1, [r2, #4]
20009386:	4620      	mov	r0, r4
20009388:	bd38      	pop	{r3, r4, r5, pc}
2000938a:	2100      	movs	r1, #0
2000938c:	f7fa fc18 	bl	20003bc0 <memset>
20009390:	4620      	mov	r0, r4
20009392:	bd38      	pop	{r3, r4, r5, pc}
20009394:	0000      	lsls	r0, r0, #0
	...

20009398 <__aeabi_uidiv>:
20009398:	1e4a      	subs	r2, r1, #1
2000939a:	bf08      	it	eq
2000939c:	4770      	bxeq	lr
2000939e:	f0c0 8124 	bcc.w	200095ea <__aeabi_uidiv+0x252>
200093a2:	4288      	cmp	r0, r1
200093a4:	f240 8116 	bls.w	200095d4 <__aeabi_uidiv+0x23c>
200093a8:	4211      	tst	r1, r2
200093aa:	f000 8117 	beq.w	200095dc <__aeabi_uidiv+0x244>
200093ae:	fab0 f380 	clz	r3, r0
200093b2:	fab1 f281 	clz	r2, r1
200093b6:	eba2 0303 	sub.w	r3, r2, r3
200093ba:	f1c3 031f 	rsb	r3, r3, #31
200093be:	a204      	add	r2, pc, #16	; (adr r2, 200093d0 <__aeabi_uidiv+0x38>)
200093c0:	eb02 1303 	add.w	r3, r2, r3, lsl #4
200093c4:	f04f 0200 	mov.w	r2, #0
200093c8:	469f      	mov	pc, r3
200093ca:	bf00      	nop
200093cc:	f3af 8000 	nop.w
200093d0:	ebb0 7fc1 	cmp.w	r0, r1, lsl #31
200093d4:	bf00      	nop
200093d6:	eb42 0202 	adc.w	r2, r2, r2
200093da:	bf28      	it	cs
200093dc:	eba0 70c1 	subcs.w	r0, r0, r1, lsl #31
200093e0:	ebb0 7f81 	cmp.w	r0, r1, lsl #30
200093e4:	bf00      	nop
200093e6:	eb42 0202 	adc.w	r2, r2, r2
200093ea:	bf28      	it	cs
200093ec:	eba0 7081 	subcs.w	r0, r0, r1, lsl #30
200093f0:	ebb0 7f41 	cmp.w	r0, r1, lsl #29
200093f4:	bf00      	nop
200093f6:	eb42 0202 	adc.w	r2, r2, r2
200093fa:	bf28      	it	cs
200093fc:	eba0 7041 	subcs.w	r0, r0, r1, lsl #29
20009400:	ebb0 7f01 	cmp.w	r0, r1, lsl #28
20009404:	bf00      	nop
20009406:	eb42 0202 	adc.w	r2, r2, r2
2000940a:	bf28      	it	cs
2000940c:	eba0 7001 	subcs.w	r0, r0, r1, lsl #28
20009410:	ebb0 6fc1 	cmp.w	r0, r1, lsl #27
20009414:	bf00      	nop
20009416:	eb42 0202 	adc.w	r2, r2, r2
2000941a:	bf28      	it	cs
2000941c:	eba0 60c1 	subcs.w	r0, r0, r1, lsl #27
20009420:	ebb0 6f81 	cmp.w	r0, r1, lsl #26
20009424:	bf00      	nop
20009426:	eb42 0202 	adc.w	r2, r2, r2
2000942a:	bf28      	it	cs
2000942c:	eba0 6081 	subcs.w	r0, r0, r1, lsl #26
20009430:	ebb0 6f41 	cmp.w	r0, r1, lsl #25
20009434:	bf00      	nop
20009436:	eb42 0202 	adc.w	r2, r2, r2
2000943a:	bf28      	it	cs
2000943c:	eba0 6041 	subcs.w	r0, r0, r1, lsl #25
20009440:	ebb0 6f01 	cmp.w	r0, r1, lsl #24
20009444:	bf00      	nop
20009446:	eb42 0202 	adc.w	r2, r2, r2
2000944a:	bf28      	it	cs
2000944c:	eba0 6001 	subcs.w	r0, r0, r1, lsl #24
20009450:	ebb0 5fc1 	cmp.w	r0, r1, lsl #23
20009454:	bf00      	nop
20009456:	eb42 0202 	adc.w	r2, r2, r2
2000945a:	bf28      	it	cs
2000945c:	eba0 50c1 	subcs.w	r0, r0, r1, lsl #23
20009460:	ebb0 5f81 	cmp.w	r0, r1, lsl #22
20009464:	bf00      	nop
20009466:	eb42 0202 	adc.w	r2, r2, r2
2000946a:	bf28      	it	cs
2000946c:	eba0 5081 	subcs.w	r0, r0, r1, lsl #22
20009470:	ebb0 5f41 	cmp.w	r0, r1, lsl #21
20009474:	bf00      	nop
20009476:	eb42 0202 	adc.w	r2, r2, r2
2000947a:	bf28      	it	cs
2000947c:	eba0 5041 	subcs.w	r0, r0, r1, lsl #21
20009480:	ebb0 5f01 	cmp.w	r0, r1, lsl #20
20009484:	bf00      	nop
20009486:	eb42 0202 	adc.w	r2, r2, r2
2000948a:	bf28      	it	cs
2000948c:	eba0 5001 	subcs.w	r0, r0, r1, lsl #20
20009490:	ebb0 4fc1 	cmp.w	r0, r1, lsl #19
20009494:	bf00      	nop
20009496:	eb42 0202 	adc.w	r2, r2, r2
2000949a:	bf28      	it	cs
2000949c:	eba0 40c1 	subcs.w	r0, r0, r1, lsl #19
200094a0:	ebb0 4f81 	cmp.w	r0, r1, lsl #18
200094a4:	bf00      	nop
200094a6:	eb42 0202 	adc.w	r2, r2, r2
200094aa:	bf28      	it	cs
200094ac:	eba0 4081 	subcs.w	r0, r0, r1, lsl #18
200094b0:	ebb0 4f41 	cmp.w	r0, r1, lsl #17
200094b4:	bf00      	nop
200094b6:	eb42 0202 	adc.w	r2, r2, r2
200094ba:	bf28      	it	cs
200094bc:	eba0 4041 	subcs.w	r0, r0, r1, lsl #17
200094c0:	ebb0 4f01 	cmp.w	r0, r1, lsl #16
200094c4:	bf00      	nop
200094c6:	eb42 0202 	adc.w	r2, r2, r2
200094ca:	bf28      	it	cs
200094cc:	eba0 4001 	subcs.w	r0, r0, r1, lsl #16
200094d0:	ebb0 3fc1 	cmp.w	r0, r1, lsl #15
200094d4:	bf00      	nop
200094d6:	eb42 0202 	adc.w	r2, r2, r2
200094da:	bf28      	it	cs
200094dc:	eba0 30c1 	subcs.w	r0, r0, r1, lsl #15
200094e0:	ebb0 3f81 	cmp.w	r0, r1, lsl #14
200094e4:	bf00      	nop
200094e6:	eb42 0202 	adc.w	r2, r2, r2
200094ea:	bf28      	it	cs
200094ec:	eba0 3081 	subcs.w	r0, r0, r1, lsl #14
200094f0:	ebb0 3f41 	cmp.w	r0, r1, lsl #13
200094f4:	bf00      	nop
200094f6:	eb42 0202 	adc.w	r2, r2, r2
200094fa:	bf28      	it	cs
200094fc:	eba0 3041 	subcs.w	r0, r0, r1, lsl #13
20009500:	ebb0 3f01 	cmp.w	r0, r1, lsl #12
20009504:	bf00      	nop
20009506:	eb42 0202 	adc.w	r2, r2, r2
2000950a:	bf28      	it	cs
2000950c:	eba0 3001 	subcs.w	r0, r0, r1, lsl #12
20009510:	ebb0 2fc1 	cmp.w	r0, r1, lsl #11
20009514:	bf00      	nop
20009516:	eb42 0202 	adc.w	r2, r2, r2
2000951a:	bf28      	it	cs
2000951c:	eba0 20c1 	subcs.w	r0, r0, r1, lsl #11
20009520:	ebb0 2f81 	cmp.w	r0, r1, lsl #10
20009524:	bf00      	nop
20009526:	eb42 0202 	adc.w	r2, r2, r2
2000952a:	bf28      	it	cs
2000952c:	eba0 2081 	subcs.w	r0, r0, r1, lsl #10
20009530:	ebb0 2f41 	cmp.w	r0, r1, lsl #9
20009534:	bf00      	nop
20009536:	eb42 0202 	adc.w	r2, r2, r2
2000953a:	bf28      	it	cs
2000953c:	eba0 2041 	subcs.w	r0, r0, r1, lsl #9
20009540:	ebb0 2f01 	cmp.w	r0, r1, lsl #8
20009544:	bf00      	nop
20009546:	eb42 0202 	adc.w	r2, r2, r2
2000954a:	bf28      	it	cs
2000954c:	eba0 2001 	subcs.w	r0, r0, r1, lsl #8
20009550:	ebb0 1fc1 	cmp.w	r0, r1, lsl #7
20009554:	bf00      	nop
20009556:	eb42 0202 	adc.w	r2, r2, r2
2000955a:	bf28      	it	cs
2000955c:	eba0 10c1 	subcs.w	r0, r0, r1, lsl #7
20009560:	ebb0 1f81 	cmp.w	r0, r1, lsl #6
20009564:	bf00      	nop
20009566:	eb42 0202 	adc.w	r2, r2, r2
2000956a:	bf28      	it	cs
2000956c:	eba0 1081 	subcs.w	r0, r0, r1, lsl #6
20009570:	ebb0 1f41 	cmp.w	r0, r1, lsl #5
20009574:	bf00      	nop
20009576:	eb42 0202 	adc.w	r2, r2, r2
2000957a:	bf28      	it	cs
2000957c:	eba0 1041 	subcs.w	r0, r0, r1, lsl #5
20009580:	ebb0 1f01 	cmp.w	r0, r1, lsl #4
20009584:	bf00      	nop
20009586:	eb42 0202 	adc.w	r2, r2, r2
2000958a:	bf28      	it	cs
2000958c:	eba0 1001 	subcs.w	r0, r0, r1, lsl #4
20009590:	ebb0 0fc1 	cmp.w	r0, r1, lsl #3
20009594:	bf00      	nop
20009596:	eb42 0202 	adc.w	r2, r2, r2
2000959a:	bf28      	it	cs
2000959c:	eba0 00c1 	subcs.w	r0, r0, r1, lsl #3
200095a0:	ebb0 0f81 	cmp.w	r0, r1, lsl #2
200095a4:	bf00      	nop
200095a6:	eb42 0202 	adc.w	r2, r2, r2
200095aa:	bf28      	it	cs
200095ac:	eba0 0081 	subcs.w	r0, r0, r1, lsl #2
200095b0:	ebb0 0f41 	cmp.w	r0, r1, lsl #1
200095b4:	bf00      	nop
200095b6:	eb42 0202 	adc.w	r2, r2, r2
200095ba:	bf28      	it	cs
200095bc:	eba0 0041 	subcs.w	r0, r0, r1, lsl #1
200095c0:	ebb0 0f01 	cmp.w	r0, r1
200095c4:	bf00      	nop
200095c6:	eb42 0202 	adc.w	r2, r2, r2
200095ca:	bf28      	it	cs
200095cc:	eba0 0001 	subcs.w	r0, r0, r1
200095d0:	4610      	mov	r0, r2
200095d2:	4770      	bx	lr
200095d4:	bf0c      	ite	eq
200095d6:	2001      	moveq	r0, #1
200095d8:	2000      	movne	r0, #0
200095da:	4770      	bx	lr
200095dc:	fab1 f281 	clz	r2, r1
200095e0:	f1c2 021f 	rsb	r2, r2, #31
200095e4:	fa20 f002 	lsr.w	r0, r0, r2
200095e8:	4770      	bx	lr
200095ea:	b108      	cbz	r0, 200095f0 <__aeabi_uidiv+0x258>
200095ec:	f04f 30ff 	mov.w	r0, #4294967295
200095f0:	f000 b80e 	b.w	20009610 <__aeabi_idiv0>

200095f4 <__aeabi_uidivmod>:
200095f4:	2900      	cmp	r1, #0
200095f6:	d0f8      	beq.n	200095ea <__aeabi_uidiv+0x252>
200095f8:	e92d 4003 	stmdb	sp!, {r0, r1, lr}
200095fc:	f7ff fecc 	bl	20009398 <__aeabi_uidiv>
20009600:	e8bd 4006 	ldmia.w	sp!, {r1, r2, lr}
20009604:	fb02 f300 	mul.w	r3, r2, r0
20009608:	eba1 0103 	sub.w	r1, r1, r3
2000960c:	4770      	bx	lr
2000960e:	bf00      	nop

20009610 <__aeabi_idiv0>:
20009610:	4770      	bx	lr
20009612:	bf00      	nop

20009614 <__aeabi_drsub>:
20009614:	f081 4100 	eor.w	r1, r1, #2147483648	; 0x80000000
20009618:	e002      	b.n	20009620 <__adddf3>
2000961a:	bf00      	nop

2000961c <__aeabi_dsub>:
2000961c:	f083 4300 	eor.w	r3, r3, #2147483648	; 0x80000000

20009620 <__adddf3>:
20009620:	b530      	push	{r4, r5, lr}
20009622:	ea4f 0441 	mov.w	r4, r1, lsl #1
20009626:	ea4f 0543 	mov.w	r5, r3, lsl #1
2000962a:	ea94 0f05 	teq	r4, r5
2000962e:	bf08      	it	eq
20009630:	ea90 0f02 	teqeq	r0, r2
20009634:	bf1f      	itttt	ne
20009636:	ea54 0c00 	orrsne.w	ip, r4, r0
2000963a:	ea55 0c02 	orrsne.w	ip, r5, r2
2000963e:	ea7f 5c64 	mvnsne.w	ip, r4, asr #21
20009642:	ea7f 5c65 	mvnsne.w	ip, r5, asr #21
20009646:	f000 80e2 	beq.w	2000980e <__adddf3+0x1ee>
2000964a:	ea4f 5454 	mov.w	r4, r4, lsr #21
2000964e:	ebd4 5555 	rsbs	r5, r4, r5, lsr #21
20009652:	bfb8      	it	lt
20009654:	426d      	neglt	r5, r5
20009656:	dd0c      	ble.n	20009672 <__adddf3+0x52>
20009658:	442c      	add	r4, r5
2000965a:	ea80 0202 	eor.w	r2, r0, r2
2000965e:	ea81 0303 	eor.w	r3, r1, r3
20009662:	ea82 0000 	eor.w	r0, r2, r0
20009666:	ea83 0101 	eor.w	r1, r3, r1
2000966a:	ea80 0202 	eor.w	r2, r0, r2
2000966e:	ea81 0303 	eor.w	r3, r1, r3
20009672:	2d36      	cmp	r5, #54	; 0x36
20009674:	bf88      	it	hi
20009676:	bd30      	pophi	{r4, r5, pc}
20009678:	f011 4f00 	tst.w	r1, #2147483648	; 0x80000000
2000967c:	ea4f 3101 	mov.w	r1, r1, lsl #12
20009680:	f44f 1c80 	mov.w	ip, #1048576	; 0x100000
20009684:	ea4c 3111 	orr.w	r1, ip, r1, lsr #12
20009688:	d002      	beq.n	20009690 <__adddf3+0x70>
2000968a:	4240      	negs	r0, r0
2000968c:	eb61 0141 	sbc.w	r1, r1, r1, lsl #1
20009690:	f013 4f00 	tst.w	r3, #2147483648	; 0x80000000
20009694:	ea4f 3303 	mov.w	r3, r3, lsl #12
20009698:	ea4c 3313 	orr.w	r3, ip, r3, lsr #12
2000969c:	d002      	beq.n	200096a4 <__adddf3+0x84>
2000969e:	4252      	negs	r2, r2
200096a0:	eb63 0343 	sbc.w	r3, r3, r3, lsl #1
200096a4:	ea94 0f05 	teq	r4, r5
200096a8:	f000 80a7 	beq.w	200097fa <__adddf3+0x1da>
200096ac:	f1a4 0401 	sub.w	r4, r4, #1
200096b0:	f1d5 0e20 	rsbs	lr, r5, #32
200096b4:	db0d      	blt.n	200096d2 <__adddf3+0xb2>
200096b6:	fa02 fc0e 	lsl.w	ip, r2, lr
200096ba:	fa22 f205 	lsr.w	r2, r2, r5
200096be:	1880      	adds	r0, r0, r2
200096c0:	f141 0100 	adc.w	r1, r1, #0
200096c4:	fa03 f20e 	lsl.w	r2, r3, lr
200096c8:	1880      	adds	r0, r0, r2
200096ca:	fa43 f305 	asr.w	r3, r3, r5
200096ce:	4159      	adcs	r1, r3
200096d0:	e00e      	b.n	200096f0 <__adddf3+0xd0>
200096d2:	f1a5 0520 	sub.w	r5, r5, #32
200096d6:	f10e 0e20 	add.w	lr, lr, #32
200096da:	2a01      	cmp	r2, #1
200096dc:	fa03 fc0e 	lsl.w	ip, r3, lr
200096e0:	bf28      	it	cs
200096e2:	f04c 0c02 	orrcs.w	ip, ip, #2
200096e6:	fa43 f305 	asr.w	r3, r3, r5
200096ea:	18c0      	adds	r0, r0, r3
200096ec:	eb51 71e3 	adcs.w	r1, r1, r3, asr #31
200096f0:	f001 4500 	and.w	r5, r1, #2147483648	; 0x80000000
200096f4:	d507      	bpl.n	20009706 <__adddf3+0xe6>
200096f6:	f04f 0e00 	mov.w	lr, #0
200096fa:	f1dc 0c00 	rsbs	ip, ip, #0
200096fe:	eb7e 0000 	sbcs.w	r0, lr, r0
20009702:	eb6e 0101 	sbc.w	r1, lr, r1
20009706:	f5b1 1f80 	cmp.w	r1, #1048576	; 0x100000
2000970a:	d31b      	bcc.n	20009744 <__adddf3+0x124>
2000970c:	f5b1 1f00 	cmp.w	r1, #2097152	; 0x200000
20009710:	d30c      	bcc.n	2000972c <__adddf3+0x10c>
20009712:	0849      	lsrs	r1, r1, #1
20009714:	ea5f 0030 	movs.w	r0, r0, rrx
20009718:	ea4f 0c3c 	mov.w	ip, ip, rrx
2000971c:	f104 0401 	add.w	r4, r4, #1
20009720:	ea4f 5244 	mov.w	r2, r4, lsl #21
20009724:	f512 0f80 	cmn.w	r2, #4194304	; 0x400000
20009728:	f080 809a 	bcs.w	20009860 <__adddf3+0x240>
2000972c:	f1bc 4f00 	cmp.w	ip, #2147483648	; 0x80000000
20009730:	bf08      	it	eq
20009732:	ea5f 0c50 	movseq.w	ip, r0, lsr #1
20009736:	f150 0000 	adcs.w	r0, r0, #0
2000973a:	eb41 5104 	adc.w	r1, r1, r4, lsl #20
2000973e:	ea41 0105 	orr.w	r1, r1, r5
20009742:	bd30      	pop	{r4, r5, pc}
20009744:	ea5f 0c4c 	movs.w	ip, ip, lsl #1
20009748:	4140      	adcs	r0, r0
2000974a:	eb41 0101 	adc.w	r1, r1, r1
2000974e:	f411 1f80 	tst.w	r1, #1048576	; 0x100000
20009752:	f1a4 0401 	sub.w	r4, r4, #1
20009756:	d1e9      	bne.n	2000972c <__adddf3+0x10c>
20009758:	f091 0f00 	teq	r1, #0
2000975c:	bf04      	itt	eq
2000975e:	4601      	moveq	r1, r0
20009760:	2000      	moveq	r0, #0
20009762:	fab1 f381 	clz	r3, r1
20009766:	bf08      	it	eq
20009768:	3320      	addeq	r3, #32
2000976a:	f1a3 030b 	sub.w	r3, r3, #11
2000976e:	f1b3 0220 	subs.w	r2, r3, #32
20009772:	da0c      	bge.n	2000978e <__adddf3+0x16e>
20009774:	320c      	adds	r2, #12
20009776:	dd08      	ble.n	2000978a <__adddf3+0x16a>
20009778:	f102 0c14 	add.w	ip, r2, #20
2000977c:	f1c2 020c 	rsb	r2, r2, #12
20009780:	fa01 f00c 	lsl.w	r0, r1, ip
20009784:	fa21 f102 	lsr.w	r1, r1, r2
20009788:	e00c      	b.n	200097a4 <__adddf3+0x184>
2000978a:	f102 0214 	add.w	r2, r2, #20
2000978e:	bfd8      	it	le
20009790:	f1c2 0c20 	rsble	ip, r2, #32
20009794:	fa01 f102 	lsl.w	r1, r1, r2
20009798:	fa20 fc0c 	lsr.w	ip, r0, ip
2000979c:	bfdc      	itt	le
2000979e:	ea41 010c 	orrle.w	r1, r1, ip
200097a2:	4090      	lslle	r0, r2
200097a4:	1ae4      	subs	r4, r4, r3
200097a6:	bfa2      	ittt	ge
200097a8:	eb01 5104 	addge.w	r1, r1, r4, lsl #20
200097ac:	4329      	orrge	r1, r5
200097ae:	bd30      	popge	{r4, r5, pc}
200097b0:	ea6f 0404 	mvn.w	r4, r4
200097b4:	3c1f      	subs	r4, #31
200097b6:	da1c      	bge.n	200097f2 <__adddf3+0x1d2>
200097b8:	340c      	adds	r4, #12
200097ba:	dc0e      	bgt.n	200097da <__adddf3+0x1ba>
200097bc:	f104 0414 	add.w	r4, r4, #20
200097c0:	f1c4 0220 	rsb	r2, r4, #32
200097c4:	fa20 f004 	lsr.w	r0, r0, r4
200097c8:	fa01 f302 	lsl.w	r3, r1, r2
200097cc:	ea40 0003 	orr.w	r0, r0, r3
200097d0:	fa21 f304 	lsr.w	r3, r1, r4
200097d4:	ea45 0103 	orr.w	r1, r5, r3
200097d8:	bd30      	pop	{r4, r5, pc}
200097da:	f1c4 040c 	rsb	r4, r4, #12
200097de:	f1c4 0220 	rsb	r2, r4, #32
200097e2:	fa20 f002 	lsr.w	r0, r0, r2
200097e6:	fa01 f304 	lsl.w	r3, r1, r4
200097ea:	ea40 0003 	orr.w	r0, r0, r3
200097ee:	4629      	mov	r1, r5
200097f0:	bd30      	pop	{r4, r5, pc}
200097f2:	fa21 f004 	lsr.w	r0, r1, r4
200097f6:	4629      	mov	r1, r5
200097f8:	bd30      	pop	{r4, r5, pc}
200097fa:	f094 0f00 	teq	r4, #0
200097fe:	f483 1380 	eor.w	r3, r3, #1048576	; 0x100000
20009802:	bf06      	itte	eq
20009804:	f481 1180 	eoreq.w	r1, r1, #1048576	; 0x100000
20009808:	3401      	addeq	r4, #1
2000980a:	3d01      	subne	r5, #1
2000980c:	e74e      	b.n	200096ac <__adddf3+0x8c>
2000980e:	ea7f 5c64 	mvns.w	ip, r4, asr #21
20009812:	bf18      	it	ne
20009814:	ea7f 5c65 	mvnsne.w	ip, r5, asr #21
20009818:	d029      	beq.n	2000986e <__adddf3+0x24e>
2000981a:	ea94 0f05 	teq	r4, r5
2000981e:	bf08      	it	eq
20009820:	ea90 0f02 	teqeq	r0, r2
20009824:	d005      	beq.n	20009832 <__adddf3+0x212>
20009826:	ea54 0c00 	orrs.w	ip, r4, r0
2000982a:	bf04      	itt	eq
2000982c:	4619      	moveq	r1, r3
2000982e:	4610      	moveq	r0, r2
20009830:	bd30      	pop	{r4, r5, pc}
20009832:	ea91 0f03 	teq	r1, r3
20009836:	bf1e      	ittt	ne
20009838:	2100      	movne	r1, #0
2000983a:	2000      	movne	r0, #0
2000983c:	bd30      	popne	{r4, r5, pc}
2000983e:	ea5f 5c54 	movs.w	ip, r4, lsr #21
20009842:	d105      	bne.n	20009850 <__adddf3+0x230>
20009844:	0040      	lsls	r0, r0, #1
20009846:	4149      	adcs	r1, r1
20009848:	bf28      	it	cs
2000984a:	f041 4100 	orrcs.w	r1, r1, #2147483648	; 0x80000000
2000984e:	bd30      	pop	{r4, r5, pc}
20009850:	f514 0480 	adds.w	r4, r4, #4194304	; 0x400000
20009854:	bf3c      	itt	cc
20009856:	f501 1180 	addcc.w	r1, r1, #1048576	; 0x100000
2000985a:	bd30      	popcc	{r4, r5, pc}
2000985c:	f001 4500 	and.w	r5, r1, #2147483648	; 0x80000000
20009860:	f045 41fe 	orr.w	r1, r5, #2130706432	; 0x7f000000
20009864:	f441 0170 	orr.w	r1, r1, #15728640	; 0xf00000
20009868:	f04f 0000 	mov.w	r0, #0
2000986c:	bd30      	pop	{r4, r5, pc}
2000986e:	ea7f 5c64 	mvns.w	ip, r4, asr #21
20009872:	bf1a      	itte	ne
20009874:	4619      	movne	r1, r3
20009876:	4610      	movne	r0, r2
20009878:	ea7f 5c65 	mvnseq.w	ip, r5, asr #21
2000987c:	bf1c      	itt	ne
2000987e:	460b      	movne	r3, r1
20009880:	4602      	movne	r2, r0
20009882:	ea50 3401 	orrs.w	r4, r0, r1, lsl #12
20009886:	bf06      	itte	eq
20009888:	ea52 3503 	orrseq.w	r5, r2, r3, lsl #12
2000988c:	ea91 0f03 	teqeq	r1, r3
20009890:	f441 2100 	orrne.w	r1, r1, #524288	; 0x80000
20009894:	bd30      	pop	{r4, r5, pc}
20009896:	bf00      	nop

20009898 <__aeabi_ui2d>:
20009898:	f090 0f00 	teq	r0, #0
2000989c:	bf04      	itt	eq
2000989e:	2100      	moveq	r1, #0
200098a0:	4770      	bxeq	lr
200098a2:	b530      	push	{r4, r5, lr}
200098a4:	f44f 6480 	mov.w	r4, #1024	; 0x400
200098a8:	f104 0432 	add.w	r4, r4, #50	; 0x32
200098ac:	f04f 0500 	mov.w	r5, #0
200098b0:	f04f 0100 	mov.w	r1, #0
200098b4:	e750      	b.n	20009758 <__adddf3+0x138>
200098b6:	bf00      	nop

200098b8 <__aeabi_i2d>:
200098b8:	f090 0f00 	teq	r0, #0
200098bc:	bf04      	itt	eq
200098be:	2100      	moveq	r1, #0
200098c0:	4770      	bxeq	lr
200098c2:	b530      	push	{r4, r5, lr}
200098c4:	f44f 6480 	mov.w	r4, #1024	; 0x400
200098c8:	f104 0432 	add.w	r4, r4, #50	; 0x32
200098cc:	f010 4500 	ands.w	r5, r0, #2147483648	; 0x80000000
200098d0:	bf48      	it	mi
200098d2:	4240      	negmi	r0, r0
200098d4:	f04f 0100 	mov.w	r1, #0
200098d8:	e73e      	b.n	20009758 <__adddf3+0x138>
200098da:	bf00      	nop

200098dc <__aeabi_f2d>:
200098dc:	0042      	lsls	r2, r0, #1
200098de:	ea4f 01e2 	mov.w	r1, r2, asr #3
200098e2:	ea4f 0131 	mov.w	r1, r1, rrx
200098e6:	ea4f 7002 	mov.w	r0, r2, lsl #28
200098ea:	bf1f      	itttt	ne
200098ec:	f012 437f 	andsne.w	r3, r2, #4278190080	; 0xff000000
200098f0:	f093 4f7f 	teqne	r3, #4278190080	; 0xff000000
200098f4:	f081 5160 	eorne.w	r1, r1, #939524096	; 0x38000000
200098f8:	4770      	bxne	lr
200098fa:	f092 0f00 	teq	r2, #0
200098fe:	bf14      	ite	ne
20009900:	f093 4f7f 	teqne	r3, #4278190080	; 0xff000000
20009904:	4770      	bxeq	lr
20009906:	b530      	push	{r4, r5, lr}
20009908:	f44f 7460 	mov.w	r4, #896	; 0x380
2000990c:	f001 4500 	and.w	r5, r1, #2147483648	; 0x80000000
20009910:	f021 4100 	bic.w	r1, r1, #2147483648	; 0x80000000
20009914:	e720      	b.n	20009758 <__adddf3+0x138>
20009916:	bf00      	nop

20009918 <__aeabi_ul2d>:
20009918:	ea50 0201 	orrs.w	r2, r0, r1
2000991c:	bf08      	it	eq
2000991e:	4770      	bxeq	lr
20009920:	b530      	push	{r4, r5, lr}
20009922:	f04f 0500 	mov.w	r5, #0
20009926:	e00a      	b.n	2000993e <__aeabi_l2d+0x16>

20009928 <__aeabi_l2d>:
20009928:	ea50 0201 	orrs.w	r2, r0, r1
2000992c:	bf08      	it	eq
2000992e:	4770      	bxeq	lr
20009930:	b530      	push	{r4, r5, lr}
20009932:	f011 4500 	ands.w	r5, r1, #2147483648	; 0x80000000
20009936:	d502      	bpl.n	2000993e <__aeabi_l2d+0x16>
20009938:	4240      	negs	r0, r0
2000993a:	eb61 0141 	sbc.w	r1, r1, r1, lsl #1
2000993e:	f44f 6480 	mov.w	r4, #1024	; 0x400
20009942:	f104 0432 	add.w	r4, r4, #50	; 0x32
20009946:	ea5f 5c91 	movs.w	ip, r1, lsr #22
2000994a:	f43f aedc 	beq.w	20009706 <__adddf3+0xe6>
2000994e:	f04f 0203 	mov.w	r2, #3
20009952:	ea5f 0cdc 	movs.w	ip, ip, lsr #3
20009956:	bf18      	it	ne
20009958:	3203      	addne	r2, #3
2000995a:	ea5f 0cdc 	movs.w	ip, ip, lsr #3
2000995e:	bf18      	it	ne
20009960:	3203      	addne	r2, #3
20009962:	eb02 02dc 	add.w	r2, r2, ip, lsr #3
20009966:	f1c2 0320 	rsb	r3, r2, #32
2000996a:	fa00 fc03 	lsl.w	ip, r0, r3
2000996e:	fa20 f002 	lsr.w	r0, r0, r2
20009972:	fa01 fe03 	lsl.w	lr, r1, r3
20009976:	ea40 000e 	orr.w	r0, r0, lr
2000997a:	fa21 f102 	lsr.w	r1, r1, r2
2000997e:	4414      	add	r4, r2
20009980:	e6c1      	b.n	20009706 <__adddf3+0xe6>
20009982:	bf00      	nop

20009984 <__aeabi_dmul>:
20009984:	b570      	push	{r4, r5, r6, lr}
20009986:	f04f 0cff 	mov.w	ip, #255	; 0xff
2000998a:	f44c 6ce0 	orr.w	ip, ip, #1792	; 0x700
2000998e:	ea1c 5411 	ands.w	r4, ip, r1, lsr #20
20009992:	bf1d      	ittte	ne
20009994:	ea1c 5513 	andsne.w	r5, ip, r3, lsr #20
20009998:	ea94 0f0c 	teqne	r4, ip
2000999c:	ea95 0f0c 	teqne	r5, ip
200099a0:	f000 f8de 	bleq	20009b60 <__aeabi_dmul+0x1dc>
200099a4:	442c      	add	r4, r5
200099a6:	ea81 0603 	eor.w	r6, r1, r3
200099aa:	ea21 514c 	bic.w	r1, r1, ip, lsl #21
200099ae:	ea23 534c 	bic.w	r3, r3, ip, lsl #21
200099b2:	ea50 3501 	orrs.w	r5, r0, r1, lsl #12
200099b6:	bf18      	it	ne
200099b8:	ea52 3503 	orrsne.w	r5, r2, r3, lsl #12
200099bc:	f441 1180 	orr.w	r1, r1, #1048576	; 0x100000
200099c0:	f443 1380 	orr.w	r3, r3, #1048576	; 0x100000
200099c4:	d038      	beq.n	20009a38 <__aeabi_dmul+0xb4>
200099c6:	fba0 ce02 	umull	ip, lr, r0, r2
200099ca:	f04f 0500 	mov.w	r5, #0
200099ce:	fbe1 e502 	umlal	lr, r5, r1, r2
200099d2:	f006 4200 	and.w	r2, r6, #2147483648	; 0x80000000
200099d6:	fbe0 e503 	umlal	lr, r5, r0, r3
200099da:	f04f 0600 	mov.w	r6, #0
200099de:	fbe1 5603 	umlal	r5, r6, r1, r3
200099e2:	f09c 0f00 	teq	ip, #0
200099e6:	bf18      	it	ne
200099e8:	f04e 0e01 	orrne.w	lr, lr, #1
200099ec:	f1a4 04ff 	sub.w	r4, r4, #255	; 0xff
200099f0:	f5b6 7f00 	cmp.w	r6, #512	; 0x200
200099f4:	f564 7440 	sbc.w	r4, r4, #768	; 0x300
200099f8:	d204      	bcs.n	20009a04 <__aeabi_dmul+0x80>
200099fa:	ea5f 0e4e 	movs.w	lr, lr, lsl #1
200099fe:	416d      	adcs	r5, r5
20009a00:	eb46 0606 	adc.w	r6, r6, r6
20009a04:	ea42 21c6 	orr.w	r1, r2, r6, lsl #11
20009a08:	ea41 5155 	orr.w	r1, r1, r5, lsr #21
20009a0c:	ea4f 20c5 	mov.w	r0, r5, lsl #11
20009a10:	ea40 505e 	orr.w	r0, r0, lr, lsr #21
20009a14:	ea4f 2ece 	mov.w	lr, lr, lsl #11
20009a18:	f1b4 0cfd 	subs.w	ip, r4, #253	; 0xfd
20009a1c:	bf88      	it	hi
20009a1e:	f5bc 6fe0 	cmphi.w	ip, #1792	; 0x700
20009a22:	d81e      	bhi.n	20009a62 <__aeabi_dmul+0xde>
20009a24:	f1be 4f00 	cmp.w	lr, #2147483648	; 0x80000000
20009a28:	bf08      	it	eq
20009a2a:	ea5f 0e50 	movseq.w	lr, r0, lsr #1
20009a2e:	f150 0000 	adcs.w	r0, r0, #0
20009a32:	eb41 5104 	adc.w	r1, r1, r4, lsl #20
20009a36:	bd70      	pop	{r4, r5, r6, pc}
20009a38:	f006 4600 	and.w	r6, r6, #2147483648	; 0x80000000
20009a3c:	ea46 0101 	orr.w	r1, r6, r1
20009a40:	ea40 0002 	orr.w	r0, r0, r2
20009a44:	ea81 0103 	eor.w	r1, r1, r3
20009a48:	ebb4 045c 	subs.w	r4, r4, ip, lsr #1
20009a4c:	bfc2      	ittt	gt
20009a4e:	ebd4 050c 	rsbsgt	r5, r4, ip
20009a52:	ea41 5104 	orrgt.w	r1, r1, r4, lsl #20
20009a56:	bd70      	popgt	{r4, r5, r6, pc}
20009a58:	f441 1180 	orr.w	r1, r1, #1048576	; 0x100000
20009a5c:	f04f 0e00 	mov.w	lr, #0
20009a60:	3c01      	subs	r4, #1
20009a62:	f300 80ab 	bgt.w	20009bbc <__aeabi_dmul+0x238>
20009a66:	f114 0f36 	cmn.w	r4, #54	; 0x36
20009a6a:	bfde      	ittt	le
20009a6c:	2000      	movle	r0, #0
20009a6e:	f001 4100 	andle.w	r1, r1, #2147483648	; 0x80000000
20009a72:	bd70      	pople	{r4, r5, r6, pc}
20009a74:	f1c4 0400 	rsb	r4, r4, #0
20009a78:	3c20      	subs	r4, #32
20009a7a:	da35      	bge.n	20009ae8 <__aeabi_dmul+0x164>
20009a7c:	340c      	adds	r4, #12
20009a7e:	dc1b      	bgt.n	20009ab8 <__aeabi_dmul+0x134>
20009a80:	f104 0414 	add.w	r4, r4, #20
20009a84:	f1c4 0520 	rsb	r5, r4, #32
20009a88:	fa00 f305 	lsl.w	r3, r0, r5
20009a8c:	fa20 f004 	lsr.w	r0, r0, r4
20009a90:	fa01 f205 	lsl.w	r2, r1, r5
20009a94:	ea40 0002 	orr.w	r0, r0, r2
20009a98:	f001 4200 	and.w	r2, r1, #2147483648	; 0x80000000
20009a9c:	f021 4100 	bic.w	r1, r1, #2147483648	; 0x80000000
20009aa0:	eb10 70d3 	adds.w	r0, r0, r3, lsr #31
20009aa4:	fa21 f604 	lsr.w	r6, r1, r4
20009aa8:	eb42 0106 	adc.w	r1, r2, r6
20009aac:	ea5e 0e43 	orrs.w	lr, lr, r3, lsl #1
20009ab0:	bf08      	it	eq
20009ab2:	ea20 70d3 	biceq.w	r0, r0, r3, lsr #31
20009ab6:	bd70      	pop	{r4, r5, r6, pc}
20009ab8:	f1c4 040c 	rsb	r4, r4, #12
20009abc:	f1c4 0520 	rsb	r5, r4, #32
20009ac0:	fa00 f304 	lsl.w	r3, r0, r4
20009ac4:	fa20 f005 	lsr.w	r0, r0, r5
20009ac8:	fa01 f204 	lsl.w	r2, r1, r4
20009acc:	ea40 0002 	orr.w	r0, r0, r2
20009ad0:	f001 4100 	and.w	r1, r1, #2147483648	; 0x80000000
20009ad4:	eb10 70d3 	adds.w	r0, r0, r3, lsr #31
20009ad8:	f141 0100 	adc.w	r1, r1, #0
20009adc:	ea5e 0e43 	orrs.w	lr, lr, r3, lsl #1
20009ae0:	bf08      	it	eq
20009ae2:	ea20 70d3 	biceq.w	r0, r0, r3, lsr #31
20009ae6:	bd70      	pop	{r4, r5, r6, pc}
20009ae8:	f1c4 0520 	rsb	r5, r4, #32
20009aec:	fa00 f205 	lsl.w	r2, r0, r5
20009af0:	ea4e 0e02 	orr.w	lr, lr, r2
20009af4:	fa20 f304 	lsr.w	r3, r0, r4
20009af8:	fa01 f205 	lsl.w	r2, r1, r5
20009afc:	ea43 0302 	orr.w	r3, r3, r2
20009b00:	fa21 f004 	lsr.w	r0, r1, r4
20009b04:	f001 4100 	and.w	r1, r1, #2147483648	; 0x80000000
20009b08:	fa21 f204 	lsr.w	r2, r1, r4
20009b0c:	ea20 0002 	bic.w	r0, r0, r2
20009b10:	eb00 70d3 	add.w	r0, r0, r3, lsr #31
20009b14:	ea5e 0e43 	orrs.w	lr, lr, r3, lsl #1
20009b18:	bf08      	it	eq
20009b1a:	ea20 70d3 	biceq.w	r0, r0, r3, lsr #31
20009b1e:	bd70      	pop	{r4, r5, r6, pc}
20009b20:	f094 0f00 	teq	r4, #0
20009b24:	d10f      	bne.n	20009b46 <__aeabi_dmul+0x1c2>
20009b26:	f001 4600 	and.w	r6, r1, #2147483648	; 0x80000000
20009b2a:	0040      	lsls	r0, r0, #1
20009b2c:	eb41 0101 	adc.w	r1, r1, r1
20009b30:	f411 1f80 	tst.w	r1, #1048576	; 0x100000
20009b34:	bf08      	it	eq
20009b36:	3c01      	subeq	r4, #1
20009b38:	d0f7      	beq.n	20009b2a <__aeabi_dmul+0x1a6>
20009b3a:	ea41 0106 	orr.w	r1, r1, r6
20009b3e:	f095 0f00 	teq	r5, #0
20009b42:	bf18      	it	ne
20009b44:	4770      	bxne	lr
20009b46:	f003 4600 	and.w	r6, r3, #2147483648	; 0x80000000
20009b4a:	0052      	lsls	r2, r2, #1
20009b4c:	eb43 0303 	adc.w	r3, r3, r3
20009b50:	f413 1f80 	tst.w	r3, #1048576	; 0x100000
20009b54:	bf08      	it	eq
20009b56:	3d01      	subeq	r5, #1
20009b58:	d0f7      	beq.n	20009b4a <__aeabi_dmul+0x1c6>
20009b5a:	ea43 0306 	orr.w	r3, r3, r6
20009b5e:	4770      	bx	lr
20009b60:	ea94 0f0c 	teq	r4, ip
20009b64:	ea0c 5513 	and.w	r5, ip, r3, lsr #20
20009b68:	bf18      	it	ne
20009b6a:	ea95 0f0c 	teqne	r5, ip
20009b6e:	d00c      	beq.n	20009b8a <__aeabi_dmul+0x206>
20009b70:	ea50 0641 	orrs.w	r6, r0, r1, lsl #1
20009b74:	bf18      	it	ne
20009b76:	ea52 0643 	orrsne.w	r6, r2, r3, lsl #1
20009b7a:	d1d1      	bne.n	20009b20 <__aeabi_dmul+0x19c>
20009b7c:	ea81 0103 	eor.w	r1, r1, r3
20009b80:	f001 4100 	and.w	r1, r1, #2147483648	; 0x80000000
20009b84:	f04f 0000 	mov.w	r0, #0
20009b88:	bd70      	pop	{r4, r5, r6, pc}
20009b8a:	ea50 0641 	orrs.w	r6, r0, r1, lsl #1
20009b8e:	bf06      	itte	eq
20009b90:	4610      	moveq	r0, r2
20009b92:	4619      	moveq	r1, r3
20009b94:	ea52 0643 	orrsne.w	r6, r2, r3, lsl #1
20009b98:	d019      	beq.n	20009bce <__aeabi_dmul+0x24a>
20009b9a:	ea94 0f0c 	teq	r4, ip
20009b9e:	d102      	bne.n	20009ba6 <__aeabi_dmul+0x222>
20009ba0:	ea50 3601 	orrs.w	r6, r0, r1, lsl #12
20009ba4:	d113      	bne.n	20009bce <__aeabi_dmul+0x24a>
20009ba6:	ea95 0f0c 	teq	r5, ip
20009baa:	d105      	bne.n	20009bb8 <__aeabi_dmul+0x234>
20009bac:	ea52 3603 	orrs.w	r6, r2, r3, lsl #12
20009bb0:	bf1c      	itt	ne
20009bb2:	4610      	movne	r0, r2
20009bb4:	4619      	movne	r1, r3
20009bb6:	d10a      	bne.n	20009bce <__aeabi_dmul+0x24a>
20009bb8:	ea81 0103 	eor.w	r1, r1, r3
20009bbc:	f001 4100 	and.w	r1, r1, #2147483648	; 0x80000000
20009bc0:	f041 41fe 	orr.w	r1, r1, #2130706432	; 0x7f000000
20009bc4:	f441 0170 	orr.w	r1, r1, #15728640	; 0xf00000
20009bc8:	f04f 0000 	mov.w	r0, #0
20009bcc:	bd70      	pop	{r4, r5, r6, pc}
20009bce:	f041 41fe 	orr.w	r1, r1, #2130706432	; 0x7f000000
20009bd2:	f441 0178 	orr.w	r1, r1, #16252928	; 0xf80000
20009bd6:	bd70      	pop	{r4, r5, r6, pc}

20009bd8 <__aeabi_ddiv>:
20009bd8:	b570      	push	{r4, r5, r6, lr}
20009bda:	f04f 0cff 	mov.w	ip, #255	; 0xff
20009bde:	f44c 6ce0 	orr.w	ip, ip, #1792	; 0x700
20009be2:	ea1c 5411 	ands.w	r4, ip, r1, lsr #20
20009be6:	bf1d      	ittte	ne
20009be8:	ea1c 5513 	andsne.w	r5, ip, r3, lsr #20
20009bec:	ea94 0f0c 	teqne	r4, ip
20009bf0:	ea95 0f0c 	teqne	r5, ip
20009bf4:	f000 f8a7 	bleq	20009d46 <__aeabi_ddiv+0x16e>
20009bf8:	eba4 0405 	sub.w	r4, r4, r5
20009bfc:	ea81 0e03 	eor.w	lr, r1, r3
20009c00:	ea52 3503 	orrs.w	r5, r2, r3, lsl #12
20009c04:	ea4f 3101 	mov.w	r1, r1, lsl #12
20009c08:	f000 8088 	beq.w	20009d1c <__aeabi_ddiv+0x144>
20009c0c:	ea4f 3303 	mov.w	r3, r3, lsl #12
20009c10:	f04f 5580 	mov.w	r5, #268435456	; 0x10000000
20009c14:	ea45 1313 	orr.w	r3, r5, r3, lsr #4
20009c18:	ea43 6312 	orr.w	r3, r3, r2, lsr #24
20009c1c:	ea4f 2202 	mov.w	r2, r2, lsl #8
20009c20:	ea45 1511 	orr.w	r5, r5, r1, lsr #4
20009c24:	ea45 6510 	orr.w	r5, r5, r0, lsr #24
20009c28:	ea4f 2600 	mov.w	r6, r0, lsl #8
20009c2c:	f00e 4100 	and.w	r1, lr, #2147483648	; 0x80000000
20009c30:	429d      	cmp	r5, r3
20009c32:	bf08      	it	eq
20009c34:	4296      	cmpeq	r6, r2
20009c36:	f144 04fd 	adc.w	r4, r4, #253	; 0xfd
20009c3a:	f504 7440 	add.w	r4, r4, #768	; 0x300
20009c3e:	d202      	bcs.n	20009c46 <__aeabi_ddiv+0x6e>
20009c40:	085b      	lsrs	r3, r3, #1
20009c42:	ea4f 0232 	mov.w	r2, r2, rrx
20009c46:	1ab6      	subs	r6, r6, r2
20009c48:	eb65 0503 	sbc.w	r5, r5, r3
20009c4c:	085b      	lsrs	r3, r3, #1
20009c4e:	ea4f 0232 	mov.w	r2, r2, rrx
20009c52:	f44f 1080 	mov.w	r0, #1048576	; 0x100000
20009c56:	f44f 2c00 	mov.w	ip, #524288	; 0x80000
20009c5a:	ebb6 0e02 	subs.w	lr, r6, r2
20009c5e:	eb75 0e03 	sbcs.w	lr, r5, r3
20009c62:	bf22      	ittt	cs
20009c64:	1ab6      	subcs	r6, r6, r2
20009c66:	4675      	movcs	r5, lr
20009c68:	ea40 000c 	orrcs.w	r0, r0, ip
20009c6c:	085b      	lsrs	r3, r3, #1
20009c6e:	ea4f 0232 	mov.w	r2, r2, rrx
20009c72:	ebb6 0e02 	subs.w	lr, r6, r2
20009c76:	eb75 0e03 	sbcs.w	lr, r5, r3
20009c7a:	bf22      	ittt	cs
20009c7c:	1ab6      	subcs	r6, r6, r2
20009c7e:	4675      	movcs	r5, lr
20009c80:	ea40 005c 	orrcs.w	r0, r0, ip, lsr #1
20009c84:	085b      	lsrs	r3, r3, #1
20009c86:	ea4f 0232 	mov.w	r2, r2, rrx
20009c8a:	ebb6 0e02 	subs.w	lr, r6, r2
20009c8e:	eb75 0e03 	sbcs.w	lr, r5, r3
20009c92:	bf22      	ittt	cs
20009c94:	1ab6      	subcs	r6, r6, r2
20009c96:	4675      	movcs	r5, lr
20009c98:	ea40 009c 	orrcs.w	r0, r0, ip, lsr #2
20009c9c:	085b      	lsrs	r3, r3, #1
20009c9e:	ea4f 0232 	mov.w	r2, r2, rrx
20009ca2:	ebb6 0e02 	subs.w	lr, r6, r2
20009ca6:	eb75 0e03 	sbcs.w	lr, r5, r3
20009caa:	bf22      	ittt	cs
20009cac:	1ab6      	subcs	r6, r6, r2
20009cae:	4675      	movcs	r5, lr
20009cb0:	ea40 00dc 	orrcs.w	r0, r0, ip, lsr #3
20009cb4:	ea55 0e06 	orrs.w	lr, r5, r6
20009cb8:	d018      	beq.n	20009cec <__aeabi_ddiv+0x114>
20009cba:	ea4f 1505 	mov.w	r5, r5, lsl #4
20009cbe:	ea45 7516 	orr.w	r5, r5, r6, lsr #28
20009cc2:	ea4f 1606 	mov.w	r6, r6, lsl #4
20009cc6:	ea4f 03c3 	mov.w	r3, r3, lsl #3
20009cca:	ea43 7352 	orr.w	r3, r3, r2, lsr #29
20009cce:	ea4f 02c2 	mov.w	r2, r2, lsl #3
20009cd2:	ea5f 1c1c 	movs.w	ip, ip, lsr #4
20009cd6:	d1c0      	bne.n	20009c5a <__aeabi_ddiv+0x82>
20009cd8:	f411 1f80 	tst.w	r1, #1048576	; 0x100000
20009cdc:	d10b      	bne.n	20009cf6 <__aeabi_ddiv+0x11e>
20009cde:	ea41 0100 	orr.w	r1, r1, r0
20009ce2:	f04f 0000 	mov.w	r0, #0
20009ce6:	f04f 4c00 	mov.w	ip, #2147483648	; 0x80000000
20009cea:	e7b6      	b.n	20009c5a <__aeabi_ddiv+0x82>
20009cec:	f411 1f80 	tst.w	r1, #1048576	; 0x100000
20009cf0:	bf04      	itt	eq
20009cf2:	4301      	orreq	r1, r0
20009cf4:	2000      	moveq	r0, #0
20009cf6:	f1b4 0cfd 	subs.w	ip, r4, #253	; 0xfd
20009cfa:	bf88      	it	hi
20009cfc:	f5bc 6fe0 	cmphi.w	ip, #1792	; 0x700
20009d00:	f63f aeaf 	bhi.w	20009a62 <__aeabi_dmul+0xde>
20009d04:	ebb5 0c03 	subs.w	ip, r5, r3
20009d08:	bf04      	itt	eq
20009d0a:	ebb6 0c02 	subseq.w	ip, r6, r2
20009d0e:	ea5f 0c50 	movseq.w	ip, r0, lsr #1
20009d12:	f150 0000 	adcs.w	r0, r0, #0
20009d16:	eb41 5104 	adc.w	r1, r1, r4, lsl #20
20009d1a:	bd70      	pop	{r4, r5, r6, pc}
20009d1c:	f00e 4e00 	and.w	lr, lr, #2147483648	; 0x80000000
20009d20:	ea4e 3111 	orr.w	r1, lr, r1, lsr #12
20009d24:	eb14 045c 	adds.w	r4, r4, ip, lsr #1
20009d28:	bfc2      	ittt	gt
20009d2a:	ebd4 050c 	rsbsgt	r5, r4, ip
20009d2e:	ea41 5104 	orrgt.w	r1, r1, r4, lsl #20
20009d32:	bd70      	popgt	{r4, r5, r6, pc}
20009d34:	f441 1180 	orr.w	r1, r1, #1048576	; 0x100000
20009d38:	f04f 0e00 	mov.w	lr, #0
20009d3c:	3c01      	subs	r4, #1
20009d3e:	e690      	b.n	20009a62 <__aeabi_dmul+0xde>
20009d40:	ea45 0e06 	orr.w	lr, r5, r6
20009d44:	e68d      	b.n	20009a62 <__aeabi_dmul+0xde>
20009d46:	ea0c 5513 	and.w	r5, ip, r3, lsr #20
20009d4a:	ea94 0f0c 	teq	r4, ip
20009d4e:	bf08      	it	eq
20009d50:	ea95 0f0c 	teqeq	r5, ip
20009d54:	f43f af3b 	beq.w	20009bce <__aeabi_dmul+0x24a>
20009d58:	ea94 0f0c 	teq	r4, ip
20009d5c:	d10a      	bne.n	20009d74 <__aeabi_ddiv+0x19c>
20009d5e:	ea50 3401 	orrs.w	r4, r0, r1, lsl #12
20009d62:	f47f af34 	bne.w	20009bce <__aeabi_dmul+0x24a>
20009d66:	ea95 0f0c 	teq	r5, ip
20009d6a:	f47f af25 	bne.w	20009bb8 <__aeabi_dmul+0x234>
20009d6e:	4610      	mov	r0, r2
20009d70:	4619      	mov	r1, r3
20009d72:	e72c      	b.n	20009bce <__aeabi_dmul+0x24a>
20009d74:	ea95 0f0c 	teq	r5, ip
20009d78:	d106      	bne.n	20009d88 <__aeabi_ddiv+0x1b0>
20009d7a:	ea52 3503 	orrs.w	r5, r2, r3, lsl #12
20009d7e:	f43f aefd 	beq.w	20009b7c <__aeabi_dmul+0x1f8>
20009d82:	4610      	mov	r0, r2
20009d84:	4619      	mov	r1, r3
20009d86:	e722      	b.n	20009bce <__aeabi_dmul+0x24a>
20009d88:	ea50 0641 	orrs.w	r6, r0, r1, lsl #1
20009d8c:	bf18      	it	ne
20009d8e:	ea52 0643 	orrsne.w	r6, r2, r3, lsl #1
20009d92:	f47f aec5 	bne.w	20009b20 <__aeabi_dmul+0x19c>
20009d96:	ea50 0441 	orrs.w	r4, r0, r1, lsl #1
20009d9a:	f47f af0d 	bne.w	20009bb8 <__aeabi_dmul+0x234>
20009d9e:	ea52 0543 	orrs.w	r5, r2, r3, lsl #1
20009da2:	f47f aeeb 	bne.w	20009b7c <__aeabi_dmul+0x1f8>
20009da6:	e712      	b.n	20009bce <__aeabi_dmul+0x24a>

20009da8 <__gedf2>:
20009da8:	f04f 3cff 	mov.w	ip, #4294967295
20009dac:	e006      	b.n	20009dbc <__cmpdf2+0x4>
20009dae:	bf00      	nop

20009db0 <__ledf2>:
20009db0:	f04f 0c01 	mov.w	ip, #1
20009db4:	e002      	b.n	20009dbc <__cmpdf2+0x4>
20009db6:	bf00      	nop

20009db8 <__cmpdf2>:
20009db8:	f04f 0c01 	mov.w	ip, #1
20009dbc:	f84d cd04 	str.w	ip, [sp, #-4]!
20009dc0:	ea4f 0c41 	mov.w	ip, r1, lsl #1
20009dc4:	ea7f 5c6c 	mvns.w	ip, ip, asr #21
20009dc8:	ea4f 0c43 	mov.w	ip, r3, lsl #1
20009dcc:	bf18      	it	ne
20009dce:	ea7f 5c6c 	mvnsne.w	ip, ip, asr #21
20009dd2:	d01b      	beq.n	20009e0c <__cmpdf2+0x54>
20009dd4:	b001      	add	sp, #4
20009dd6:	ea50 0c41 	orrs.w	ip, r0, r1, lsl #1
20009dda:	bf0c      	ite	eq
20009ddc:	ea52 0c43 	orrseq.w	ip, r2, r3, lsl #1
20009de0:	ea91 0f03 	teqne	r1, r3
20009de4:	bf02      	ittt	eq
20009de6:	ea90 0f02 	teqeq	r0, r2
20009dea:	2000      	moveq	r0, #0
20009dec:	4770      	bxeq	lr
20009dee:	f110 0f00 	cmn.w	r0, #0
20009df2:	ea91 0f03 	teq	r1, r3
20009df6:	bf58      	it	pl
20009df8:	4299      	cmppl	r1, r3
20009dfa:	bf08      	it	eq
20009dfc:	4290      	cmpeq	r0, r2
20009dfe:	bf2c      	ite	cs
20009e00:	17d8      	asrcs	r0, r3, #31
20009e02:	ea6f 70e3 	mvncc.w	r0, r3, asr #31
20009e06:	f040 0001 	orr.w	r0, r0, #1
20009e0a:	4770      	bx	lr
20009e0c:	ea4f 0c41 	mov.w	ip, r1, lsl #1
20009e10:	ea7f 5c6c 	mvns.w	ip, ip, asr #21
20009e14:	d102      	bne.n	20009e1c <__cmpdf2+0x64>
20009e16:	ea50 3c01 	orrs.w	ip, r0, r1, lsl #12
20009e1a:	d107      	bne.n	20009e2c <__cmpdf2+0x74>
20009e1c:	ea4f 0c43 	mov.w	ip, r3, lsl #1
20009e20:	ea7f 5c6c 	mvns.w	ip, ip, asr #21
20009e24:	d1d6      	bne.n	20009dd4 <__cmpdf2+0x1c>
20009e26:	ea52 3c03 	orrs.w	ip, r2, r3, lsl #12
20009e2a:	d0d3      	beq.n	20009dd4 <__cmpdf2+0x1c>
20009e2c:	f85d 0b04 	ldr.w	r0, [sp], #4
20009e30:	4770      	bx	lr
20009e32:	bf00      	nop

20009e34 <__aeabi_cdrcmple>:
20009e34:	4684      	mov	ip, r0
20009e36:	4610      	mov	r0, r2
20009e38:	4662      	mov	r2, ip
20009e3a:	468c      	mov	ip, r1
20009e3c:	4619      	mov	r1, r3
20009e3e:	4663      	mov	r3, ip
20009e40:	e000      	b.n	20009e44 <__aeabi_cdcmpeq>
20009e42:	bf00      	nop

20009e44 <__aeabi_cdcmpeq>:
20009e44:	b501      	push	{r0, lr}
20009e46:	f7ff ffb7 	bl	20009db8 <__cmpdf2>
20009e4a:	2800      	cmp	r0, #0
20009e4c:	bf48      	it	mi
20009e4e:	f110 0f00 	cmnmi.w	r0, #0
20009e52:	bd01      	pop	{r0, pc}

20009e54 <__aeabi_dcmpeq>:
20009e54:	f84d ed08 	str.w	lr, [sp, #-8]!
20009e58:	f7ff fff4 	bl	20009e44 <__aeabi_cdcmpeq>
20009e5c:	bf0c      	ite	eq
20009e5e:	2001      	moveq	r0, #1
20009e60:	2000      	movne	r0, #0
20009e62:	f85d fb08 	ldr.w	pc, [sp], #8
20009e66:	bf00      	nop

20009e68 <__aeabi_dcmplt>:
20009e68:	f84d ed08 	str.w	lr, [sp, #-8]!
20009e6c:	f7ff ffea 	bl	20009e44 <__aeabi_cdcmpeq>
20009e70:	bf34      	ite	cc
20009e72:	2001      	movcc	r0, #1
20009e74:	2000      	movcs	r0, #0
20009e76:	f85d fb08 	ldr.w	pc, [sp], #8
20009e7a:	bf00      	nop

20009e7c <__aeabi_dcmple>:
20009e7c:	f84d ed08 	str.w	lr, [sp, #-8]!
20009e80:	f7ff ffe0 	bl	20009e44 <__aeabi_cdcmpeq>
20009e84:	bf94      	ite	ls
20009e86:	2001      	movls	r0, #1
20009e88:	2000      	movhi	r0, #0
20009e8a:	f85d fb08 	ldr.w	pc, [sp], #8
20009e8e:	bf00      	nop

20009e90 <__aeabi_dcmpge>:
20009e90:	f84d ed08 	str.w	lr, [sp, #-8]!
20009e94:	f7ff ffce 	bl	20009e34 <__aeabi_cdrcmple>
20009e98:	bf94      	ite	ls
20009e9a:	2001      	movls	r0, #1
20009e9c:	2000      	movhi	r0, #0
20009e9e:	f85d fb08 	ldr.w	pc, [sp], #8
20009ea2:	bf00      	nop

20009ea4 <__aeabi_dcmpgt>:
20009ea4:	f84d ed08 	str.w	lr, [sp, #-8]!
20009ea8:	f7ff ffc4 	bl	20009e34 <__aeabi_cdrcmple>
20009eac:	bf34      	ite	cc
20009eae:	2001      	movcc	r0, #1
20009eb0:	2000      	movcs	r0, #0
20009eb2:	f85d fb08 	ldr.w	pc, [sp], #8
20009eb6:	bf00      	nop

20009eb8 <__aeabi_d2iz>:
20009eb8:	ea4f 0241 	mov.w	r2, r1, lsl #1
20009ebc:	f512 1200 	adds.w	r2, r2, #2097152	; 0x200000
20009ec0:	d215      	bcs.n	20009eee <__aeabi_d2iz+0x36>
20009ec2:	d511      	bpl.n	20009ee8 <__aeabi_d2iz+0x30>
20009ec4:	f46f 7378 	mvn.w	r3, #992	; 0x3e0
20009ec8:	ebb3 5262 	subs.w	r2, r3, r2, asr #21
20009ecc:	d912      	bls.n	20009ef4 <__aeabi_d2iz+0x3c>
20009ece:	ea4f 23c1 	mov.w	r3, r1, lsl #11
20009ed2:	f043 4300 	orr.w	r3, r3, #2147483648	; 0x80000000
20009ed6:	ea43 5350 	orr.w	r3, r3, r0, lsr #21
20009eda:	f011 4f00 	tst.w	r1, #2147483648	; 0x80000000
20009ede:	fa23 f002 	lsr.w	r0, r3, r2
20009ee2:	bf18      	it	ne
20009ee4:	4240      	negne	r0, r0
20009ee6:	4770      	bx	lr
20009ee8:	f04f 0000 	mov.w	r0, #0
20009eec:	4770      	bx	lr
20009eee:	ea50 3001 	orrs.w	r0, r0, r1, lsl #12
20009ef2:	d105      	bne.n	20009f00 <__aeabi_d2iz+0x48>
20009ef4:	f011 4000 	ands.w	r0, r1, #2147483648	; 0x80000000
20009ef8:	bf08      	it	eq
20009efa:	f06f 4000 	mvneq.w	r0, #2147483648	; 0x80000000
20009efe:	4770      	bx	lr
20009f00:	f04f 0000 	mov.w	r0, #0
20009f04:	4770      	bx	lr
20009f06:	bf00      	nop

20009f08 <__aeabi_d2uiz>:
20009f08:	004a      	lsls	r2, r1, #1
20009f0a:	d211      	bcs.n	20009f30 <__aeabi_d2uiz+0x28>
20009f0c:	f512 1200 	adds.w	r2, r2, #2097152	; 0x200000
20009f10:	d211      	bcs.n	20009f36 <__aeabi_d2uiz+0x2e>
20009f12:	d50d      	bpl.n	20009f30 <__aeabi_d2uiz+0x28>
20009f14:	f46f 7378 	mvn.w	r3, #992	; 0x3e0
20009f18:	ebb3 5262 	subs.w	r2, r3, r2, asr #21
20009f1c:	d40e      	bmi.n	20009f3c <__aeabi_d2uiz+0x34>
20009f1e:	ea4f 23c1 	mov.w	r3, r1, lsl #11
20009f22:	f043 4300 	orr.w	r3, r3, #2147483648	; 0x80000000
20009f26:	ea43 5350 	orr.w	r3, r3, r0, lsr #21
20009f2a:	fa23 f002 	lsr.w	r0, r3, r2
20009f2e:	4770      	bx	lr
20009f30:	f04f 0000 	mov.w	r0, #0
20009f34:	4770      	bx	lr
20009f36:	ea50 3001 	orrs.w	r0, r0, r1, lsl #12
20009f3a:	d102      	bne.n	20009f42 <__aeabi_d2uiz+0x3a>
20009f3c:	f04f 30ff 	mov.w	r0, #4294967295
20009f40:	4770      	bx	lr
20009f42:	f04f 0000 	mov.w	r0, #0
20009f46:	4770      	bx	lr

20009f48 <__aeabi_d2f>:
20009f48:	ea4f 0241 	mov.w	r2, r1, lsl #1
20009f4c:	f1b2 43e0 	subs.w	r3, r2, #1879048192	; 0x70000000
20009f50:	bf24      	itt	cs
20009f52:	f5b3 1c00 	subscs.w	ip, r3, #2097152	; 0x200000
20009f56:	f1dc 5cfe 	rsbscs	ip, ip, #532676608	; 0x1fc00000
20009f5a:	d90d      	bls.n	20009f78 <__aeabi_d2f+0x30>
20009f5c:	f001 4c00 	and.w	ip, r1, #2147483648	; 0x80000000
20009f60:	ea4f 02c0 	mov.w	r2, r0, lsl #3
20009f64:	ea4c 7050 	orr.w	r0, ip, r0, lsr #29
20009f68:	f1b2 4f00 	cmp.w	r2, #2147483648	; 0x80000000
20009f6c:	eb40 0083 	adc.w	r0, r0, r3, lsl #2
20009f70:	bf08      	it	eq
20009f72:	f020 0001 	biceq.w	r0, r0, #1
20009f76:	4770      	bx	lr
20009f78:	f011 4f80 	tst.w	r1, #1073741824	; 0x40000000
20009f7c:	d121      	bne.n	20009fc2 <__aeabi_d2f+0x7a>
20009f7e:	f113 7238 	adds.w	r2, r3, #48234496	; 0x2e00000
20009f82:	bfbc      	itt	lt
20009f84:	f001 4000 	andlt.w	r0, r1, #2147483648	; 0x80000000
20009f88:	4770      	bxlt	lr
20009f8a:	f441 1180 	orr.w	r1, r1, #1048576	; 0x100000
20009f8e:	ea4f 5252 	mov.w	r2, r2, lsr #21
20009f92:	f1c2 0218 	rsb	r2, r2, #24
20009f96:	f1c2 0c20 	rsb	ip, r2, #32
20009f9a:	fa10 f30c 	lsls.w	r3, r0, ip
20009f9e:	fa20 f002 	lsr.w	r0, r0, r2
20009fa2:	bf18      	it	ne
20009fa4:	f040 0001 	orrne.w	r0, r0, #1
20009fa8:	ea4f 23c1 	mov.w	r3, r1, lsl #11
20009fac:	ea4f 23d3 	mov.w	r3, r3, lsr #11
20009fb0:	fa03 fc0c 	lsl.w	ip, r3, ip
20009fb4:	ea40 000c 	orr.w	r0, r0, ip
20009fb8:	fa23 f302 	lsr.w	r3, r3, r2
20009fbc:	ea4f 0343 	mov.w	r3, r3, lsl #1
20009fc0:	e7cc      	b.n	20009f5c <__aeabi_d2f+0x14>
20009fc2:	ea7f 5362 	mvns.w	r3, r2, asr #21
20009fc6:	d107      	bne.n	20009fd8 <__aeabi_d2f+0x90>
20009fc8:	ea50 3301 	orrs.w	r3, r0, r1, lsl #12
20009fcc:	bf1e      	ittt	ne
20009fce:	f04f 40fe 	movne.w	r0, #2130706432	; 0x7f000000
20009fd2:	f440 0040 	orrne.w	r0, r0, #12582912	; 0xc00000
20009fd6:	4770      	bxne	lr
20009fd8:	f001 4000 	and.w	r0, r1, #2147483648	; 0x80000000
20009fdc:	f040 40fe 	orr.w	r0, r0, #2130706432	; 0x7f000000
20009fe0:	f440 0000 	orr.w	r0, r0, #8388608	; 0x800000
20009fe4:	4770      	bx	lr
20009fe6:	bf00      	nop

20009fe8 <__gesf2>:
20009fe8:	f04f 3cff 	mov.w	ip, #4294967295
20009fec:	e006      	b.n	20009ffc <__cmpsf2+0x4>
20009fee:	bf00      	nop

20009ff0 <__lesf2>:
20009ff0:	f04f 0c01 	mov.w	ip, #1
20009ff4:	e002      	b.n	20009ffc <__cmpsf2+0x4>
20009ff6:	bf00      	nop

20009ff8 <__cmpsf2>:
20009ff8:	f04f 0c01 	mov.w	ip, #1
20009ffc:	f84d cd04 	str.w	ip, [sp, #-4]!
2000a000:	ea4f 0240 	mov.w	r2, r0, lsl #1
2000a004:	ea4f 0341 	mov.w	r3, r1, lsl #1
2000a008:	ea7f 6c22 	mvns.w	ip, r2, asr #24
2000a00c:	bf18      	it	ne
2000a00e:	ea7f 6c23 	mvnsne.w	ip, r3, asr #24
2000a012:	d011      	beq.n	2000a038 <__cmpsf2+0x40>
2000a014:	b001      	add	sp, #4
2000a016:	ea52 0c53 	orrs.w	ip, r2, r3, lsr #1
2000a01a:	bf18      	it	ne
2000a01c:	ea90 0f01 	teqne	r0, r1
2000a020:	bf58      	it	pl
2000a022:	ebb2 0003 	subspl.w	r0, r2, r3
2000a026:	bf88      	it	hi
2000a028:	17c8      	asrhi	r0, r1, #31
2000a02a:	bf38      	it	cc
2000a02c:	ea6f 70e1 	mvncc.w	r0, r1, asr #31
2000a030:	bf18      	it	ne
2000a032:	f040 0001 	orrne.w	r0, r0, #1
2000a036:	4770      	bx	lr
2000a038:	ea7f 6c22 	mvns.w	ip, r2, asr #24
2000a03c:	d102      	bne.n	2000a044 <__cmpsf2+0x4c>
2000a03e:	ea5f 2c40 	movs.w	ip, r0, lsl #9
2000a042:	d105      	bne.n	2000a050 <__cmpsf2+0x58>
2000a044:	ea7f 6c23 	mvns.w	ip, r3, asr #24
2000a048:	d1e4      	bne.n	2000a014 <__cmpsf2+0x1c>
2000a04a:	ea5f 2c41 	movs.w	ip, r1, lsl #9
2000a04e:	d0e1      	beq.n	2000a014 <__cmpsf2+0x1c>
2000a050:	f85d 0b04 	ldr.w	r0, [sp], #4
2000a054:	4770      	bx	lr
2000a056:	bf00      	nop

2000a058 <__aeabi_cfrcmple>:
2000a058:	4684      	mov	ip, r0
2000a05a:	4608      	mov	r0, r1
2000a05c:	4661      	mov	r1, ip
2000a05e:	e7ff      	b.n	2000a060 <__aeabi_cfcmpeq>

2000a060 <__aeabi_cfcmpeq>:
2000a060:	b50f      	push	{r0, r1, r2, r3, lr}
2000a062:	f7ff ffc9 	bl	20009ff8 <__cmpsf2>
2000a066:	2800      	cmp	r0, #0
2000a068:	bf48      	it	mi
2000a06a:	f110 0f00 	cmnmi.w	r0, #0
2000a06e:	bd0f      	pop	{r0, r1, r2, r3, pc}

2000a070 <__aeabi_fcmpeq>:
2000a070:	f84d ed08 	str.w	lr, [sp, #-8]!
2000a074:	f7ff fff4 	bl	2000a060 <__aeabi_cfcmpeq>
2000a078:	bf0c      	ite	eq
2000a07a:	2001      	moveq	r0, #1
2000a07c:	2000      	movne	r0, #0
2000a07e:	f85d fb08 	ldr.w	pc, [sp], #8
2000a082:	bf00      	nop

2000a084 <__aeabi_fcmplt>:
2000a084:	f84d ed08 	str.w	lr, [sp, #-8]!
2000a088:	f7ff ffea 	bl	2000a060 <__aeabi_cfcmpeq>
2000a08c:	bf34      	ite	cc
2000a08e:	2001      	movcc	r0, #1
2000a090:	2000      	movcs	r0, #0
2000a092:	f85d fb08 	ldr.w	pc, [sp], #8
2000a096:	bf00      	nop

2000a098 <__aeabi_fcmple>:
2000a098:	f84d ed08 	str.w	lr, [sp, #-8]!
2000a09c:	f7ff ffe0 	bl	2000a060 <__aeabi_cfcmpeq>
2000a0a0:	bf94      	ite	ls
2000a0a2:	2001      	movls	r0, #1
2000a0a4:	2000      	movhi	r0, #0
2000a0a6:	f85d fb08 	ldr.w	pc, [sp], #8
2000a0aa:	bf00      	nop

2000a0ac <__aeabi_fcmpge>:
2000a0ac:	f84d ed08 	str.w	lr, [sp, #-8]!
2000a0b0:	f7ff ffd2 	bl	2000a058 <__aeabi_cfrcmple>
2000a0b4:	bf94      	ite	ls
2000a0b6:	2001      	movls	r0, #1
2000a0b8:	2000      	movhi	r0, #0
2000a0ba:	f85d fb08 	ldr.w	pc, [sp], #8
2000a0be:	bf00      	nop

2000a0c0 <__aeabi_fcmpgt>:
2000a0c0:	f84d ed08 	str.w	lr, [sp, #-8]!
2000a0c4:	f7ff ffc8 	bl	2000a058 <__aeabi_cfrcmple>
2000a0c8:	bf34      	ite	cc
2000a0ca:	2001      	movcc	r0, #1
2000a0cc:	2000      	movcs	r0, #0
2000a0ce:	f85d fb08 	ldr.w	pc, [sp], #8
2000a0d2:	bf00      	nop

2000a0d4 <__aeabi_uldivmod>:
2000a0d4:	b94b      	cbnz	r3, 2000a0ea <__aeabi_uldivmod+0x16>
2000a0d6:	b942      	cbnz	r2, 2000a0ea <__aeabi_uldivmod+0x16>
2000a0d8:	2900      	cmp	r1, #0
2000a0da:	bf08      	it	eq
2000a0dc:	2800      	cmpeq	r0, #0
2000a0de:	d002      	beq.n	2000a0e6 <__aeabi_uldivmod+0x12>
2000a0e0:	f04f 31ff 	mov.w	r1, #4294967295
2000a0e4:	4608      	mov	r0, r1
2000a0e6:	f7ff ba93 	b.w	20009610 <__aeabi_idiv0>
2000a0ea:	b082      	sub	sp, #8
2000a0ec:	46ec      	mov	ip, sp
2000a0ee:	e92d 5000 	stmdb	sp!, {ip, lr}
2000a0f2:	f000 f805 	bl	2000a100 <__gnu_uldivmod_helper>
2000a0f6:	f8dd e004 	ldr.w	lr, [sp, #4]
2000a0fa:	b002      	add	sp, #8
2000a0fc:	bc0c      	pop	{r2, r3}
2000a0fe:	4770      	bx	lr

2000a100 <__gnu_uldivmod_helper>:
2000a100:	b5f8      	push	{r3, r4, r5, r6, r7, lr}
2000a102:	4614      	mov	r4, r2
2000a104:	461d      	mov	r5, r3
2000a106:	4606      	mov	r6, r0
2000a108:	460f      	mov	r7, r1
2000a10a:	f000 f9d7 	bl	2000a4bc <__udivdi3>
2000a10e:	fb00 f505 	mul.w	r5, r0, r5
2000a112:	fba0 2304 	umull	r2, r3, r0, r4
2000a116:	fb04 5401 	mla	r4, r4, r1, r5
2000a11a:	18e3      	adds	r3, r4, r3
2000a11c:	1ab6      	subs	r6, r6, r2
2000a11e:	eb67 0703 	sbc.w	r7, r7, r3
2000a122:	9b06      	ldr	r3, [sp, #24]
2000a124:	e9c3 6700 	strd	r6, r7, [r3]
2000a128:	bdf8      	pop	{r3, r4, r5, r6, r7, pc}
2000a12a:	bf00      	nop

2000a12c <__gnu_ldivmod_helper>:
2000a12c:	b5f8      	push	{r3, r4, r5, r6, r7, lr}
2000a12e:	4614      	mov	r4, r2
2000a130:	461d      	mov	r5, r3
2000a132:	4606      	mov	r6, r0
2000a134:	460f      	mov	r7, r1
2000a136:	f000 f80f 	bl	2000a158 <__divdi3>
2000a13a:	fb00 f505 	mul.w	r5, r0, r5
2000a13e:	fba0 2304 	umull	r2, r3, r0, r4
2000a142:	fb04 5401 	mla	r4, r4, r1, r5
2000a146:	18e3      	adds	r3, r4, r3
2000a148:	1ab6      	subs	r6, r6, r2
2000a14a:	eb67 0703 	sbc.w	r7, r7, r3
2000a14e:	9b06      	ldr	r3, [sp, #24]
2000a150:	e9c3 6700 	strd	r6, r7, [r3]
2000a154:	bdf8      	pop	{r3, r4, r5, r6, r7, pc}
2000a156:	bf00      	nop

2000a158 <__divdi3>:
2000a158:	2900      	cmp	r1, #0
2000a15a:	e92d 4ff0 	stmdb	sp!, {r4, r5, r6, r7, r8, r9, sl, fp, lr}
2000a15e:	b085      	sub	sp, #20
2000a160:	f2c0 80c8 	blt.w	2000a2f4 <__divdi3+0x19c>
2000a164:	2600      	movs	r6, #0
2000a166:	2b00      	cmp	r3, #0
2000a168:	f2c0 80bf 	blt.w	2000a2ea <__divdi3+0x192>
2000a16c:	4689      	mov	r9, r1
2000a16e:	4614      	mov	r4, r2
2000a170:	4605      	mov	r5, r0
2000a172:	469b      	mov	fp, r3
2000a174:	2b00      	cmp	r3, #0
2000a176:	d14a      	bne.n	2000a20e <__divdi3+0xb6>
2000a178:	428a      	cmp	r2, r1
2000a17a:	d957      	bls.n	2000a22c <__divdi3+0xd4>
2000a17c:	fab2 f382 	clz	r3, r2
2000a180:	b153      	cbz	r3, 2000a198 <__divdi3+0x40>
2000a182:	f1c3 0020 	rsb	r0, r3, #32
2000a186:	fa01 f903 	lsl.w	r9, r1, r3
2000a18a:	fa25 f800 	lsr.w	r8, r5, r0
2000a18e:	fa12 f403 	lsls.w	r4, r2, r3
2000a192:	409d      	lsls	r5, r3
2000a194:	ea48 0909 	orr.w	r9, r8, r9
2000a198:	0c27      	lsrs	r7, r4, #16
2000a19a:	4648      	mov	r0, r9
2000a19c:	4639      	mov	r1, r7
2000a19e:	fa1f fb84 	uxth.w	fp, r4
2000a1a2:	f7ff f8f9 	bl	20009398 <__aeabi_uidiv>
2000a1a6:	4639      	mov	r1, r7
2000a1a8:	4682      	mov	sl, r0
2000a1aa:	4648      	mov	r0, r9
2000a1ac:	f7ff fa22 	bl	200095f4 <__aeabi_uidivmod>
2000a1b0:	0c2a      	lsrs	r2, r5, #16
2000a1b2:	fb0b f30a 	mul.w	r3, fp, sl
2000a1b6:	ea42 4901 	orr.w	r9, r2, r1, lsl #16
2000a1ba:	454b      	cmp	r3, r9
2000a1bc:	d909      	bls.n	2000a1d2 <__divdi3+0x7a>
2000a1be:	eb19 0904 	adds.w	r9, r9, r4
2000a1c2:	f10a 3aff 	add.w	sl, sl, #4294967295
2000a1c6:	d204      	bcs.n	2000a1d2 <__divdi3+0x7a>
2000a1c8:	454b      	cmp	r3, r9
2000a1ca:	bf84      	itt	hi
2000a1cc:	f10a 3aff 	addhi.w	sl, sl, #4294967295
2000a1d0:	44a1      	addhi	r9, r4
2000a1d2:	ebc3 0909 	rsb	r9, r3, r9
2000a1d6:	4639      	mov	r1, r7
2000a1d8:	4648      	mov	r0, r9
2000a1da:	b2ad      	uxth	r5, r5
2000a1dc:	f7ff f8dc 	bl	20009398 <__aeabi_uidiv>
2000a1e0:	4639      	mov	r1, r7
2000a1e2:	4680      	mov	r8, r0
2000a1e4:	4648      	mov	r0, r9
2000a1e6:	f7ff fa05 	bl	200095f4 <__aeabi_uidivmod>
2000a1ea:	fb0b fb08 	mul.w	fp, fp, r8
2000a1ee:	ea45 4501 	orr.w	r5, r5, r1, lsl #16
2000a1f2:	45ab      	cmp	fp, r5
2000a1f4:	d907      	bls.n	2000a206 <__divdi3+0xae>
2000a1f6:	192d      	adds	r5, r5, r4
2000a1f8:	f108 38ff 	add.w	r8, r8, #4294967295
2000a1fc:	d203      	bcs.n	2000a206 <__divdi3+0xae>
2000a1fe:	45ab      	cmp	fp, r5
2000a200:	bf88      	it	hi
2000a202:	f108 38ff 	addhi.w	r8, r8, #4294967295
2000a206:	ea48 480a 	orr.w	r8, r8, sl, lsl #16
2000a20a:	2700      	movs	r7, #0
2000a20c:	e003      	b.n	2000a216 <__divdi3+0xbe>
2000a20e:	428b      	cmp	r3, r1
2000a210:	d957      	bls.n	2000a2c2 <__divdi3+0x16a>
2000a212:	2700      	movs	r7, #0
2000a214:	46b8      	mov	r8, r7
2000a216:	4642      	mov	r2, r8
2000a218:	463b      	mov	r3, r7
2000a21a:	b116      	cbz	r6, 2000a222 <__divdi3+0xca>
2000a21c:	4252      	negs	r2, r2
2000a21e:	eb63 0343 	sbc.w	r3, r3, r3, lsl #1
2000a222:	4619      	mov	r1, r3
2000a224:	4610      	mov	r0, r2
2000a226:	b005      	add	sp, #20
2000a228:	e8bd 8ff0 	ldmia.w	sp!, {r4, r5, r6, r7, r8, r9, sl, fp, pc}
2000a22c:	b922      	cbnz	r2, 2000a238 <__divdi3+0xe0>
2000a22e:	4611      	mov	r1, r2
2000a230:	2001      	movs	r0, #1
2000a232:	f7ff f8b1 	bl	20009398 <__aeabi_uidiv>
2000a236:	4604      	mov	r4, r0
2000a238:	fab4 f884 	clz	r8, r4
2000a23c:	f1b8 0f00 	cmp.w	r8, #0
2000a240:	d15e      	bne.n	2000a300 <__divdi3+0x1a8>
2000a242:	ebc4 0809 	rsb	r8, r4, r9
2000a246:	0c27      	lsrs	r7, r4, #16
2000a248:	fa1f f984 	uxth.w	r9, r4
2000a24c:	2101      	movs	r1, #1
2000a24e:	9102      	str	r1, [sp, #8]
2000a250:	4639      	mov	r1, r7
2000a252:	4640      	mov	r0, r8
2000a254:	f7ff f8a0 	bl	20009398 <__aeabi_uidiv>
2000a258:	4639      	mov	r1, r7
2000a25a:	4682      	mov	sl, r0
2000a25c:	4640      	mov	r0, r8
2000a25e:	f7ff f9c9 	bl	200095f4 <__aeabi_uidivmod>
2000a262:	ea4f 4815 	mov.w	r8, r5, lsr #16
2000a266:	fb09 f30a 	mul.w	r3, r9, sl
2000a26a:	ea48 4b01 	orr.w	fp, r8, r1, lsl #16
2000a26e:	455b      	cmp	r3, fp
2000a270:	d909      	bls.n	2000a286 <__divdi3+0x12e>
2000a272:	eb1b 0b04 	adds.w	fp, fp, r4
2000a276:	f10a 3aff 	add.w	sl, sl, #4294967295
2000a27a:	d204      	bcs.n	2000a286 <__divdi3+0x12e>
2000a27c:	455b      	cmp	r3, fp
2000a27e:	bf84      	itt	hi
2000a280:	f10a 3aff 	addhi.w	sl, sl, #4294967295
2000a284:	44a3      	addhi	fp, r4
2000a286:	ebc3 0b0b 	rsb	fp, r3, fp
2000a28a:	4639      	mov	r1, r7
2000a28c:	4658      	mov	r0, fp
2000a28e:	b2ad      	uxth	r5, r5
2000a290:	f7ff f882 	bl	20009398 <__aeabi_uidiv>
2000a294:	4639      	mov	r1, r7
2000a296:	4680      	mov	r8, r0
2000a298:	4658      	mov	r0, fp
2000a29a:	f7ff f9ab 	bl	200095f4 <__aeabi_uidivmod>
2000a29e:	fb09 f908 	mul.w	r9, r9, r8
2000a2a2:	ea45 4501 	orr.w	r5, r5, r1, lsl #16
2000a2a6:	45a9      	cmp	r9, r5
2000a2a8:	d907      	bls.n	2000a2ba <__divdi3+0x162>
2000a2aa:	192d      	adds	r5, r5, r4
2000a2ac:	f108 38ff 	add.w	r8, r8, #4294967295
2000a2b0:	d203      	bcs.n	2000a2ba <__divdi3+0x162>
2000a2b2:	45a9      	cmp	r9, r5
2000a2b4:	bf88      	it	hi
2000a2b6:	f108 38ff 	addhi.w	r8, r8, #4294967295
2000a2ba:	ea48 480a 	orr.w	r8, r8, sl, lsl #16
2000a2be:	9f02      	ldr	r7, [sp, #8]
2000a2c0:	e7a9      	b.n	2000a216 <__divdi3+0xbe>
2000a2c2:	fab3 f783 	clz	r7, r3
2000a2c6:	2f00      	cmp	r7, #0
2000a2c8:	d168      	bne.n	2000a39c <__divdi3+0x244>
2000a2ca:	428b      	cmp	r3, r1
2000a2cc:	bf2c      	ite	cs
2000a2ce:	f04f 0900 	movcs.w	r9, #0
2000a2d2:	f04f 0901 	movcc.w	r9, #1
2000a2d6:	4282      	cmp	r2, r0
2000a2d8:	bf8c      	ite	hi
2000a2da:	464c      	movhi	r4, r9
2000a2dc:	f049 0401 	orrls.w	r4, r9, #1
2000a2e0:	2c00      	cmp	r4, #0
2000a2e2:	d096      	beq.n	2000a212 <__divdi3+0xba>
2000a2e4:	f04f 0801 	mov.w	r8, #1
2000a2e8:	e795      	b.n	2000a216 <__divdi3+0xbe>
2000a2ea:	4252      	negs	r2, r2
2000a2ec:	eb63 0343 	sbc.w	r3, r3, r3, lsl #1
2000a2f0:	43f6      	mvns	r6, r6
2000a2f2:	e73b      	b.n	2000a16c <__divdi3+0x14>
2000a2f4:	4240      	negs	r0, r0
2000a2f6:	eb61 0141 	sbc.w	r1, r1, r1, lsl #1
2000a2fa:	f04f 36ff 	mov.w	r6, #4294967295
2000a2fe:	e732      	b.n	2000a166 <__divdi3+0xe>
2000a300:	fa04 f408 	lsl.w	r4, r4, r8
2000a304:	f1c8 0720 	rsb	r7, r8, #32
2000a308:	fa35 f307 	lsrs.w	r3, r5, r7
2000a30c:	fa29 fa07 	lsr.w	sl, r9, r7
2000a310:	0c27      	lsrs	r7, r4, #16
2000a312:	fa09 fb08 	lsl.w	fp, r9, r8
2000a316:	4639      	mov	r1, r7
2000a318:	4650      	mov	r0, sl
2000a31a:	ea43 020b 	orr.w	r2, r3, fp
2000a31e:	9202      	str	r2, [sp, #8]
2000a320:	f7ff f83a 	bl	20009398 <__aeabi_uidiv>
2000a324:	4639      	mov	r1, r7
2000a326:	fa1f f984 	uxth.w	r9, r4
2000a32a:	4683      	mov	fp, r0
2000a32c:	4650      	mov	r0, sl
2000a32e:	f7ff f961 	bl	200095f4 <__aeabi_uidivmod>
2000a332:	9802      	ldr	r0, [sp, #8]
2000a334:	fb09 f20b 	mul.w	r2, r9, fp
2000a338:	0c03      	lsrs	r3, r0, #16
2000a33a:	ea43 4301 	orr.w	r3, r3, r1, lsl #16
2000a33e:	429a      	cmp	r2, r3
2000a340:	d904      	bls.n	2000a34c <__divdi3+0x1f4>
2000a342:	191b      	adds	r3, r3, r4
2000a344:	f10b 3bff 	add.w	fp, fp, #4294967295
2000a348:	f0c0 80b1 	bcc.w	2000a4ae <__divdi3+0x356>
2000a34c:	1a9b      	subs	r3, r3, r2
2000a34e:	4639      	mov	r1, r7
2000a350:	4618      	mov	r0, r3
2000a352:	9301      	str	r3, [sp, #4]
2000a354:	f7ff f820 	bl	20009398 <__aeabi_uidiv>
2000a358:	9901      	ldr	r1, [sp, #4]
2000a35a:	4682      	mov	sl, r0
2000a35c:	4608      	mov	r0, r1
2000a35e:	4639      	mov	r1, r7
2000a360:	f7ff f948 	bl	200095f4 <__aeabi_uidivmod>
2000a364:	f8dd c008 	ldr.w	ip, [sp, #8]
2000a368:	fb09 f30a 	mul.w	r3, r9, sl
2000a36c:	fa1f f08c 	uxth.w	r0, ip
2000a370:	ea40 4201 	orr.w	r2, r0, r1, lsl #16
2000a374:	4293      	cmp	r3, r2
2000a376:	d908      	bls.n	2000a38a <__divdi3+0x232>
2000a378:	1912      	adds	r2, r2, r4
2000a37a:	f10a 3aff 	add.w	sl, sl, #4294967295
2000a37e:	d204      	bcs.n	2000a38a <__divdi3+0x232>
2000a380:	4293      	cmp	r3, r2
2000a382:	bf84      	itt	hi
2000a384:	f10a 3aff 	addhi.w	sl, sl, #4294967295
2000a388:	1912      	addhi	r2, r2, r4
2000a38a:	fa05 f508 	lsl.w	r5, r5, r8
2000a38e:	ea4a 4e0b 	orr.w	lr, sl, fp, lsl #16
2000a392:	ebc3 0802 	rsb	r8, r3, r2
2000a396:	f8cd e008 	str.w	lr, [sp, #8]
2000a39a:	e759      	b.n	2000a250 <__divdi3+0xf8>
2000a39c:	f1c7 0020 	rsb	r0, r7, #32
2000a3a0:	fa03 fa07 	lsl.w	sl, r3, r7
2000a3a4:	40c2      	lsrs	r2, r0
2000a3a6:	fa35 f300 	lsrs.w	r3, r5, r0
2000a3aa:	ea42 0b0a 	orr.w	fp, r2, sl
2000a3ae:	fa21 f800 	lsr.w	r8, r1, r0
2000a3b2:	fa01 f907 	lsl.w	r9, r1, r7
2000a3b6:	4640      	mov	r0, r8
2000a3b8:	ea4f 4a1b 	mov.w	sl, fp, lsr #16
2000a3bc:	ea43 0109 	orr.w	r1, r3, r9
2000a3c0:	9102      	str	r1, [sp, #8]
2000a3c2:	4651      	mov	r1, sl
2000a3c4:	fa1f f28b 	uxth.w	r2, fp
2000a3c8:	9203      	str	r2, [sp, #12]
2000a3ca:	f7fe ffe5 	bl	20009398 <__aeabi_uidiv>
2000a3ce:	4651      	mov	r1, sl
2000a3d0:	4681      	mov	r9, r0
2000a3d2:	4640      	mov	r0, r8
2000a3d4:	f7ff f90e 	bl	200095f4 <__aeabi_uidivmod>
2000a3d8:	9b03      	ldr	r3, [sp, #12]
2000a3da:	f8dd c008 	ldr.w	ip, [sp, #8]
2000a3de:	fb03 f209 	mul.w	r2, r3, r9
2000a3e2:	ea4f 401c 	mov.w	r0, ip, lsr #16
2000a3e6:	fa14 f307 	lsls.w	r3, r4, r7
2000a3ea:	ea40 4401 	orr.w	r4, r0, r1, lsl #16
2000a3ee:	42a2      	cmp	r2, r4
2000a3f0:	d904      	bls.n	2000a3fc <__divdi3+0x2a4>
2000a3f2:	eb14 040b 	adds.w	r4, r4, fp
2000a3f6:	f109 39ff 	add.w	r9, r9, #4294967295
2000a3fa:	d352      	bcc.n	2000a4a2 <__divdi3+0x34a>
2000a3fc:	1aa4      	subs	r4, r4, r2
2000a3fe:	4651      	mov	r1, sl
2000a400:	4620      	mov	r0, r4
2000a402:	9301      	str	r3, [sp, #4]
2000a404:	f7fe ffc8 	bl	20009398 <__aeabi_uidiv>
2000a408:	4651      	mov	r1, sl
2000a40a:	4680      	mov	r8, r0
2000a40c:	4620      	mov	r0, r4
2000a40e:	f7ff f8f1 	bl	200095f4 <__aeabi_uidivmod>
2000a412:	9803      	ldr	r0, [sp, #12]
2000a414:	f8dd c008 	ldr.w	ip, [sp, #8]
2000a418:	fb00 f208 	mul.w	r2, r0, r8
2000a41c:	fa1f f38c 	uxth.w	r3, ip
2000a420:	ea43 4001 	orr.w	r0, r3, r1, lsl #16
2000a424:	9b01      	ldr	r3, [sp, #4]
2000a426:	4282      	cmp	r2, r0
2000a428:	d904      	bls.n	2000a434 <__divdi3+0x2dc>
2000a42a:	eb10 000b 	adds.w	r0, r0, fp
2000a42e:	f108 38ff 	add.w	r8, r8, #4294967295
2000a432:	d330      	bcc.n	2000a496 <__divdi3+0x33e>
2000a434:	ea48 4809 	orr.w	r8, r8, r9, lsl #16
2000a438:	fa1f fc83 	uxth.w	ip, r3
2000a43c:	0c1b      	lsrs	r3, r3, #16
2000a43e:	1a80      	subs	r0, r0, r2
2000a440:	fa1f fe88 	uxth.w	lr, r8
2000a444:	ea4f 4a18 	mov.w	sl, r8, lsr #16
2000a448:	fb0c f90e 	mul.w	r9, ip, lr
2000a44c:	fb0c fc0a 	mul.w	ip, ip, sl
2000a450:	fb03 c10e 	mla	r1, r3, lr, ip
2000a454:	fb03 f20a 	mul.w	r2, r3, sl
2000a458:	eb01 4119 	add.w	r1, r1, r9, lsr #16
2000a45c:	458c      	cmp	ip, r1
2000a45e:	bf88      	it	hi
2000a460:	f502 3280 	addhi.w	r2, r2, #65536	; 0x10000
2000a464:	eb02 4e11 	add.w	lr, r2, r1, lsr #16
2000a468:	4570      	cmp	r0, lr
2000a46a:	d310      	bcc.n	2000a48e <__divdi3+0x336>
2000a46c:	fa1f f989 	uxth.w	r9, r9
2000a470:	fa05 f707 	lsl.w	r7, r5, r7
2000a474:	eb09 4001 	add.w	r0, r9, r1, lsl #16
2000a478:	bf14      	ite	ne
2000a47a:	2200      	movne	r2, #0
2000a47c:	2201      	moveq	r2, #1
2000a47e:	4287      	cmp	r7, r0
2000a480:	bf2c      	ite	cs
2000a482:	2700      	movcs	r7, #0
2000a484:	f002 0701 	andcc.w	r7, r2, #1
2000a488:	2f00      	cmp	r7, #0
2000a48a:	f43f aec4 	beq.w	2000a216 <__divdi3+0xbe>
2000a48e:	f108 38ff 	add.w	r8, r8, #4294967295
2000a492:	2700      	movs	r7, #0
2000a494:	e6bf      	b.n	2000a216 <__divdi3+0xbe>
2000a496:	4282      	cmp	r2, r0
2000a498:	bf84      	itt	hi
2000a49a:	4458      	addhi	r0, fp
2000a49c:	f108 38ff 	addhi.w	r8, r8, #4294967295
2000a4a0:	e7c8      	b.n	2000a434 <__divdi3+0x2dc>
2000a4a2:	42a2      	cmp	r2, r4
2000a4a4:	bf84      	itt	hi
2000a4a6:	f109 39ff 	addhi.w	r9, r9, #4294967295
2000a4aa:	445c      	addhi	r4, fp
2000a4ac:	e7a6      	b.n	2000a3fc <__divdi3+0x2a4>
2000a4ae:	429a      	cmp	r2, r3
2000a4b0:	bf84      	itt	hi
2000a4b2:	f10b 3bff 	addhi.w	fp, fp, #4294967295
2000a4b6:	191b      	addhi	r3, r3, r4
2000a4b8:	e748      	b.n	2000a34c <__divdi3+0x1f4>
2000a4ba:	bf00      	nop

2000a4bc <__udivdi3>:
2000a4bc:	e92d 4ff0 	stmdb	sp!, {r4, r5, r6, r7, r8, r9, sl, fp, lr}
2000a4c0:	460c      	mov	r4, r1
2000a4c2:	b083      	sub	sp, #12
2000a4c4:	4680      	mov	r8, r0
2000a4c6:	4616      	mov	r6, r2
2000a4c8:	4689      	mov	r9, r1
2000a4ca:	461f      	mov	r7, r3
2000a4cc:	4615      	mov	r5, r2
2000a4ce:	468a      	mov	sl, r1
2000a4d0:	2b00      	cmp	r3, #0
2000a4d2:	d14b      	bne.n	2000a56c <__udivdi3+0xb0>
2000a4d4:	428a      	cmp	r2, r1
2000a4d6:	d95c      	bls.n	2000a592 <__udivdi3+0xd6>
2000a4d8:	fab2 f382 	clz	r3, r2
2000a4dc:	b15b      	cbz	r3, 2000a4f6 <__udivdi3+0x3a>
2000a4de:	f1c3 0020 	rsb	r0, r3, #32
2000a4e2:	fa01 fa03 	lsl.w	sl, r1, r3
2000a4e6:	fa28 f200 	lsr.w	r2, r8, r0
2000a4ea:	fa16 f503 	lsls.w	r5, r6, r3
2000a4ee:	fa08 f803 	lsl.w	r8, r8, r3
2000a4f2:	ea42 0a0a 	orr.w	sl, r2, sl
2000a4f6:	0c2e      	lsrs	r6, r5, #16
2000a4f8:	4650      	mov	r0, sl
2000a4fa:	4631      	mov	r1, r6
2000a4fc:	b2af      	uxth	r7, r5
2000a4fe:	f7fe ff4b 	bl	20009398 <__aeabi_uidiv>
2000a502:	4631      	mov	r1, r6
2000a504:	ea4f 4418 	mov.w	r4, r8, lsr #16
2000a508:	4681      	mov	r9, r0
2000a50a:	4650      	mov	r0, sl
2000a50c:	f7ff f872 	bl	200095f4 <__aeabi_uidivmod>
2000a510:	fb07 f309 	mul.w	r3, r7, r9
2000a514:	ea44 4a01 	orr.w	sl, r4, r1, lsl #16
2000a518:	4553      	cmp	r3, sl
2000a51a:	d909      	bls.n	2000a530 <__udivdi3+0x74>
2000a51c:	eb1a 0a05 	adds.w	sl, sl, r5
2000a520:	f109 39ff 	add.w	r9, r9, #4294967295
2000a524:	d204      	bcs.n	2000a530 <__udivdi3+0x74>
2000a526:	4553      	cmp	r3, sl
2000a528:	bf84      	itt	hi
2000a52a:	f109 39ff 	addhi.w	r9, r9, #4294967295
2000a52e:	44aa      	addhi	sl, r5
2000a530:	ebc3 0a0a 	rsb	sl, r3, sl
2000a534:	4631      	mov	r1, r6
2000a536:	4650      	mov	r0, sl
2000a538:	fa1f f888 	uxth.w	r8, r8
2000a53c:	f7fe ff2c 	bl	20009398 <__aeabi_uidiv>
2000a540:	4631      	mov	r1, r6
2000a542:	4604      	mov	r4, r0
2000a544:	4650      	mov	r0, sl
2000a546:	f7ff f855 	bl	200095f4 <__aeabi_uidivmod>
2000a54a:	fb07 f704 	mul.w	r7, r7, r4
2000a54e:	ea48 4801 	orr.w	r8, r8, r1, lsl #16
2000a552:	4547      	cmp	r7, r8
2000a554:	d906      	bls.n	2000a564 <__udivdi3+0xa8>
2000a556:	3c01      	subs	r4, #1
2000a558:	eb18 0805 	adds.w	r8, r8, r5
2000a55c:	d202      	bcs.n	2000a564 <__udivdi3+0xa8>
2000a55e:	4547      	cmp	r7, r8
2000a560:	bf88      	it	hi
2000a562:	3c01      	subhi	r4, #1
2000a564:	ea44 4409 	orr.w	r4, r4, r9, lsl #16
2000a568:	2600      	movs	r6, #0
2000a56a:	e05c      	b.n	2000a626 <__udivdi3+0x16a>
2000a56c:	428b      	cmp	r3, r1
2000a56e:	d858      	bhi.n	2000a622 <__udivdi3+0x166>
2000a570:	fab3 f683 	clz	r6, r3
2000a574:	2e00      	cmp	r6, #0
2000a576:	d15b      	bne.n	2000a630 <__udivdi3+0x174>
2000a578:	428b      	cmp	r3, r1
2000a57a:	bf2c      	ite	cs
2000a57c:	2200      	movcs	r2, #0
2000a57e:	2201      	movcc	r2, #1
2000a580:	4285      	cmp	r5, r0
2000a582:	bf8c      	ite	hi
2000a584:	4615      	movhi	r5, r2
2000a586:	f042 0501 	orrls.w	r5, r2, #1
2000a58a:	2d00      	cmp	r5, #0
2000a58c:	d049      	beq.n	2000a622 <__udivdi3+0x166>
2000a58e:	2401      	movs	r4, #1
2000a590:	e049      	b.n	2000a626 <__udivdi3+0x16a>
2000a592:	b922      	cbnz	r2, 2000a59e <__udivdi3+0xe2>
2000a594:	4611      	mov	r1, r2
2000a596:	2001      	movs	r0, #1
2000a598:	f7fe fefe 	bl	20009398 <__aeabi_uidiv>
2000a59c:	4605      	mov	r5, r0
2000a59e:	fab5 f685 	clz	r6, r5
2000a5a2:	2e00      	cmp	r6, #0
2000a5a4:	f040 80ba 	bne.w	2000a71c <__udivdi3+0x260>
2000a5a8:	1b64      	subs	r4, r4, r5
2000a5aa:	0c2f      	lsrs	r7, r5, #16
2000a5ac:	fa1f fa85 	uxth.w	sl, r5
2000a5b0:	2601      	movs	r6, #1
2000a5b2:	4639      	mov	r1, r7
2000a5b4:	4620      	mov	r0, r4
2000a5b6:	f7fe feef 	bl	20009398 <__aeabi_uidiv>
2000a5ba:	4639      	mov	r1, r7
2000a5bc:	ea4f 4b18 	mov.w	fp, r8, lsr #16
2000a5c0:	4681      	mov	r9, r0
2000a5c2:	4620      	mov	r0, r4
2000a5c4:	f7ff f816 	bl	200095f4 <__aeabi_uidivmod>
2000a5c8:	fb0a f309 	mul.w	r3, sl, r9
2000a5cc:	ea4b 4b01 	orr.w	fp, fp, r1, lsl #16
2000a5d0:	455b      	cmp	r3, fp
2000a5d2:	d909      	bls.n	2000a5e8 <__udivdi3+0x12c>
2000a5d4:	eb1b 0b05 	adds.w	fp, fp, r5
2000a5d8:	f109 39ff 	add.w	r9, r9, #4294967295
2000a5dc:	d204      	bcs.n	2000a5e8 <__udivdi3+0x12c>
2000a5de:	455b      	cmp	r3, fp
2000a5e0:	bf84      	itt	hi
2000a5e2:	f109 39ff 	addhi.w	r9, r9, #4294967295
2000a5e6:	44ab      	addhi	fp, r5
2000a5e8:	ebc3 0b0b 	rsb	fp, r3, fp
2000a5ec:	4639      	mov	r1, r7
2000a5ee:	4658      	mov	r0, fp
2000a5f0:	fa1f f888 	uxth.w	r8, r8
2000a5f4:	f7fe fed0 	bl	20009398 <__aeabi_uidiv>
2000a5f8:	4639      	mov	r1, r7
2000a5fa:	4604      	mov	r4, r0
2000a5fc:	4658      	mov	r0, fp
2000a5fe:	f7fe fff9 	bl	200095f4 <__aeabi_uidivmod>
2000a602:	fb0a fa04 	mul.w	sl, sl, r4
2000a606:	ea48 4801 	orr.w	r8, r8, r1, lsl #16
2000a60a:	45c2      	cmp	sl, r8
2000a60c:	d906      	bls.n	2000a61c <__udivdi3+0x160>
2000a60e:	3c01      	subs	r4, #1
2000a610:	eb18 0805 	adds.w	r8, r8, r5
2000a614:	d202      	bcs.n	2000a61c <__udivdi3+0x160>
2000a616:	45c2      	cmp	sl, r8
2000a618:	bf88      	it	hi
2000a61a:	3c01      	subhi	r4, #1
2000a61c:	ea44 4409 	orr.w	r4, r4, r9, lsl #16
2000a620:	e001      	b.n	2000a626 <__udivdi3+0x16a>
2000a622:	2600      	movs	r6, #0
2000a624:	4634      	mov	r4, r6
2000a626:	4631      	mov	r1, r6
2000a628:	4620      	mov	r0, r4
2000a62a:	b003      	add	sp, #12
2000a62c:	e8bd 8ff0 	ldmia.w	sp!, {r4, r5, r6, r7, r8, r9, sl, fp, pc}
2000a630:	f1c6 0020 	rsb	r0, r6, #32
2000a634:	40b3      	lsls	r3, r6
2000a636:	fa32 f700 	lsrs.w	r7, r2, r0
2000a63a:	fa21 fb00 	lsr.w	fp, r1, r0
2000a63e:	431f      	orrs	r7, r3
2000a640:	fa14 f206 	lsls.w	r2, r4, r6
2000a644:	fa28 f100 	lsr.w	r1, r8, r0
2000a648:	4658      	mov	r0, fp
2000a64a:	ea4f 4a17 	mov.w	sl, r7, lsr #16
2000a64e:	4311      	orrs	r1, r2
2000a650:	9100      	str	r1, [sp, #0]
2000a652:	4651      	mov	r1, sl
2000a654:	b2bb      	uxth	r3, r7
2000a656:	9301      	str	r3, [sp, #4]
2000a658:	f7fe fe9e 	bl	20009398 <__aeabi_uidiv>
2000a65c:	4651      	mov	r1, sl
2000a65e:	40b5      	lsls	r5, r6
2000a660:	4681      	mov	r9, r0
2000a662:	4658      	mov	r0, fp
2000a664:	f7fe ffc6 	bl	200095f4 <__aeabi_uidivmod>
2000a668:	9c01      	ldr	r4, [sp, #4]
2000a66a:	9800      	ldr	r0, [sp, #0]
2000a66c:	fb04 f309 	mul.w	r3, r4, r9
2000a670:	ea4f 4c10 	mov.w	ip, r0, lsr #16
2000a674:	ea4c 4b01 	orr.w	fp, ip, r1, lsl #16
2000a678:	455b      	cmp	r3, fp
2000a67a:	d905      	bls.n	2000a688 <__udivdi3+0x1cc>
2000a67c:	eb1b 0b07 	adds.w	fp, fp, r7
2000a680:	f109 39ff 	add.w	r9, r9, #4294967295
2000a684:	f0c0 808e 	bcc.w	2000a7a4 <__udivdi3+0x2e8>
2000a688:	ebc3 0b0b 	rsb	fp, r3, fp
2000a68c:	4651      	mov	r1, sl
2000a68e:	4658      	mov	r0, fp
2000a690:	f7fe fe82 	bl	20009398 <__aeabi_uidiv>
2000a694:	4651      	mov	r1, sl
2000a696:	4604      	mov	r4, r0
2000a698:	4658      	mov	r0, fp
2000a69a:	f7fe ffab 	bl	200095f4 <__aeabi_uidivmod>
2000a69e:	9801      	ldr	r0, [sp, #4]
2000a6a0:	9a00      	ldr	r2, [sp, #0]
2000a6a2:	fb00 f304 	mul.w	r3, r0, r4
2000a6a6:	fa1f fc82 	uxth.w	ip, r2
2000a6aa:	ea4c 4201 	orr.w	r2, ip, r1, lsl #16
2000a6ae:	4293      	cmp	r3, r2
2000a6b0:	d906      	bls.n	2000a6c0 <__udivdi3+0x204>
2000a6b2:	3c01      	subs	r4, #1
2000a6b4:	19d2      	adds	r2, r2, r7
2000a6b6:	d203      	bcs.n	2000a6c0 <__udivdi3+0x204>
2000a6b8:	4293      	cmp	r3, r2
2000a6ba:	d901      	bls.n	2000a6c0 <__udivdi3+0x204>
2000a6bc:	19d2      	adds	r2, r2, r7
2000a6be:	3c01      	subs	r4, #1
2000a6c0:	ea44 4409 	orr.w	r4, r4, r9, lsl #16
2000a6c4:	b2a8      	uxth	r0, r5
2000a6c6:	1ad2      	subs	r2, r2, r3
2000a6c8:	0c2d      	lsrs	r5, r5, #16
2000a6ca:	fa1f fc84 	uxth.w	ip, r4
2000a6ce:	0c23      	lsrs	r3, r4, #16
2000a6d0:	fb00 f70c 	mul.w	r7, r0, ip
2000a6d4:	fb00 fe03 	mul.w	lr, r0, r3
2000a6d8:	fb05 e10c 	mla	r1, r5, ip, lr
2000a6dc:	fb05 f503 	mul.w	r5, r5, r3
2000a6e0:	eb01 4117 	add.w	r1, r1, r7, lsr #16
2000a6e4:	458e      	cmp	lr, r1
2000a6e6:	bf88      	it	hi
2000a6e8:	f505 3580 	addhi.w	r5, r5, #65536	; 0x10000
2000a6ec:	eb05 4511 	add.w	r5, r5, r1, lsr #16
2000a6f0:	42aa      	cmp	r2, r5
2000a6f2:	d310      	bcc.n	2000a716 <__udivdi3+0x25a>
2000a6f4:	b2bf      	uxth	r7, r7
2000a6f6:	fa08 f606 	lsl.w	r6, r8, r6
2000a6fa:	eb07 4201 	add.w	r2, r7, r1, lsl #16
2000a6fe:	bf14      	ite	ne
2000a700:	f04f 0e00 	movne.w	lr, #0
2000a704:	f04f 0e01 	moveq.w	lr, #1
2000a708:	4296      	cmp	r6, r2
2000a70a:	bf2c      	ite	cs
2000a70c:	2600      	movcs	r6, #0
2000a70e:	f00e 0601 	andcc.w	r6, lr, #1
2000a712:	2e00      	cmp	r6, #0
2000a714:	d087      	beq.n	2000a626 <__udivdi3+0x16a>
2000a716:	3c01      	subs	r4, #1
2000a718:	2600      	movs	r6, #0
2000a71a:	e784      	b.n	2000a626 <__udivdi3+0x16a>
2000a71c:	40b5      	lsls	r5, r6
2000a71e:	f1c6 0120 	rsb	r1, r6, #32
2000a722:	fa24 f901 	lsr.w	r9, r4, r1
2000a726:	fa28 f201 	lsr.w	r2, r8, r1
2000a72a:	0c2f      	lsrs	r7, r5, #16
2000a72c:	40b4      	lsls	r4, r6
2000a72e:	4639      	mov	r1, r7
2000a730:	4648      	mov	r0, r9
2000a732:	4322      	orrs	r2, r4
2000a734:	9200      	str	r2, [sp, #0]
2000a736:	f7fe fe2f 	bl	20009398 <__aeabi_uidiv>
2000a73a:	4639      	mov	r1, r7
2000a73c:	fa1f fa85 	uxth.w	sl, r5
2000a740:	4683      	mov	fp, r0
2000a742:	4648      	mov	r0, r9
2000a744:	f7fe ff56 	bl	200095f4 <__aeabi_uidivmod>
2000a748:	9b00      	ldr	r3, [sp, #0]
2000a74a:	0c1a      	lsrs	r2, r3, #16
2000a74c:	fb0a f30b 	mul.w	r3, sl, fp
2000a750:	ea42 4401 	orr.w	r4, r2, r1, lsl #16
2000a754:	42a3      	cmp	r3, r4
2000a756:	d903      	bls.n	2000a760 <__udivdi3+0x2a4>
2000a758:	1964      	adds	r4, r4, r5
2000a75a:	f10b 3bff 	add.w	fp, fp, #4294967295
2000a75e:	d327      	bcc.n	2000a7b0 <__udivdi3+0x2f4>
2000a760:	1ae4      	subs	r4, r4, r3
2000a762:	4639      	mov	r1, r7
2000a764:	4620      	mov	r0, r4
2000a766:	f7fe fe17 	bl	20009398 <__aeabi_uidiv>
2000a76a:	4639      	mov	r1, r7
2000a76c:	4681      	mov	r9, r0
2000a76e:	4620      	mov	r0, r4
2000a770:	f7fe ff40 	bl	200095f4 <__aeabi_uidivmod>
2000a774:	9800      	ldr	r0, [sp, #0]
2000a776:	fb0a f309 	mul.w	r3, sl, r9
2000a77a:	fa1f fc80 	uxth.w	ip, r0
2000a77e:	ea4c 4401 	orr.w	r4, ip, r1, lsl #16
2000a782:	42a3      	cmp	r3, r4
2000a784:	d908      	bls.n	2000a798 <__udivdi3+0x2dc>
2000a786:	1964      	adds	r4, r4, r5
2000a788:	f109 39ff 	add.w	r9, r9, #4294967295
2000a78c:	d204      	bcs.n	2000a798 <__udivdi3+0x2dc>
2000a78e:	42a3      	cmp	r3, r4
2000a790:	bf84      	itt	hi
2000a792:	f109 39ff 	addhi.w	r9, r9, #4294967295
2000a796:	1964      	addhi	r4, r4, r5
2000a798:	fa08 f806 	lsl.w	r8, r8, r6
2000a79c:	1ae4      	subs	r4, r4, r3
2000a79e:	ea49 460b 	orr.w	r6, r9, fp, lsl #16
2000a7a2:	e706      	b.n	2000a5b2 <__udivdi3+0xf6>
2000a7a4:	455b      	cmp	r3, fp
2000a7a6:	bf84      	itt	hi
2000a7a8:	f109 39ff 	addhi.w	r9, r9, #4294967295
2000a7ac:	44bb      	addhi	fp, r7
2000a7ae:	e76b      	b.n	2000a688 <__udivdi3+0x1cc>
2000a7b0:	42a3      	cmp	r3, r4
2000a7b2:	bf84      	itt	hi
2000a7b4:	f10b 3bff 	addhi.w	fp, fp, #4294967295
2000a7b8:	1964      	addhi	r4, r4, r5
2000a7ba:	e7d1      	b.n	2000a760 <__udivdi3+0x2a4>
2000a7bc:	00006425 	.word	0x00006425
2000a7c0:	70616548 	.word	0x70616548
2000a7c4:	646e6120 	.word	0x646e6120
2000a7c8:	61747320 	.word	0x61747320
2000a7cc:	63206b63 	.word	0x63206b63
2000a7d0:	696c6c6f 	.word	0x696c6c6f
2000a7d4:	6e6f6973 	.word	0x6e6f6973
2000a7d8:	0000000a 	.word	0x0000000a

2000a7dc <C.18.2576>:
2000a7dc:	00000001 00000002 00000004 00000001     ................

2000a7ec <_global_impure_ptr>:
2000a7ec:	2000ac00 00000043                       ... C...

2000a7f4 <basefix.3536>:
2000a7f4:	0001000a 00030002 00050004 00070006     ................
2000a804:	00090008 000b000a 000d000c 000f000e     ................
2000a814:	00000010 646c2565 00000000              ....e%ld....

2000a820 <_ctype_>:
2000a820:	20202000 20202020 28282020 20282828     .         ((((( 
2000a830:	20202020 20202020 20202020 20202020                     
2000a840:	10108820 10101010 10101010 10101010      ...............
2000a850:	04040410 04040404 10040404 10101010     ................
2000a860:	41411010 41414141 01010101 01010101     ..AAAAAA........
2000a870:	01010101 01010101 01010101 10101010     ................
2000a880:	42421010 42424242 02020202 02020202     ..BBBBBB........
2000a890:	02020202 02020202 02020202 10101010     ................
2000a8a0:	00000020 00000000 00000000 00000000      ...............
	...

2000a924 <__sf_fake_stdin>:
	...

2000a944 <__sf_fake_stdout>:
	...

2000a964 <__sf_fake_stderr>:
	...

2000a984 <charset>:
2000a984:	2000a9bc                                ... 

2000a988 <lconv>:
2000a988:	2000a9b8 2000aa30 2000aa30 2000aa30     ... 0.. 0.. 0.. 
2000a998:	2000aa30 2000aa30 2000aa30 2000aa30     0.. 0.. 0.. 0.. 
2000a9a8:	2000aa30 2000aa30 ffffffff ffffffff     0.. 0.. ........
2000a9b8:	0000002e 2d4f5349 39353838 0000312d     ....ISO-8859-1..

2000a9c8 <tinytens>:
2000a9c8:	97d889bc 3c9cd2b2 d5a8a733 3949f623     .......<3...#.I9
2000a9d8:	44f4a73d 32a50ffd cf8c979d 255bba08     =..D...2......[%
2000a9e8:	64ac6f43 0e180628 0000666e 74696e69     Co.d(...nf..init
2000a9f8:	00000079 00006e61                       y...an..

2000aa00 <blanks.3595>:
2000aa00:	20202020 20202020 20202020 20202020                     

2000aa10 <zeroes.3596>:
2000aa10:	30303030 30303030 30303030 30303030     0000000000000000
2000aa20:	33323130 37363534 42413938 46454443     0123456789ABCDEF
2000aa30:	00000000 00464e49 00666e69 004e414e     ....INF.inf.NAN.
2000aa40:	006e616e 33323130 37363534 62613938     nan.0123456789ab
2000aa50:	66656463 00000000 6c756e28 0000296c     cdef....(null)..
2000aa60:	00000030 69666e49 7974696e 00000000     0...Infinity....
2000aa70:	004e614e 44434241 00004645 64636261     NaN.ABCDEF..abcd
2000aa80:	00006665 33323130 37363534 00003938     ef..0123456789..

2000aa90 <__mprec_tens>:
2000aa90:	00000000 3ff00000 00000000 40240000     .......?......$@
2000aaa0:	00000000 40590000 00000000 408f4000     ......Y@.....@.@
2000aab0:	00000000 40c38800 00000000 40f86a00     .......@.....j.@
2000aac0:	00000000 412e8480 00000000 416312d0     .......A......cA
2000aad0:	00000000 4197d784 00000000 41cdcd65     .......A....e..A
2000aae0:	20000000 4202a05f e8000000 42374876     ... _..B....vH7B
2000aaf0:	a2000000 426d1a94 e5400000 42a2309c     ......mB..@..0.B
2000ab00:	1e900000 42d6bcc4 26340000 430c6bf5     .......B..4&.k.C
2000ab10:	37e08000 4341c379 85d8a000 43763457     ...7y.AC....W4vC
2000ab20:	674ec800 43abc16d 60913d00 43e158e4     ..Ngm..C.=.`.X.C
2000ab30:	78b58c40 4415af1d d6e2ef50 444b1ae4     @..x...DP.....KD
2000ab40:	064dd592 4480f0cf c7e14af6 44b52d02     ..M....D.J...-.D
2000ab50:	79d99db4 44ea7843                       ...yCx.D

2000ab58 <p05.2463>:
2000ab58:	00000005 00000019 0000007d 00000000     ........}.......

2000ab68 <__mprec_bigtens>:
2000ab68:	37e08000 4341c379 b5056e17 4693b8b5     ...7y.AC.n.....F
2000ab78:	e93ff9f5 4d384f03 f9301d32 5a827748     ..?..O8M2.0.Hw.Z
2000ab88:	7f73bf3c 75154fdd                       <.s..O.u

2000ab90 <__mprec_tinytens>:
2000ab90:	97d889bc 3c9cd2b2 d5a8a733 3949f623     .......<3...#.I9
2000aba0:	44f4a73d 32a50ffd cf8c979d 255bba08     =..D...2......[%
2000abb0:	64ac6f43 0ac80628                       Co.d(...

2000abb8 <_init>:
2000abb8:	b5f8      	push	{r3, r4, r5, r6, r7, lr}
2000abba:	bf00      	nop
2000abbc:	bcf8      	pop	{r3, r4, r5, r6, r7}
2000abbe:	bc08      	pop	{r3}
2000abc0:	469e      	mov	lr, r3
2000abc2:	4770      	bx	lr

2000abc4 <_fini>:
2000abc4:	b5f8      	push	{r3, r4, r5, r6, r7, lr}
2000abc6:	bf00      	nop
2000abc8:	bcf8      	pop	{r3, r4, r5, r6, r7}
2000abca:	bc08      	pop	{r3}
2000abcc:	469e      	mov	lr, r3
2000abce:	4770      	bx	lr

2000abd0 <__frame_dummy_init_array_entry>:
2000abd0:	0485 2000                                   ... 

2000abd4 <__do_global_dtors_aux_fini_array_entry>:
2000abd4:	0471 2000                                   q.. 
